Archive member included because of file (symbol)

c:/altera/12.1sp1/nios2eds/bin/gnu/h-i686-mingw32/bin/../lib/gcc/nios2-elf/4.1.2/../../../../nios2-elf/lib\libm.a(lib_a-w_sqrt.o)
                              obj/default/dtw.o (sqrt)
c:/altera/12.1sp1/nios2eds/bin/gnu/h-i686-mingw32/bin/../lib/gcc/nios2-elf/4.1.2/../../../../nios2-elf/lib\libm.a(lib_a-e_sqrt.o)
                              c:/altera/12.1sp1/nios2eds/bin/gnu/h-i686-mingw32/bin/../lib/gcc/nios2-elf/4.1.2/../../../../nios2-elf/lib\libm.a(lib_a-w_sqrt.o) (__ieee754_sqrt)
c:/altera/12.1sp1/nios2eds/bin/gnu/h-i686-mingw32/bin/../lib/gcc/nios2-elf/4.1.2/../../../../nios2-elf/lib\libm.a(lib_a-s_isnand.o)
                              c:/altera/12.1sp1/nios2eds/bin/gnu/h-i686-mingw32/bin/../lib/gcc/nios2-elf/4.1.2/../../../../nios2-elf/lib\libm.a(lib_a-w_sqrt.o) (__isnand)
c:/altera/12.1sp1/nios2eds/bin/gnu/h-i686-mingw32/bin/../lib/gcc/nios2-elf/4.1.2/../../../../nios2-elf/lib\libm.a(lib_a-s_lib_ver.o)
                              c:/altera/12.1sp1/nios2eds/bin/gnu/h-i686-mingw32/bin/../lib/gcc/nios2-elf/4.1.2/../../../../nios2-elf/lib\libm.a(lib_a-w_sqrt.o) (__fdlib_version)
c:/altera/12.1sp1/nios2eds/bin/gnu/h-i686-mingw32/bin/../lib/gcc/nios2-elf/4.1.2/../../../../nios2-elf/lib\libm.a(lib_a-s_matherr.o)
                              c:/altera/12.1sp1/nios2eds/bin/gnu/h-i686-mingw32/bin/../lib/gcc/nios2-elf/4.1.2/../../../../nios2-elf/lib\libm.a(lib_a-w_sqrt.o) (matherr)
c:/altera/12.1sp1/nios2eds/bin/gnu/h-i686-mingw32/bin/../lib/gcc/nios2-elf/4.1.2\libgcc.a(_muldi3.o)
                              obj/default/dtw.o (__muldi3)
c:/altera/12.1sp1/nios2eds/bin/gnu/h-i686-mingw32/bin/../lib/gcc/nios2-elf/4.1.2\libgcc.a(_fixdfdi.o)
                              obj/default/hello_ucosii.o (__fixdfdi)
c:/altera/12.1sp1/nios2eds/bin/gnu/h-i686-mingw32/bin/../lib/gcc/nios2-elf/4.1.2\libgcc.a(_fixunsdfdi.o)
                              c:/altera/12.1sp1/nios2eds/bin/gnu/h-i686-mingw32/bin/../lib/gcc/nios2-elf/4.1.2\libgcc.a(_fixdfdi.o) (__fixunsdfdi)
c:/altera/12.1sp1/nios2eds/bin/gnu/h-i686-mingw32/bin/../lib/gcc/nios2-elf/4.1.2\libgcc.a(_floatdidf.o)
                              obj/default/dtw.o (__floatdidf)
c:/altera/12.1sp1/nios2eds/bin/gnu/h-i686-mingw32/bin/../lib/gcc/nios2-elf/4.1.2\libgcc.a(_addsub_df.o)
                              c:/altera/12.1sp1/nios2eds/bin/gnu/h-i686-mingw32/bin/../lib/gcc/nios2-elf/4.1.2/../../../../nios2-elf/lib\libm.a(lib_a-e_sqrt.o) (__subdf3)
c:/altera/12.1sp1/nios2eds/bin/gnu/h-i686-mingw32/bin/../lib/gcc/nios2-elf/4.1.2\libgcc.a(_mul_df.o)
                              obj/default/dtw.o (__muldf3)
c:/altera/12.1sp1/nios2eds/bin/gnu/h-i686-mingw32/bin/../lib/gcc/nios2-elf/4.1.2\libgcc.a(_div_df.o)
                              c:/altera/12.1sp1/nios2eds/bin/gnu/h-i686-mingw32/bin/../lib/gcc/nios2-elf/4.1.2/../../../../nios2-elf/lib\libm.a(lib_a-w_sqrt.o) (__divdf3)
c:/altera/12.1sp1/nios2eds/bin/gnu/h-i686-mingw32/bin/../lib/gcc/nios2-elf/4.1.2\libgcc.a(_lt_df.o)
                              c:/altera/12.1sp1/nios2eds/bin/gnu/h-i686-mingw32/bin/../lib/gcc/nios2-elf/4.1.2/../../../../nios2-elf/lib\libm.a(lib_a-w_sqrt.o) (__ltdf2)
c:/altera/12.1sp1/nios2eds/bin/gnu/h-i686-mingw32/bin/../lib/gcc/nios2-elf/4.1.2\libgcc.a(_si_to_df.o)
                              obj/default/dtw.o (__floatsidf)
c:/altera/12.1sp1/nios2eds/bin/gnu/h-i686-mingw32/bin/../lib/gcc/nios2-elf/4.1.2\libgcc.a(_df_to_si.o)
                              obj/default/dtw.o (__fixdfsi)
c:/altera/12.1sp1/nios2eds/bin/gnu/h-i686-mingw32/bin/../lib/gcc/nios2-elf/4.1.2\libgcc.a(_thenan_df.o)
                              c:/altera/12.1sp1/nios2eds/bin/gnu/h-i686-mingw32/bin/../lib/gcc/nios2-elf/4.1.2\libgcc.a(_addsub_df.o) (__thenan_df)
c:/altera/12.1sp1/nios2eds/bin/gnu/h-i686-mingw32/bin/../lib/gcc/nios2-elf/4.1.2\libgcc.a(_usi_to_df.o)
                              obj/default/hello_ucosii.o (__floatunsidf)
c:/altera/12.1sp1/nios2eds/bin/gnu/h-i686-mingw32/bin/../lib/gcc/nios2-elf/4.1.2\libgcc.a(_clzsi2.o)
                              c:/altera/12.1sp1/nios2eds/bin/gnu/h-i686-mingw32/bin/../lib/gcc/nios2-elf/4.1.2\libgcc.a(_si_to_df.o) (__clzsi2)
c:/altera/12.1sp1/nios2eds/bin/gnu/h-i686-mingw32/bin/../lib/gcc/nios2-elf/4.1.2\libgcc.a(_fixunsdfsi.o)
                              c:/altera/12.1sp1/nios2eds/bin/gnu/h-i686-mingw32/bin/../lib/gcc/nios2-elf/4.1.2\libgcc.a(_fixunsdfdi.o) (__fixunsdfsi)
c:/altera/12.1sp1/nios2eds/bin/gnu/h-i686-mingw32/bin/../lib/gcc/nios2-elf/4.1.2\libgcc.a(_pack_df.o)
                              c:/altera/12.1sp1/nios2eds/bin/gnu/h-i686-mingw32/bin/../lib/gcc/nios2-elf/4.1.2\libgcc.a(_addsub_df.o) (__pack_d)
c:/altera/12.1sp1/nios2eds/bin/gnu/h-i686-mingw32/bin/../lib/gcc/nios2-elf/4.1.2\libgcc.a(_unpack_df.o)
                              c:/altera/12.1sp1/nios2eds/bin/gnu/h-i686-mingw32/bin/../lib/gcc/nios2-elf/4.1.2\libgcc.a(_addsub_df.o) (__unpack_d)
c:/altera/12.1sp1/nios2eds/bin/gnu/h-i686-mingw32/bin/../lib/gcc/nios2-elf/4.1.2\libgcc.a(_fpcmp_parts_df.o)
                              c:/altera/12.1sp1/nios2eds/bin/gnu/h-i686-mingw32/bin/../lib/gcc/nios2-elf/4.1.2\libgcc.a(_lt_df.o) (__fpcmp_parts_d)
c:/altera/12.1sp1/nios2eds/bin/gnu/h-i686-mingw32/bin/../lib/gcc/nios2-elf/4.1.2\libgcc.a(_ge_df.o)
                              c:/altera/12.1sp1/nios2eds/bin/gnu/h-i686-mingw32/bin/../lib/gcc/nios2-elf/4.1.2\libgcc.a(_fixunsdfsi.o) (__gedf2)
c:/altera/12.1sp1/nios2eds/bin/gnu/h-i686-mingw32/bin/../lib/gcc/nios2-elf/4.1.2\libgcc.a(_clz.o)
                              c:/altera/12.1sp1/nios2eds/bin/gnu/h-i686-mingw32/bin/../lib/gcc/nios2-elf/4.1.2\libgcc.a(_clzsi2.o) (__clz_tab)
c:/altera/12.1sp1/nios2eds/bin/gnu/h-i686-mingw32/bin/../lib/gcc/nios2-elf/4.1.2/../../../../nios2-elf/lib\libc.a(lib_a-errno.o)
                              c:/altera/12.1sp1/nios2eds/bin/gnu/h-i686-mingw32/bin/../lib/gcc/nios2-elf/4.1.2/../../../../nios2-elf/lib\libm.a(lib_a-w_sqrt.o) (__errno)
c:/altera/12.1sp1/nios2eds/bin/gnu/h-i686-mingw32/bin/../lib/gcc/nios2-elf/4.1.2/../../../../nios2-elf/lib\libc.a(lib_a-impure.o)
                              c:/altera/12.1sp1/nios2eds/bin/gnu/h-i686-mingw32/bin/../lib/gcc/nios2-elf/4.1.2/../../../../nios2-elf/lib\libc.a(lib_a-errno.o) (_impure_ptr)
c:/altera/12.1sp1/nios2eds/bin/gnu/h-i686-mingw32/bin/../lib/gcc/nios2-elf/4.1.2/../../../../nios2-elf/lib\libc.a(lib_a-printf.o)
                              obj/default/hello_ucosii.o (printf)
c:/altera/12.1sp1/nios2eds/bin/gnu/h-i686-mingw32/bin/../lib/gcc/nios2-elf/4.1.2/../../../../nios2-elf/lib\libc.a(lib_a-puts.o)
                              obj/default/hello_ucosii.o (puts)
c:/altera/12.1sp1/nios2eds/bin/gnu/h-i686-mingw32/bin/../lib/gcc/nios2-elf/4.1.2/../../../../nios2-elf/lib\libc.a(lib_a-strlen.o)
                              c:/altera/12.1sp1/nios2eds/bin/gnu/h-i686-mingw32/bin/../lib/gcc/nios2-elf/4.1.2/../../../../nios2-elf/lib\libc.a(lib_a-puts.o) (strlen)
c:/altera/12.1sp1/nios2eds/bin/gnu/h-i686-mingw32/bin/../lib/gcc/nios2-elf/4.1.2/../../../../nios2-elf/lib\libc.a(lib_a-vfprintf.o)
                              c:/altera/12.1sp1/nios2eds/bin/gnu/h-i686-mingw32/bin/../lib/gcc/nios2-elf/4.1.2/../../../../nios2-elf/lib\libc.a(lib_a-printf.o) (___vfprintf_internal_r)
c:/altera/12.1sp1/nios2eds/bin/gnu/h-i686-mingw32/bin/../lib/gcc/nios2-elf/4.1.2/../../../../nios2-elf/lib\libc.a(lib_a-wsetup.o)
                              c:/altera/12.1sp1/nios2eds/bin/gnu/h-i686-mingw32/bin/../lib/gcc/nios2-elf/4.1.2/../../../../nios2-elf/lib\libc.a(lib_a-vfprintf.o) (__swsetup_r)
c:/altera/12.1sp1/nios2eds/bin/gnu/h-i686-mingw32/bin/../lib/gcc/nios2-elf/4.1.2/../../../../nios2-elf/lib\libc.a(lib_a-dtoa.o)
                              c:/altera/12.1sp1/nios2eds/bin/gnu/h-i686-mingw32/bin/../lib/gcc/nios2-elf/4.1.2/../../../../nios2-elf/lib\libc.a(lib_a-vfprintf.o) (_dtoa_r)
c:/altera/12.1sp1/nios2eds/bin/gnu/h-i686-mingw32/bin/../lib/gcc/nios2-elf/4.1.2/../../../../nios2-elf/lib\libc.a(lib_a-fflush.o)
                              c:/altera/12.1sp1/nios2eds/bin/gnu/h-i686-mingw32/bin/../lib/gcc/nios2-elf/4.1.2/../../../../nios2-elf/lib\libc.a(lib_a-vfprintf.o) (_fflush_r)
c:/altera/12.1sp1/nios2eds/bin/gnu/h-i686-mingw32/bin/../lib/gcc/nios2-elf/4.1.2/../../../../nios2-elf/lib\libc.a(lib_a-findfp.o)
                              c:/altera/12.1sp1/nios2eds/bin/gnu/h-i686-mingw32/bin/../lib/gcc/nios2-elf/4.1.2/../../../../nios2-elf/lib\libc.a(lib_a-vfprintf.o) (__sinit)
c:/altera/12.1sp1/nios2eds/bin/gnu/h-i686-mingw32/bin/../lib/gcc/nios2-elf/4.1.2/../../../../nios2-elf/lib\libc.a(lib_a-freer.o)
                              c:/altera/12.1sp1/nios2eds/bin/gnu/h-i686-mingw32/bin/../lib/gcc/nios2-elf/4.1.2/../../../../nios2-elf/lib\libc.a(lib_a-wsetup.o) (_free_r)
c:/altera/12.1sp1/nios2eds/bin/gnu/h-i686-mingw32/bin/../lib/gcc/nios2-elf/4.1.2/../../../../nios2-elf/lib\libc.a(lib_a-fvwrite.o)
                              c:/altera/12.1sp1/nios2eds/bin/gnu/h-i686-mingw32/bin/../lib/gcc/nios2-elf/4.1.2/../../../../nios2-elf/lib\libc.a(lib_a-puts.o) (__sfvwrite_r)
c:/altera/12.1sp1/nios2eds/bin/gnu/h-i686-mingw32/bin/../lib/gcc/nios2-elf/4.1.2/../../../../nios2-elf/lib\libc.a(lib_a-fwalk.o)
                              c:/altera/12.1sp1/nios2eds/bin/gnu/h-i686-mingw32/bin/../lib/gcc/nios2-elf/4.1.2/../../../../nios2-elf/lib\libc.a(lib_a-fflush.o) (_fwalk_reent)
c:/altera/12.1sp1/nios2eds/bin/gnu/h-i686-mingw32/bin/../lib/gcc/nios2-elf/4.1.2/../../../../nios2-elf/lib\libc.a(lib_a-locale.o)
                              c:/altera/12.1sp1/nios2eds/bin/gnu/h-i686-mingw32/bin/../lib/gcc/nios2-elf/4.1.2/../../../../nios2-elf/lib\libc.a(lib_a-vfprintf.o) (_localeconv_r)
c:/altera/12.1sp1/nios2eds/bin/gnu/h-i686-mingw32/bin/../lib/gcc/nios2-elf/4.1.2/../../../../nios2-elf/lib\libc.a(lib_a-makebuf.o)
                              c:/altera/12.1sp1/nios2eds/bin/gnu/h-i686-mingw32/bin/../lib/gcc/nios2-elf/4.1.2/../../../../nios2-elf/lib\libc.a(lib_a-wsetup.o) (__smakebuf_r)
c:/altera/12.1sp1/nios2eds/bin/gnu/h-i686-mingw32/bin/../lib/gcc/nios2-elf/4.1.2/../../../../nios2-elf/lib\libc.a(lib_a-mallocr.o)
                              c:/altera/12.1sp1/nios2eds/bin/gnu/h-i686-mingw32/bin/../lib/gcc/nios2-elf/4.1.2/../../../../nios2-elf/lib\libc.a(lib_a-findfp.o) (_malloc_r)
c:/altera/12.1sp1/nios2eds/bin/gnu/h-i686-mingw32/bin/../lib/gcc/nios2-elf/4.1.2/../../../../nios2-elf/lib\libc.a(lib_a-memchr.o)
                              c:/altera/12.1sp1/nios2eds/bin/gnu/h-i686-mingw32/bin/../lib/gcc/nios2-elf/4.1.2/../../../../nios2-elf/lib\libc.a(lib_a-vfprintf.o) (memchr)
c:/altera/12.1sp1/nios2eds/bin/gnu/h-i686-mingw32/bin/../lib/gcc/nios2-elf/4.1.2/../../../../nios2-elf/lib\libc.a(lib_a-memcpy.o)
                              c:/altera/12.1sp1/nios2eds/bin/gnu/h-i686-mingw32/bin/../lib/gcc/nios2-elf/4.1.2/../../../../nios2-elf/lib\libc.a(lib_a-dtoa.o) (memcpy)
c:/altera/12.1sp1/nios2eds/bin/gnu/h-i686-mingw32/bin/../lib/gcc/nios2-elf/4.1.2/../../../../nios2-elf/lib\libc.a(lib_a-memmove.o)
                              c:/altera/12.1sp1/nios2eds/bin/gnu/h-i686-mingw32/bin/../lib/gcc/nios2-elf/4.1.2/../../../../nios2-elf/lib\libc.a(lib_a-fvwrite.o) (memmove)
c:/altera/12.1sp1/nios2eds/bin/gnu/h-i686-mingw32/bin/../lib/gcc/nios2-elf/4.1.2/../../../../nios2-elf/lib\libc.a(lib_a-memset.o)
                              c:/altera/12.1sp1/nios2eds/bin/gnu/h-i686-mingw32/bin/../lib/gcc/nios2-elf/4.1.2/../../../../nios2-elf/lib\libc.a(lib_a-findfp.o) (memset)
c:/altera/12.1sp1/nios2eds/bin/gnu/h-i686-mingw32/bin/../lib/gcc/nios2-elf/4.1.2/../../../../nios2-elf/lib\libc.a(lib_a-mprec.o)
                              c:/altera/12.1sp1/nios2eds/bin/gnu/h-i686-mingw32/bin/../lib/gcc/nios2-elf/4.1.2/../../../../nios2-elf/lib\libc.a(lib_a-dtoa.o) (_Bfree)
c:/altera/12.1sp1/nios2eds/bin/gnu/h-i686-mingw32/bin/../lib/gcc/nios2-elf/4.1.2/../../../../nios2-elf/lib\libc.a(lib_a-reallocr.o)
                              c:/altera/12.1sp1/nios2eds/bin/gnu/h-i686-mingw32/bin/../lib/gcc/nios2-elf/4.1.2/../../../../nios2-elf/lib\libc.a(lib_a-fvwrite.o) (_realloc_r)
c:/altera/12.1sp1/nios2eds/bin/gnu/h-i686-mingw32/bin/../lib/gcc/nios2-elf/4.1.2/../../../../nios2-elf/lib\libc.a(lib_a-s_isinfd.o)
                              c:/altera/12.1sp1/nios2eds/bin/gnu/h-i686-mingw32/bin/../lib/gcc/nios2-elf/4.1.2/../../../../nios2-elf/lib\libc.a(lib_a-vfprintf.o) (__isinfd)
c:/altera/12.1sp1/nios2eds/bin/gnu/h-i686-mingw32/bin/../lib/gcc/nios2-elf/4.1.2/../../../../nios2-elf/lib\libc.a(lib_a-sbrkr.o)
                              c:/altera/12.1sp1/nios2eds/bin/gnu/h-i686-mingw32/bin/../lib/gcc/nios2-elf/4.1.2/../../../../nios2-elf/lib\libc.a(lib_a-freer.o) (_sbrk_r)
c:/altera/12.1sp1/nios2eds/bin/gnu/h-i686-mingw32/bin/../lib/gcc/nios2-elf/4.1.2/../../../../nios2-elf/lib\libc.a(lib_a-stdio.o)
                              c:/altera/12.1sp1/nios2eds/bin/gnu/h-i686-mingw32/bin/../lib/gcc/nios2-elf/4.1.2/../../../../nios2-elf/lib\libc.a(lib_a-findfp.o) (__sclose)
c:/altera/12.1sp1/nios2eds/bin/gnu/h-i686-mingw32/bin/../lib/gcc/nios2-elf/4.1.2/../../../../nios2-elf/lib\libc.a(lib_a-strcmp.o)
                              c:/altera/12.1sp1/nios2eds/bin/gnu/h-i686-mingw32/bin/../lib/gcc/nios2-elf/4.1.2/../../../../nios2-elf/lib\libc.a(lib_a-locale.o) (strcmp)
c:/altera/12.1sp1/nios2eds/bin/gnu/h-i686-mingw32/bin/../lib/gcc/nios2-elf/4.1.2/../../../../nios2-elf/lib\libc.a(lib_a-writer.o)
                              c:/altera/12.1sp1/nios2eds/bin/gnu/h-i686-mingw32/bin/../lib/gcc/nios2-elf/4.1.2/../../../../nios2-elf/lib\libc.a(lib_a-stdio.o) (_write_r)
c:/altera/12.1sp1/nios2eds/bin/gnu/h-i686-mingw32/bin/../lib/gcc/nios2-elf/4.1.2/../../../../nios2-elf/lib\libc.a(lib_a-callocr.o)
                              c:/altera/12.1sp1/nios2eds/bin/gnu/h-i686-mingw32/bin/../lib/gcc/nios2-elf/4.1.2/../../../../nios2-elf/lib\libc.a(lib_a-mprec.o) (_calloc_r)
c:/altera/12.1sp1/nios2eds/bin/gnu/h-i686-mingw32/bin/../lib/gcc/nios2-elf/4.1.2/../../../../nios2-elf/lib\libc.a(lib_a-closer.o)
                              c:/altera/12.1sp1/nios2eds/bin/gnu/h-i686-mingw32/bin/../lib/gcc/nios2-elf/4.1.2/../../../../nios2-elf/lib\libc.a(lib_a-stdio.o) (_close_r)
c:/altera/12.1sp1/nios2eds/bin/gnu/h-i686-mingw32/bin/../lib/gcc/nios2-elf/4.1.2/../../../../nios2-elf/lib\libc.a(lib_a-fclose.o)
                              c:/altera/12.1sp1/nios2eds/bin/gnu/h-i686-mingw32/bin/../lib/gcc/nios2-elf/4.1.2/../../../../nios2-elf/lib\libc.a(lib_a-findfp.o) (fclose)
c:/altera/12.1sp1/nios2eds/bin/gnu/h-i686-mingw32/bin/../lib/gcc/nios2-elf/4.1.2/../../../../nios2-elf/lib\libc.a(lib_a-fstatr.o)
                              c:/altera/12.1sp1/nios2eds/bin/gnu/h-i686-mingw32/bin/../lib/gcc/nios2-elf/4.1.2/../../../../nios2-elf/lib\libc.a(lib_a-makebuf.o) (_fstat_r)
c:/altera/12.1sp1/nios2eds/bin/gnu/h-i686-mingw32/bin/../lib/gcc/nios2-elf/4.1.2/../../../../nios2-elf/lib\libc.a(lib_a-int_errno.o)
                              c:/altera/12.1sp1/nios2eds/bin/gnu/h-i686-mingw32/bin/../lib/gcc/nios2-elf/4.1.2/../../../../nios2-elf/lib\libc.a(lib_a-sbrkr.o) (errno)
c:/altera/12.1sp1/nios2eds/bin/gnu/h-i686-mingw32/bin/../lib/gcc/nios2-elf/4.1.2/../../../../nios2-elf/lib\libc.a(lib_a-isattyr.o)
                              c:/altera/12.1sp1/nios2eds/bin/gnu/h-i686-mingw32/bin/../lib/gcc/nios2-elf/4.1.2/../../../../nios2-elf/lib\libc.a(lib_a-makebuf.o) (_isatty_r)
c:/altera/12.1sp1/nios2eds/bin/gnu/h-i686-mingw32/bin/../lib/gcc/nios2-elf/4.1.2/../../../../nios2-elf/lib\libc.a(lib_a-lseekr.o)
                              c:/altera/12.1sp1/nios2eds/bin/gnu/h-i686-mingw32/bin/../lib/gcc/nios2-elf/4.1.2/../../../../nios2-elf/lib\libc.a(lib_a-stdio.o) (_lseek_r)
c:/altera/12.1sp1/nios2eds/bin/gnu/h-i686-mingw32/bin/../lib/gcc/nios2-elf/4.1.2/../../../../nios2-elf/lib\libc.a(lib_a-readr.o)
                              c:/altera/12.1sp1/nios2eds/bin/gnu/h-i686-mingw32/bin/../lib/gcc/nios2-elf/4.1.2/../../../../nios2-elf/lib\libc.a(lib_a-stdio.o) (_read_r)
c:/altera/12.1sp1/nios2eds/bin/gnu/h-i686-mingw32/bin/../lib/gcc/nios2-elf/4.1.2\libgcc.a(_udivdi3.o)
                              c:/altera/12.1sp1/nios2eds/bin/gnu/h-i686-mingw32/bin/../lib/gcc/nios2-elf/4.1.2/../../../../nios2-elf/lib\libc.a(lib_a-vfprintf.o) (__udivdi3)
c:/altera/12.1sp1/nios2eds/bin/gnu/h-i686-mingw32/bin/../lib/gcc/nios2-elf/4.1.2\libgcc.a(_umoddi3.o)
                              c:/altera/12.1sp1/nios2eds/bin/gnu/h-i686-mingw32/bin/../lib/gcc/nios2-elf/4.1.2/../../../../nios2-elf/lib\libc.a(lib_a-vfprintf.o) (__umoddi3)
c:/altera/12.1sp1/nios2eds/bin/gnu/h-i686-mingw32/bin/../lib/gcc/nios2-elf/4.1.2\libgcc.a(_eq_df.o)
                              c:/altera/12.1sp1/nios2eds/bin/gnu/h-i686-mingw32/bin/../lib/gcc/nios2-elf/4.1.2/../../../../nios2-elf/lib\libc.a(lib_a-vfprintf.o) (__eqdf2)
c:/altera/12.1sp1/nios2eds/bin/gnu/h-i686-mingw32/bin/../lib/gcc/nios2-elf/4.1.2\libgcc.a(_ne_df.o)
                              c:/altera/12.1sp1/nios2eds/bin/gnu/h-i686-mingw32/bin/../lib/gcc/nios2-elf/4.1.2/../../../../nios2-elf/lib\libc.a(lib_a-vfprintf.o) (__nedf2)
c:/altera/12.1sp1/nios2eds/bin/gnu/h-i686-mingw32/bin/../lib/gcc/nios2-elf/4.1.2\libgcc.a(_gt_df.o)
                              c:/altera/12.1sp1/nios2eds/bin/gnu/h-i686-mingw32/bin/../lib/gcc/nios2-elf/4.1.2/../../../../nios2-elf/lib\libc.a(lib_a-dtoa.o) (__gtdf2)
c:/altera/12.1sp1/nios2eds/bin/gnu/h-i686-mingw32/bin/../lib/gcc/nios2-elf/4.1.2\libgcc.a(lib2-divmod.o)
                              c:/altera/12.1sp1/nios2eds/bin/gnu/h-i686-mingw32/bin/../lib/gcc/nios2-elf/4.1.2/../../../../nios2-elf/lib\libc.a(lib_a-vfprintf.o) (__divsi3)
C:/Users/jchang3/Documents/ECE492/test/software/accelerometer_pen50s_bsp/\libucosii_bsp.a(alt_close.o)
                              c:/altera/12.1sp1/nios2eds/bin/gnu/h-i686-mingw32/bin/../lib/gcc/nios2-elf/4.1.2/../../../../nios2-elf/lib\libc.a(lib_a-closer.o) (close)
C:/Users/jchang3/Documents/ECE492/test/software/accelerometer_pen50s_bsp/\libucosii_bsp.a(alt_dev.o)
                              C:/Users/jchang3/Documents/ECE492/test/software/accelerometer_pen50s_bsp/\libucosii_bsp.a(alt_close.o) (alt_fd_list)
C:/Users/jchang3/Documents/ECE492/test/software/accelerometer_pen50s_bsp/\libucosii_bsp.a(alt_errno.o)
                              C:/Users/jchang3/Documents/ECE492/test/software/accelerometer_pen50s_bsp/\libucosii_bsp.a(alt_close.o) (alt_errno)
C:/Users/jchang3/Documents/ECE492/test/software/accelerometer_pen50s_bsp/\libucosii_bsp.a(alt_fstat.o)
                              c:/altera/12.1sp1/nios2eds/bin/gnu/h-i686-mingw32/bin/../lib/gcc/nios2-elf/4.1.2/../../../../nios2-elf/lib\libc.a(lib_a-fstatr.o) (fstat)
C:/Users/jchang3/Documents/ECE492/test/software/accelerometer_pen50s_bsp/\libucosii_bsp.a(alt_isatty.o)
                              c:/altera/12.1sp1/nios2eds/bin/gnu/h-i686-mingw32/bin/../lib/gcc/nios2-elf/4.1.2/../../../../nios2-elf/lib\libc.a(lib_a-isattyr.o) (isatty)
C:/Users/jchang3/Documents/ECE492/test/software/accelerometer_pen50s_bsp/\libucosii_bsp.a(alt_load.o)
                              C:/Users/jchang3/Documents/ECE492/test/software/accelerometer_pen50s_bsp//obj/HAL/src/crt0.o (alt_load)
C:/Users/jchang3/Documents/ECE492/test/software/accelerometer_pen50s_bsp/\libucosii_bsp.a(alt_lseek.o)
                              c:/altera/12.1sp1/nios2eds/bin/gnu/h-i686-mingw32/bin/../lib/gcc/nios2-elf/4.1.2/../../../../nios2-elf/lib\libc.a(lib_a-lseekr.o) (lseek)
C:/Users/jchang3/Documents/ECE492/test/software/accelerometer_pen50s_bsp/\libucosii_bsp.a(alt_main.o)
                              C:/Users/jchang3/Documents/ECE492/test/software/accelerometer_pen50s_bsp//obj/HAL/src/crt0.o (alt_main)
C:/Users/jchang3/Documents/ECE492/test/software/accelerometer_pen50s_bsp/\libucosii_bsp.a(alt_read.o)
                              c:/altera/12.1sp1/nios2eds/bin/gnu/h-i686-mingw32/bin/../lib/gcc/nios2-elf/4.1.2/../../../../nios2-elf/lib\libc.a(lib_a-readr.o) (read)
C:/Users/jchang3/Documents/ECE492/test/software/accelerometer_pen50s_bsp/\libucosii_bsp.a(alt_release_fd.o)
                              C:/Users/jchang3/Documents/ECE492/test/software/accelerometer_pen50s_bsp/\libucosii_bsp.a(alt_close.o) (alt_release_fd)
C:/Users/jchang3/Documents/ECE492/test/software/accelerometer_pen50s_bsp/\libucosii_bsp.a(alt_sbrk.o)
                              c:/altera/12.1sp1/nios2eds/bin/gnu/h-i686-mingw32/bin/../lib/gcc/nios2-elf/4.1.2/../../../../nios2-elf/lib\libc.a(lib_a-sbrkr.o) (sbrk)
C:/Users/jchang3/Documents/ECE492/test/software/accelerometer_pen50s_bsp/\libucosii_bsp.a(alt_write.o)
                              c:/altera/12.1sp1/nios2eds/bin/gnu/h-i686-mingw32/bin/../lib/gcc/nios2-elf/4.1.2/../../../../nios2-elf/lib\libc.a(lib_a-writer.o) (write)
C:/Users/jchang3/Documents/ECE492/test/software/accelerometer_pen50s_bsp/\libucosii_bsp.a(alt_env_lock.o)
                              C:/Users/jchang3/Documents/ECE492/test/software/accelerometer_pen50s_bsp/\libucosii_bsp.a(alt_main.o) (alt_envsem)
C:/Users/jchang3/Documents/ECE492/test/software/accelerometer_pen50s_bsp/\libucosii_bsp.a(alt_malloc_lock.o)
                              c:/altera/12.1sp1/nios2eds/bin/gnu/h-i686-mingw32/bin/../lib/gcc/nios2-elf/4.1.2/../../../../nios2-elf/lib\libc.a(lib_a-freer.o) (__malloc_lock)
C:/Users/jchang3/Documents/ECE492/test/software/accelerometer_pen50s_bsp/\libucosii_bsp.a(os_core.o)
                              C:/Users/jchang3/Documents/ECE492/test/software/accelerometer_pen50s_bsp/\libucosii_bsp.a(alt_main.o) (OSInit)
C:/Users/jchang3/Documents/ECE492/test/software/accelerometer_pen50s_bsp/\libucosii_bsp.a(os_dbg.o)
                              C:/Users/jchang3/Documents/ECE492/test/software/accelerometer_pen50s_bsp/\libucosii_bsp.a(os_core.o) (OSDebugInit)
C:/Users/jchang3/Documents/ECE492/test/software/accelerometer_pen50s_bsp/\libucosii_bsp.a(os_flag.o)
                              C:/Users/jchang3/Documents/ECE492/test/software/accelerometer_pen50s_bsp/\libucosii_bsp.a(os_core.o) (OS_FlagInit)
C:/Users/jchang3/Documents/ECE492/test/software/accelerometer_pen50s_bsp/\libucosii_bsp.a(os_mem.o)
                              C:/Users/jchang3/Documents/ECE492/test/software/accelerometer_pen50s_bsp/\libucosii_bsp.a(os_core.o) (OS_MemInit)
C:/Users/jchang3/Documents/ECE492/test/software/accelerometer_pen50s_bsp/\libucosii_bsp.a(os_q.o)
                              obj/default/hello_ucosii.o (OSQCreate)
C:/Users/jchang3/Documents/ECE492/test/software/accelerometer_pen50s_bsp/\libucosii_bsp.a(os_sem.o)
                              obj/default/hello_ucosii.o (OSSemAccept)
C:/Users/jchang3/Documents/ECE492/test/software/accelerometer_pen50s_bsp/\libucosii_bsp.a(os_task.o)
                              obj/default/hello_ucosii.o (OSTaskCreateExt)
C:/Users/jchang3/Documents/ECE492/test/software/accelerometer_pen50s_bsp/\libucosii_bsp.a(os_time.o)
                              C:/Users/jchang3/Documents/ECE492/test/software/accelerometer_pen50s_bsp/\libucosii_bsp.a(os_core.o) (OSTimeDly)
C:/Users/jchang3/Documents/ECE492/test/software/accelerometer_pen50s_bsp/\libucosii_bsp.a(alt_sys_init.o)
                              C:/Users/jchang3/Documents/ECE492/test/software/accelerometer_pen50s_bsp/\libucosii_bsp.a(alt_main.o) (alt_irq_init)
C:/Users/jchang3/Documents/ECE492/test/software/accelerometer_pen50s_bsp/\libucosii_bsp.a(altera_avalon_jtag_uart_fd.o)
                              C:/Users/jchang3/Documents/ECE492/test/software/accelerometer_pen50s_bsp/\libucosii_bsp.a(alt_sys_init.o) (altera_avalon_jtag_uart_read_fd)
C:/Users/jchang3/Documents/ECE492/test/software/accelerometer_pen50s_bsp/\libucosii_bsp.a(altera_avalon_jtag_uart_init.o)
                              C:/Users/jchang3/Documents/ECE492/test/software/accelerometer_pen50s_bsp/\libucosii_bsp.a(alt_sys_init.o) (altera_avalon_jtag_uart_init)
C:/Users/jchang3/Documents/ECE492/test/software/accelerometer_pen50s_bsp/\libucosii_bsp.a(altera_avalon_jtag_uart_ioctl.o)
                              C:/Users/jchang3/Documents/ECE492/test/software/accelerometer_pen50s_bsp/\libucosii_bsp.a(altera_avalon_jtag_uart_fd.o) (altera_avalon_jtag_uart_ioctl)
C:/Users/jchang3/Documents/ECE492/test/software/accelerometer_pen50s_bsp/\libucosii_bsp.a(altera_avalon_jtag_uart_read.o)
                              C:/Users/jchang3/Documents/ECE492/test/software/accelerometer_pen50s_bsp/\libucosii_bsp.a(altera_avalon_jtag_uart_fd.o) (altera_avalon_jtag_uart_read)
C:/Users/jchang3/Documents/ECE492/test/software/accelerometer_pen50s_bsp/\libucosii_bsp.a(altera_avalon_jtag_uart_write.o)
                              C:/Users/jchang3/Documents/ECE492/test/software/accelerometer_pen50s_bsp/\libucosii_bsp.a(altera_avalon_jtag_uart_fd.o) (altera_avalon_jtag_uart_write)
C:/Users/jchang3/Documents/ECE492/test/software/accelerometer_pen50s_bsp/\libucosii_bsp.a(altera_avalon_timer_sc.o)
                              C:/Users/jchang3/Documents/ECE492/test/software/accelerometer_pen50s_bsp/\libucosii_bsp.a(alt_sys_init.o) (alt_avalon_timer_sc_init)
C:/Users/jchang3/Documents/ECE492/test/software/accelerometer_pen50s_bsp/\libucosii_bsp.a(altera_up_avalon_character_lcd.o)
                              C:/Users/jchang3/Documents/ECE492/test/software/accelerometer_pen50s_bsp/\libucosii_bsp.a(alt_sys_init.o) (alt_up_character_lcd_init)
C:/Users/jchang3/Documents/ECE492/test/software/accelerometer_pen50s_bsp/\libucosii_bsp.a(altera_up_avalon_rs232.o)
                              obj/default/hello_ucosii.o (alt_up_rs232_enable_read_interrupt)
C:/Users/jchang3/Documents/ECE492/test/software/accelerometer_pen50s_bsp/\libucosii_bsp.a(altera_up_sd_card_avalon_interface.o)
                              obj/default/hello_ucosii.o (alt_up_sd_card_is_Present)
C:/Users/jchang3/Documents/ECE492/test/software/accelerometer_pen50s_bsp/\libucosii_bsp.a(alt_alarm_start.o)
                              C:/Users/jchang3/Documents/ECE492/test/software/accelerometer_pen50s_bsp/\libucosii_bsp.a(altera_avalon_jtag_uart_init.o) (alt_alarm_start)
C:/Users/jchang3/Documents/ECE492/test/software/accelerometer_pen50s_bsp/\libucosii_bsp.a(alt_dcache_flush_all.o)
                              C:/Users/jchang3/Documents/ECE492/test/software/accelerometer_pen50s_bsp/\libucosii_bsp.a(alt_load.o) (alt_dcache_flush_all)
C:/Users/jchang3/Documents/ECE492/test/software/accelerometer_pen50s_bsp/\libucosii_bsp.a(alt_dev_llist_insert.o)
                              C:/Users/jchang3/Documents/ECE492/test/software/accelerometer_pen50s_bsp/\libucosii_bsp.a(alt_sys_init.o) (alt_dev_llist_insert)
C:/Users/jchang3/Documents/ECE492/test/software/accelerometer_pen50s_bsp/\libucosii_bsp.a(alt_do_ctors.o)
                              C:/Users/jchang3/Documents/ECE492/test/software/accelerometer_pen50s_bsp/\libucosii_bsp.a(alt_main.o) (_do_ctors)
C:/Users/jchang3/Documents/ECE492/test/software/accelerometer_pen50s_bsp/\libucosii_bsp.a(alt_do_dtors.o)
                              C:/Users/jchang3/Documents/ECE492/test/software/accelerometer_pen50s_bsp/\libucosii_bsp.a(alt_main.o) (_do_dtors)
C:/Users/jchang3/Documents/ECE492/test/software/accelerometer_pen50s_bsp/\libucosii_bsp.a(alt_find_dev.o)
                              C:/Users/jchang3/Documents/ECE492/test/software/accelerometer_pen50s_bsp/\libucosii_bsp.a(altera_up_avalon_character_lcd.o) (alt_find_dev)
C:/Users/jchang3/Documents/ECE492/test/software/accelerometer_pen50s_bsp/\libucosii_bsp.a(alt_icache_flush_all.o)
                              C:/Users/jchang3/Documents/ECE492/test/software/accelerometer_pen50s_bsp/\libucosii_bsp.a(alt_load.o) (alt_icache_flush_all)
C:/Users/jchang3/Documents/ECE492/test/software/accelerometer_pen50s_bsp/\libucosii_bsp.a(alt_io_redirect.o)
                              C:/Users/jchang3/Documents/ECE492/test/software/accelerometer_pen50s_bsp/\libucosii_bsp.a(alt_main.o) (alt_io_redirect)
C:/Users/jchang3/Documents/ECE492/test/software/accelerometer_pen50s_bsp/\libucosii_bsp.a(alt_irq_register.o)
                              C:/Users/jchang3/Documents/ECE492/test/software/accelerometer_pen50s_bsp/\libucosii_bsp.a(altera_avalon_jtag_uart_init.o) (alt_irq_register)
C:/Users/jchang3/Documents/ECE492/test/software/accelerometer_pen50s_bsp/\libucosii_bsp.a(alt_irq_vars.o)
                              C:/Users/jchang3/Documents/ECE492/test/software/accelerometer_pen50s_bsp/\libucosii_bsp.a(alt_irq_register.o) (alt_irq_active)
C:/Users/jchang3/Documents/ECE492/test/software/accelerometer_pen50s_bsp/\libucosii_bsp.a(alt_open.o)
                              C:/Users/jchang3/Documents/ECE492/test/software/accelerometer_pen50s_bsp/\libucosii_bsp.a(alt_io_redirect.o) (open)
C:/Users/jchang3/Documents/ECE492/test/software/accelerometer_pen50s_bsp/\libucosii_bsp.a(alt_tick.o)
                              C:/Users/jchang3/Documents/ECE492/test/software/accelerometer_pen50s_bsp/\libucosii_bsp.a(altera_avalon_jtag_uart_init.o) (_alt_tick_rate)
C:/Users/jchang3/Documents/ECE492/test/software/accelerometer_pen50s_bsp/\libucosii_bsp.a(altera_nios2_qsys_irq.o)
                              C:/Users/jchang3/Documents/ECE492/test/software/accelerometer_pen50s_bsp/\libucosii_bsp.a(alt_sys_init.o) (altera_nios2_qsys_irq_init)
C:/Users/jchang3/Documents/ECE492/test/software/accelerometer_pen50s_bsp/\libucosii_bsp.a(os_cpu_a.o)
                              C:/Users/jchang3/Documents/ECE492/test/software/accelerometer_pen50s_bsp/\libucosii_bsp.a(os_core.o) (OSIntCtxSw)
C:/Users/jchang3/Documents/ECE492/test/software/accelerometer_pen50s_bsp/\libucosii_bsp.a(os_cpu_c.o)
                              C:/Users/jchang3/Documents/ECE492/test/software/accelerometer_pen50s_bsp/\libucosii_bsp.a(os_task.o) (OSTaskStkInit)
C:/Users/jchang3/Documents/ECE492/test/software/accelerometer_pen50s_bsp/\libucosii_bsp.a(alt_find_file.o)
                              C:/Users/jchang3/Documents/ECE492/test/software/accelerometer_pen50s_bsp/\libucosii_bsp.a(alt_open.o) (alt_find_file)
C:/Users/jchang3/Documents/ECE492/test/software/accelerometer_pen50s_bsp/\libucosii_bsp.a(alt_get_fd.o)
                              C:/Users/jchang3/Documents/ECE492/test/software/accelerometer_pen50s_bsp/\libucosii_bsp.a(alt_open.o) (alt_get_fd)
C:/Users/jchang3/Documents/ECE492/test/software/accelerometer_pen50s_bsp/\libucosii_bsp.a(alt_icache_flush.o)
                              C:/Users/jchang3/Documents/ECE492/test/software/accelerometer_pen50s_bsp/\libucosii_bsp.a(alt_icache_flush_all.o) (alt_icache_flush)
C:/Users/jchang3/Documents/ECE492/test/software/accelerometer_pen50s_bsp/\libucosii_bsp.a(alt_irq_entry.o)
                              C:/Users/jchang3/Documents/ECE492/test/software/accelerometer_pen50s_bsp/\libucosii_bsp.a(alt_irq_register.o) (alt_irq_entry)
C:/Users/jchang3/Documents/ECE492/test/software/accelerometer_pen50s_bsp/\libucosii_bsp.a(alt_irq_handler.o)
                              C:/Users/jchang3/Documents/ECE492/test/software/accelerometer_pen50s_bsp/\libucosii_bsp.a(alt_irq_register.o) (alt_irq_handler)
C:/Users/jchang3/Documents/ECE492/test/software/accelerometer_pen50s_bsp/\libucosii_bsp.a(alt_exception_entry.o)
                              C:/Users/jchang3/Documents/ECE492/test/software/accelerometer_pen50s_bsp/\libucosii_bsp.a(alt_irq_entry.o) (alt_exception)
c:/altera/12.1sp1/nios2eds/bin/gnu/h-i686-mingw32/bin/../lib/gcc/nios2-elf/4.1.2/../../../../nios2-elf/lib\libc.a(lib_a-atexit.o)
                              C:/Users/jchang3/Documents/ECE492/test/software/accelerometer_pen50s_bsp/\libucosii_bsp.a(alt_main.o) (atexit)
c:/altera/12.1sp1/nios2eds/bin/gnu/h-i686-mingw32/bin/../lib/gcc/nios2-elf/4.1.2/../../../../nios2-elf/lib\libc.a(lib_a-exit.o)
                              C:/Users/jchang3/Documents/ECE492/test/software/accelerometer_pen50s_bsp/\libucosii_bsp.a(alt_main.o) (exit)
c:/altera/12.1sp1/nios2eds/bin/gnu/h-i686-mingw32/bin/../lib/gcc/nios2-elf/4.1.2/../../../../nios2-elf/lib\libc.a(lib_a-memcmp.o)
                              C:/Users/jchang3/Documents/ECE492/test/software/accelerometer_pen50s_bsp/\libucosii_bsp.a(alt_find_dev.o) (memcmp)
c:/altera/12.1sp1/nios2eds/bin/gnu/h-i686-mingw32/bin/../lib/gcc/nios2-elf/4.1.2/../../../../nios2-elf/lib\libc.a(lib_a-__atexit.o)
                              c:/altera/12.1sp1/nios2eds/bin/gnu/h-i686-mingw32/bin/../lib/gcc/nios2-elf/4.1.2/../../../../nios2-elf/lib\libc.a(lib_a-atexit.o) (__register_exitproc)
c:/altera/12.1sp1/nios2eds/bin/gnu/h-i686-mingw32/bin/../lib/gcc/nios2-elf/4.1.2/../../../../nios2-elf/lib\libc.a(lib_a-__call_atexit.o)
                              c:/altera/12.1sp1/nios2eds/bin/gnu/h-i686-mingw32/bin/../lib/gcc/nios2-elf/4.1.2/../../../../nios2-elf/lib\libc.a(lib_a-exit.o) (__call_exitprocs)
C:/Users/jchang3/Documents/ECE492/test/software/accelerometer_pen50s_bsp/\libucosii_bsp.a(alt_exit.o)
                              c:/altera/12.1sp1/nios2eds/bin/gnu/h-i686-mingw32/bin/../lib/gcc/nios2-elf/4.1.2/../../../../nios2-elf/lib\libc.a(lib_a-exit.o) (_exit)

Allocating common symbols
Common symbol       size              file

t                   0x4               obj/default/hello_ucosii.o
alt_irq             0x100             C:/Users/jchang3/Documents/ECE492/test/software/accelerometer_pen50s_bsp/\libucosii_bsp.a(alt_irq_handler.o)
template_number     0x4               obj/default/hello_ucosii.o
pCharacter          0x4               obj/default/hello_ucosii.o
taskCalibrate_stk   0x2000            obj/default/hello_ucosii.o
OSLockNesting       0x1               C:/Users/jchang3/Documents/ECE492/test/software/accelerometer_pen50s_bsp/\libucosii_bsp.a(os_core.o)
OSRunning           0x1               C:/Users/jchang3/Documents/ECE492/test/software/accelerometer_pen50s_bsp/\libucosii_bsp.a(os_core.o)
dtw_semy            0x4               obj/default/hello_ucosii.o
dtwy                0x4               obj/default/hello_ucosii.o
OSIdleCtr           0x4               C:/Users/jchang3/Documents/ECE492/test/software/accelerometer_pen50s_bsp/\libucosii_bsp.a(os_core.o)
semy                0x4               obj/default/hello_ucosii.o
OSPrioHighRdy       0x1               C:/Users/jchang3/Documents/ECE492/test/software/accelerometer_pen50s_bsp/\libucosii_bsp.a(os_core.o)
errno               0x4               c:/altera/12.1sp1/nios2eds/bin/gnu/h-i686-mingw32/bin/../lib/gcc/nios2-elf/4.1.2/../../../../nios2-elf/lib\libc.a(lib_a-int_errno.o)
alt_heapsem         0x4               C:/Users/jchang3/Documents/ECE492/test/software/accelerometer_pen50s_bsp/\libucosii_bsp.a(alt_malloc_lock.o)
readsem             0x4               obj/default/hello_ucosii.o
OSFlagTbl           0x370             C:/Users/jchang3/Documents/ECE492/test/software/accelerometer_pen50s_bsp/\libucosii_bsp.a(os_core.o)
OSPrioCur           0x1               C:/Users/jchang3/Documents/ECE492/test/software/accelerometer_pen50s_bsp/\libucosii_bsp.a(os_core.o)
loadsdcardsem       0x4               obj/default/hello_ucosii.o
writesem            0x4               obj/default/hello_ucosii.o
OSTCBList           0x4               C:/Users/jchang3/Documents/ECE492/test/software/accelerometer_pen50s_bsp/\libucosii_bsp.a(os_core.o)
alt_fd_list_lock    0x4               C:/Users/jchang3/Documents/ECE492/test/software/accelerometer_pen50s_bsp/\libucosii_bsp.a(alt_dev.o)
OSMemTbl            0xc30             C:/Users/jchang3/Documents/ECE492/test/software/accelerometer_pen50s_bsp/\libucosii_bsp.a(os_core.o)
OSTickStepState     0x1               C:/Users/jchang3/Documents/ECE492/test/software/accelerometer_pen50s_bsp/\libucosii_bsp.a(os_core.o)
OSTaskStatStk       0x800             C:/Users/jchang3/Documents/ECE492/test/software/accelerometer_pen50s_bsp/\libucosii_bsp.a(os_core.o)
configuresem        0x4               obj/default/hello_ucosii.o
OSCtxSwCtr          0x4               C:/Users/jchang3/Documents/ECE492/test/software/accelerometer_pen50s_bsp/\libucosii_bsp.a(os_core.o)
uartsem             0x4               obj/default/hello_ucosii.o
taskCharacterRead_stk
                    0x2000            obj/default/hello_ucosii.o
message             0x4               obj/default/hello_ucosii.o
taskModeSelect_stk  0x2000            obj/default/hello_ucosii.o
taskTemplateMatch_stk
                    0x2000            obj/default/hello_ucosii.o
OSIdleCtrMax        0x4               C:/Users/jchang3/Documents/ECE492/test/software/accelerometer_pen50s_bsp/\libucosii_bsp.a(os_core.o)
dtwx                0x4               obj/default/hello_ucosii.o
OSTCBFreeList       0x4               C:/Users/jchang3/Documents/ECE492/test/software/accelerometer_pen50s_bsp/\libucosii_bsp.a(os_core.o)
dtw_sem             0x4               obj/default/hello_ucosii.o
dtw_semx            0x4               obj/default/hello_ucosii.o
loadsem             0x4               obj/default/hello_ucosii.o
taskDTWX_stk        0x2000            obj/default/hello_ucosii.o
OSCPUUsage          0x1               C:/Users/jchang3/Documents/ECE492/test/software/accelerometer_pen50s_bsp/\libucosii_bsp.a(os_core.o)
OSTaskCtr           0x1               C:/Users/jchang3/Documents/ECE492/test/software/accelerometer_pen50s_bsp/\libucosii_bsp.a(os_core.o)
OSMemFreeList       0x4               C:/Users/jchang3/Documents/ECE492/test/software/accelerometer_pen50s_bsp/\libucosii_bsp.a(os_core.o)
search_data         0x14              C:/Users/jchang3/Documents/ECE492/test/software/accelerometer_pen50s_bsp/\libucosii_bsp.a(altera_up_sd_card_avalon_interface.o)
taskWriteSDCard_stk
                    0x2000            obj/default/hello_ucosii.o
OSQTbl              0x1e0             C:/Users/jchang3/Documents/ECE492/test/software/accelerometer_pen50s_bsp/\libucosii_bsp.a(os_core.o)
boot_sector_data    0x54              C:/Users/jchang3/Documents/ECE492/test/software/accelerometer_pen50s_bsp/\libucosii_bsp.a(altera_up_sd_card_avalon_interface.o)
OSTCBHighRdy        0x4               C:/Users/jchang3/Documents/ECE492/test/software/accelerometer_pen50s_bsp/\libucosii_bsp.a(os_core.o)
OSQFreeList         0x4               C:/Users/jchang3/Documents/ECE492/test/software/accelerometer_pen50s_bsp/\libucosii_bsp.a(os_core.o)
taskLoadSDCard_stk  0x2000            obj/default/hello_ucosii.o
OSRdyGrp            0x1               C:/Users/jchang3/Documents/ECE492/test/software/accelerometer_pen50s_bsp/\libucosii_bsp.a(os_core.o)
err                 0x1               obj/default/hello_ucosii.o
templates           0x20              obj/default/hello_ucosii.o
_atexit0            0x190             c:/altera/12.1sp1/nios2eds/bin/gnu/h-i686-mingw32/bin/../lib/gcc/nios2-elf/4.1.2/../../../../nios2-elf/lib\libc.a(lib_a-atexit.o)
OSRdyTbl            0x3               C:/Users/jchang3/Documents/ECE492/test/software/accelerometer_pen50s_bsp/\libucosii_bsp.a(os_core.o)
template            0xc0              obj/default/hello_ucosii.o
semx                0x4               obj/default/hello_ucosii.o
array               0x30              obj/default/hello_ucosii.o
OSEventFreeList     0x4               C:/Users/jchang3/Documents/ECE492/test/software/accelerometer_pen50s_bsp/\libucosii_bsp.a(os_core.o)
SWQ_stk             0x2000            obj/default/hello_ucosii.o
modeselectsem       0x4               obj/default/hello_ucosii.o
active_files        0x500             C:/Users/jchang3/Documents/ECE492/test/software/accelerometer_pen50s_bsp/\libucosii_bsp.a(altera_up_sd_card_avalon_interface.o)
OSIntNesting        0x1               C:/Users/jchang3/Documents/ECE492/test/software/accelerometer_pen50s_bsp/\libucosii_bsp.a(os_core.o)
taskDTWY_stk        0x2000            obj/default/hello_ucosii.o
OSTCBCur            0x4               C:/Users/jchang3/Documents/ECE492/test/software/accelerometer_pen50s_bsp/\libucosii_bsp.a(os_core.o)
SWQ                 0x4               obj/default/hello_ucosii.o
OSTime              0x4               C:/Users/jchang3/Documents/ECE492/test/software/accelerometer_pen50s_bsp/\libucosii_bsp.a(os_core.o)
OSTaskIdleStk       0x800             C:/Users/jchang3/Documents/ECE492/test/software/accelerometer_pen50s_bsp/\libucosii_bsp.a(os_core.o)
OSEventTbl          0xb40             C:/Users/jchang3/Documents/ECE492/test/software/accelerometer_pen50s_bsp/\libucosii_bsp.a(os_core.o)
messageArray        0x800             obj/default/hello_ucosii.o
OSTCBTbl            0x510             C:/Users/jchang3/Documents/ECE492/test/software/accelerometer_pen50s_bsp/\libucosii_bsp.a(os_core.o)
OSFlagFreeList      0x4               C:/Users/jchang3/Documents/ECE492/test/software/accelerometer_pen50s_bsp/\libucosii_bsp.a(os_core.o)
OSStatRdy           0x1               C:/Users/jchang3/Documents/ECE492/test/software/accelerometer_pen50s_bsp/\libucosii_bsp.a(os_core.o)
OSTCBPrioTbl        0x54              C:/Users/jchang3/Documents/ECE492/test/software/accelerometer_pen50s_bsp/\libucosii_bsp.a(os_core.o)
array_8             0xc0              obj/default/hello_ucosii.o
alt_envsem          0x4               C:/Users/jchang3/Documents/ECE492/test/software/accelerometer_pen50s_bsp/\libucosii_bsp.a(alt_env_lock.o)
OSIdleCtrRun        0x4               C:/Users/jchang3/Documents/ECE492/test/software/accelerometer_pen50s_bsp/\libucosii_bsp.a(os_core.o)

Memory Configuration

Name             Origin             Length             Attributes
sdram_0          0x00800000         0x00800000
generic_tristate_controller_0 0x01400000         0x00400000
sram_0           0x01880000         0x00080000
reset            0x01904000         0x00000020
onchip_memory2_0 0x01904020         0x00003fe0
*default*        0x00000000         0xffffffff

Linker script and memory map

LOAD C:/Users/jchang3/Documents/ECE492/test/software/accelerometer_pen50s_bsp//obj/HAL/src/crt0.o
LOAD obj/default/dtw.o
LOAD obj/default/hello_ucosii.o
LOAD c:/altera/12.1sp1/nios2eds/bin/gnu/h-i686-mingw32/bin/../lib/gcc/nios2-elf/4.1.2/../../../../nios2-elf/lib\libstdc++.a
LOAD c:/altera/12.1sp1/nios2eds/bin/gnu/h-i686-mingw32/bin/../lib/gcc/nios2-elf/4.1.2/../../../../nios2-elf/lib\libm.a
LOAD c:/altera/12.1sp1/nios2eds/bin/gnu/h-i686-mingw32/bin/../lib/gcc/nios2-elf/4.1.2\libgcc.a
START GROUP
LOAD c:/altera/12.1sp1/nios2eds/bin/gnu/h-i686-mingw32/bin/../lib/gcc/nios2-elf/4.1.2/../../../../nios2-elf/lib\libc.a
LOAD c:/altera/12.1sp1/nios2eds/bin/gnu/h-i686-mingw32/bin/../lib/gcc/nios2-elf/4.1.2\libgcc.a
LOAD C:/Users/jchang3/Documents/ECE492/test/software/accelerometer_pen50s_bsp/\libucosii_bsp.a
END GROUP
LOAD c:/altera/12.1sp1/nios2eds/bin/gnu/h-i686-mingw32/bin/../lib/gcc/nios2-elf/4.1.2\libgcc.a
                0x00800000                __alt_mem_sdram_0 = 0x800000
                0x01400000                __alt_mem_generic_tristate_controller_0 = 0x1400000
                0x01880000                __alt_mem_sram_0 = 0x1880000
                0x01904000                __alt_mem_onchip_memory2_0 = 0x1904000

.entry          0x01904000       0x20
 *(.entry)
 .entry         0x01904000       0x20 C:/Users/jchang3/Documents/ECE492/test/software/accelerometer_pen50s_bsp//obj/HAL/src/crt0.o
                0x01904000                __reset

.exceptions     0x01904020      0x1a0 load address 0x00800000
                0x01904020                PROVIDE (__ram_exceptions_start, ABSOLUTE (.))
                0x01904020                . = ALIGN (0x20)
 *(.irq)
 *(.exceptions.entry.label)
 .exceptions.entry.label
                0x01904020        0x0 C:/Users/jchang3/Documents/ECE492/test/software/accelerometer_pen50s_bsp/\libucosii_bsp.a(alt_irq_entry.o)
                0x01904020                alt_irq_entry
 .exceptions.entry.label
                0x01904020        0x0 C:/Users/jchang3/Documents/ECE492/test/software/accelerometer_pen50s_bsp/\libucosii_bsp.a(alt_exception_entry.o)
                0x01904020                alt_exception
 *(.exceptions.entry.user)
 *(.exceptions.entry)
 .exceptions.entry
                0x01904020       0x54 C:/Users/jchang3/Documents/ECE492/test/software/accelerometer_pen50s_bsp/\libucosii_bsp.a(alt_exception_entry.o)
 *(.exceptions.irqtest.user)
 *(.exceptions.irqtest)
 .exceptions.irqtest
                0x01904074       0x10 C:/Users/jchang3/Documents/ECE492/test/software/accelerometer_pen50s_bsp/\libucosii_bsp.a(alt_irq_entry.o)
 *(.exceptions.irqhandler.user)
 *(.exceptions.irqhandler)
 .exceptions.irqhandler
                0x01904084        0x4 C:/Users/jchang3/Documents/ECE492/test/software/accelerometer_pen50s_bsp/\libucosii_bsp.a(alt_irq_entry.o)
 *(.exceptions.irqreturn.user)
 *(.exceptions.irqreturn)
 .exceptions.irqreturn
                0x01904088        0x4 C:/Users/jchang3/Documents/ECE492/test/software/accelerometer_pen50s_bsp/\libucosii_bsp.a(alt_irq_entry.o)
 *(.exceptions.notirq.label)
 .exceptions.notirq.label
                0x0190408c        0x0 C:/Users/jchang3/Documents/ECE492/test/software/accelerometer_pen50s_bsp/\libucosii_bsp.a(alt_irq_entry.o)
 *(.exceptions.notirq.user)
 *(.exceptions.notirq)
 .exceptions.notirq
                0x0190408c        0x8 C:/Users/jchang3/Documents/ECE492/test/software/accelerometer_pen50s_bsp/\libucosii_bsp.a(alt_exception_entry.o)
 *(.exceptions.soft.user)
 *(.exceptions.soft)
 *(.exceptions.unknown.user)
 *(.exceptions.unknown)
 .exceptions.unknown
                0x01904094        0x4 C:/Users/jchang3/Documents/ECE492/test/software/accelerometer_pen50s_bsp/\libucosii_bsp.a(alt_exception_entry.o)
 *(.exceptions.exit.label)
 .exceptions.exit.label
                0x01904098        0x0 C:/Users/jchang3/Documents/ECE492/test/software/accelerometer_pen50s_bsp/\libucosii_bsp.a(alt_irq_entry.o)
 .exceptions.exit.label
                0x01904098        0x0 C:/Users/jchang3/Documents/ECE492/test/software/accelerometer_pen50s_bsp/\libucosii_bsp.a(alt_exception_entry.o)
 *(.exceptions.exit.user)
 *(.exceptions.exit)
 .exceptions.exit
                0x01904098       0x54 C:/Users/jchang3/Documents/ECE492/test/software/accelerometer_pen50s_bsp/\libucosii_bsp.a(alt_exception_entry.o)
 *(.exceptions)
 .exceptions    0x019040ec       0xd4 C:/Users/jchang3/Documents/ECE492/test/software/accelerometer_pen50s_bsp/\libucosii_bsp.a(alt_irq_handler.o)
                0x019040ec                alt_irq_handler
                0x019041c0                PROVIDE (__ram_exceptions_end, ABSOLUTE (.))
                0x00800000                PROVIDE (__flash_exceptions_start, LOADADDR (.exceptions))

.text           0x008001a0    0x1bdf4
                0x008001a0                PROVIDE (stext, ABSOLUTE (.))
 *(.interp)
 *(.hash)
 *(.dynsym)
 *(.dynstr)
 *(.gnu.version)
 *(.gnu.version_d)
 *(.gnu.version_r)
 *(.rel.init)
 *(.rela.init)
 *(.rel.text .rel.text.* .rel.gnu.linkonce.t.*)
 *(.rela.text .rela.text.* .rela.gnu.linkonce.t.*)
 *(.rel.fini)
 *(.rela.fini)
 *(.rel.rodata .rel.rodata.* .rel.gnu.linkonce.r.*)
 *(.rela.rodata .rela.rodata.* .rela.gnu.linkonce.r.*)
 *(.rel.data .rel.data.* .rel.gnu.linkonce.d.*)
 *(.rela.data .rela.data.* .rela.gnu.linkonce.d.*)
 *(.rel.tdata .rel.tdata.* .rel.gnu.linkonce.td.*)
 *(.rela.tdata .rela.tdata.* .rela.gnu.linkonce.td.*)
 *(.rel.tbss .rel.tbss.* .rel.gnu.linkonce.tb.*)
 *(.rela.tbss .rela.tbss.* .rela.gnu.linkonce.tb.*)
 *(.rel.ctors)
 *(.rela.ctors)
 *(.rel.dtors)
 *(.rela.dtors)
 *(.rel.got)
 *(.rela.got)
 *(.rel.sdata .rel.sdata.* .rel.gnu.linkonce.s.*)
 *(.rela.sdata .rela.sdata.* .rela.gnu.linkonce.s.*)
 *(.rel.sbss .rel.sbss.* .rel.gnu.linkonce.sb.*)
 *(.rela.sbss .rela.sbss.* .rela.gnu.linkonce.sb.*)
 *(.rel.sdata2 .rel.sdata2.* .rel.gnu.linkonce.s2.*)
 *(.rela.sdata2 .rela.sdata2.* .rela.gnu.linkonce.s2.*)
 *(.rel.sbss2 .rel.sbss2.* .rel.gnu.linkonce.sb2.*)
 *(.rela.sbss2 .rela.sbss2.* .rela.gnu.linkonce.sb2.*)
 *(.rel.bss .rel.bss.* .rel.gnu.linkonce.b.*)
 *(.rela.bss .rela.bss.* .rela.gnu.linkonce.b.*)
 *(.rel.plt)
 *(.rela.plt)
 *(.rel.dyn)
 *(.init)
 *(.plt)
 *(.text .stub .text.* .gnu.linkonce.t.*)
 .text          0x008001a0       0x3c C:/Users/jchang3/Documents/ECE492/test/software/accelerometer_pen50s_bsp//obj/HAL/src/crt0.o
                0x008001a0                _start
 .text          0x008001dc      0x4ec obj/default/dtw.o
                0x008001dc                min_three
                0x00800238                min
                0x0080027c                max
                0x008002c0                dist
                0x00800374                dtw
 .text          0x008006c8     0x16ec obj/default/hello_ucosii.o
                0x008006c8                taskModeSelect
                0x00800854                taskLoadSDCard
                0x00800c20                taskCalibrate
                0x00800fc0                taskWriteSDCard
                0x0080121c                taskCharacterRead
                0x008016f8                taskTemplateMatch
                0x008019cc                taskDTWX
                0x00801a54                taskDTWY
                0x00801ae4                main
 .text          0x00801db4      0x130 c:/altera/12.1sp1/nios2eds/bin/gnu/h-i686-mingw32/bin/../lib/gcc/nios2-elf/4.1.2/../../../../nios2-elf/lib\libm.a(lib_a-w_sqrt.o)
                0x00801db4                sqrt
 .text          0x00801ee4      0x2c8 c:/altera/12.1sp1/nios2eds/bin/gnu/h-i686-mingw32/bin/../lib/gcc/nios2-elf/4.1.2/../../../../nios2-elf/lib\libm.a(lib_a-e_sqrt.o)
                0x00801ee4                __ieee754_sqrt
 .text          0x008021ac       0x30 c:/altera/12.1sp1/nios2eds/bin/gnu/h-i686-mingw32/bin/../lib/gcc/nios2-elf/4.1.2/../../../../nios2-elf/lib\libm.a(lib_a-s_isnand.o)
                0x008021ac                __isnand
 .text          0x008021dc        0x0 c:/altera/12.1sp1/nios2eds/bin/gnu/h-i686-mingw32/bin/../lib/gcc/nios2-elf/4.1.2/../../../../nios2-elf/lib\libm.a(lib_a-s_lib_ver.o)
 .text          0x008021dc        0x8 c:/altera/12.1sp1/nios2eds/bin/gnu/h-i686-mingw32/bin/../lib/gcc/nios2-elf/4.1.2/../../../../nios2-elf/lib\libm.a(lib_a-s_matherr.o)
                0x008021dc                matherr
 .text          0x008021e4       0x98 c:/altera/12.1sp1/nios2eds/bin/gnu/h-i686-mingw32/bin/../lib/gcc/nios2-elf/4.1.2\libgcc.a(_muldi3.o)
                0x008021e4                __muldi3
 .text          0x0080227c       0x7c c:/altera/12.1sp1/nios2eds/bin/gnu/h-i686-mingw32/bin/../lib/gcc/nios2-elf/4.1.2\libgcc.a(_fixdfdi.o)
                0x0080227c                __fixdfdi
 .text          0x008022f8       0xbc c:/altera/12.1sp1/nios2eds/bin/gnu/h-i686-mingw32/bin/../lib/gcc/nios2-elf/4.1.2\libgcc.a(_fixunsdfdi.o)
                0x008022f8                __fixunsdfdi
 .text          0x008023b4       0x88 c:/altera/12.1sp1/nios2eds/bin/gnu/h-i686-mingw32/bin/../lib/gcc/nios2-elf/4.1.2\libgcc.a(_floatdidf.o)
                0x008023b4                __floatdidf
 .text          0x0080243c      0x504 c:/altera/12.1sp1/nios2eds/bin/gnu/h-i686-mingw32/bin/../lib/gcc/nios2-elf/4.1.2\libgcc.a(_addsub_df.o)
                0x0080284c                __subdf3
                0x008028cc                __adddf3
 .text          0x00802940      0x3c4 c:/altera/12.1sp1/nios2eds/bin/gnu/h-i686-mingw32/bin/../lib/gcc/nios2-elf/4.1.2\libgcc.a(_mul_df.o)
                0x00802940                __muldf3
 .text          0x00802d04      0x258 c:/altera/12.1sp1/nios2eds/bin/gnu/h-i686-mingw32/bin/../lib/gcc/nios2-elf/4.1.2\libgcc.a(_div_df.o)
                0x00802d04                __divdf3
 .text          0x00802f5c       0x88 c:/altera/12.1sp1/nios2eds/bin/gnu/h-i686-mingw32/bin/../lib/gcc/nios2-elf/4.1.2\libgcc.a(_lt_df.o)
                0x00802f5c                __ltdf2
 .text          0x00802fe4       0xf8 c:/altera/12.1sp1/nios2eds/bin/gnu/h-i686-mingw32/bin/../lib/gcc/nios2-elf/4.1.2\libgcc.a(_si_to_df.o)
                0x00802fe4                __floatsidf
 .text          0x008030dc       0xd8 c:/altera/12.1sp1/nios2eds/bin/gnu/h-i686-mingw32/bin/../lib/gcc/nios2-elf/4.1.2\libgcc.a(_df_to_si.o)
                0x008030dc                __fixdfsi
 .text          0x008031b4        0x0 c:/altera/12.1sp1/nios2eds/bin/gnu/h-i686-mingw32/bin/../lib/gcc/nios2-elf/4.1.2\libgcc.a(_thenan_df.o)
 .text          0x008031b4      0x194 c:/altera/12.1sp1/nios2eds/bin/gnu/h-i686-mingw32/bin/../lib/gcc/nios2-elf/4.1.2\libgcc.a(_usi_to_df.o)
                0x008031b4                __floatunsidf
 .text          0x00803348       0x80 c:/altera/12.1sp1/nios2eds/bin/gnu/h-i686-mingw32/bin/../lib/gcc/nios2-elf/4.1.2\libgcc.a(_clzsi2.o)
                0x00803348                __clzsi2
 .text          0x008033c8       0xa4 c:/altera/12.1sp1/nios2eds/bin/gnu/h-i686-mingw32/bin/../lib/gcc/nios2-elf/4.1.2\libgcc.a(_fixunsdfsi.o)
                0x008033c8                __fixunsdfsi
 .text          0x0080346c      0x314 c:/altera/12.1sp1/nios2eds/bin/gnu/h-i686-mingw32/bin/../lib/gcc/nios2-elf/4.1.2\libgcc.a(_pack_df.o)
                0x0080346c                __pack_d
 .text          0x00803780      0x138 c:/altera/12.1sp1/nios2eds/bin/gnu/h-i686-mingw32/bin/../lib/gcc/nios2-elf/4.1.2\libgcc.a(_unpack_df.o)
                0x00803780                __unpack_d
 .text          0x008038b8       0xc8 c:/altera/12.1sp1/nios2eds/bin/gnu/h-i686-mingw32/bin/../lib/gcc/nios2-elf/4.1.2\libgcc.a(_fpcmp_parts_df.o)
                0x008038b8                __fpcmp_parts_d
 .text          0x00803980       0x88 c:/altera/12.1sp1/nios2eds/bin/gnu/h-i686-mingw32/bin/../lib/gcc/nios2-elf/4.1.2\libgcc.a(_ge_df.o)
                0x00803980                __gedf2
 .text          0x00803a08        0x0 c:/altera/12.1sp1/nios2eds/bin/gnu/h-i686-mingw32/bin/../lib/gcc/nios2-elf/4.1.2\libgcc.a(_clz.o)
 .text          0x00803a08       0x10 c:/altera/12.1sp1/nios2eds/bin/gnu/h-i686-mingw32/bin/../lib/gcc/nios2-elf/4.1.2/../../../../nios2-elf/lib\libc.a(lib_a-errno.o)
                0x00803a08                __errno
 .text          0x00803a18        0x0 c:/altera/12.1sp1/nios2eds/bin/gnu/h-i686-mingw32/bin/../lib/gcc/nios2-elf/4.1.2/../../../../nios2-elf/lib\libc.a(lib_a-impure.o)
 .text          0x00803a18       0x78 c:/altera/12.1sp1/nios2eds/bin/gnu/h-i686-mingw32/bin/../lib/gcc/nios2-elf/4.1.2/../../../../nios2-elf/lib\libc.a(lib_a-printf.o)
                0x00803a18                printf
                0x00803a5c                _printf_r
 .text          0x00803a90       0xb4 c:/altera/12.1sp1/nios2eds/bin/gnu/h-i686-mingw32/bin/../lib/gcc/nios2-elf/4.1.2/../../../../nios2-elf/lib\libc.a(lib_a-puts.o)
                0x00803a90                _puts_r
                0x00803b30                puts
 .text          0x00803b44       0x74 c:/altera/12.1sp1/nios2eds/bin/gnu/h-i686-mingw32/bin/../lib/gcc/nios2-elf/4.1.2/../../../../nios2-elf/lib\libc.a(lib_a-strlen.o)
                0x00803b44                strlen
 .text          0x00803bb8     0x1f28 c:/altera/12.1sp1/nios2eds/bin/gnu/h-i686-mingw32/bin/../lib/gcc/nios2-elf/4.1.2/../../../../nios2-elf/lib\libc.a(lib_a-vfprintf.o)
                0x00803c10                ___vfprintf_internal_r
                0x00805abc                __vfprintf_internal
 .text          0x00805ae0      0x13c c:/altera/12.1sp1/nios2eds/bin/gnu/h-i686-mingw32/bin/../lib/gcc/nios2-elf/4.1.2/../../../../nios2-elf/lib\libc.a(lib_a-wsetup.o)
                0x00805ae0                __swsetup_r
 .text          0x00805c1c     0x17cc c:/altera/12.1sp1/nios2eds/bin/gnu/h-i686-mingw32/bin/../lib/gcc/nios2-elf/4.1.2/../../../../nios2-elf/lib\libc.a(lib_a-dtoa.o)
                0x00805e34                _dtoa_r
 .text          0x008073e8      0x230 c:/altera/12.1sp1/nios2eds/bin/gnu/h-i686-mingw32/bin/../lib/gcc/nios2-elf/4.1.2/../../../../nios2-elf/lib\libc.a(lib_a-fflush.o)
                0x008073e8                _fflush_r
                0x008075e4                fflush
 .text          0x00807618      0x2c0 c:/altera/12.1sp1/nios2eds/bin/gnu/h-i686-mingw32/bin/../lib/gcc/nios2-elf/4.1.2/../../../../nios2-elf/lib\libc.a(lib_a-findfp.o)
                0x00807670                __sfp_lock_acquire
                0x00807674                __sfp_lock_release
                0x00807678                __sinit_lock_acquire
                0x0080767c                __sinit_lock_release
                0x00807680                __sinit
                0x00807734                __fp_unlock_all
                0x0080774c                __fp_lock_all
                0x00807764                _cleanup_r
                0x00807770                _cleanup
                0x00807780                __sfmoreglue
                0x008077e8                __sfp
 .text          0x008078d8      0x440 c:/altera/12.1sp1/nios2eds/bin/gnu/h-i686-mingw32/bin/../lib/gcc/nios2-elf/4.1.2/../../../../nios2-elf/lib\libc.a(lib_a-freer.o)
                0x008078d8                _malloc_trim_r
                0x00807a04                _free_r
 .text          0x00807d18      0x49c c:/altera/12.1sp1/nios2eds/bin/gnu/h-i686-mingw32/bin/../lib/gcc/nios2-elf/4.1.2/../../../../nios2-elf/lib\libc.a(lib_a-fvwrite.o)
                0x00807d18                __sfvwrite_r
 .text          0x008081b4      0x180 c:/altera/12.1sp1/nios2eds/bin/gnu/h-i686-mingw32/bin/../lib/gcc/nios2-elf/4.1.2/../../../../nios2-elf/lib\libc.a(lib_a-fwalk.o)
                0x008081b4                _fwalk_reent
                0x0080827c                _fwalk
 .text          0x00808334       0xc4 c:/altera/12.1sp1/nios2eds/bin/gnu/h-i686-mingw32/bin/../lib/gcc/nios2-elf/4.1.2/../../../../nios2-elf/lib\libc.a(lib_a-locale.o)
                0x00808334                __locale_charset
                0x0080833c                _localeconv_r
                0x00808348                localeconv
                0x00808358                _setlocale_r
                0x008083dc                setlocale
 .text          0x008083f8      0x194 c:/altera/12.1sp1/nios2eds/bin/gnu/h-i686-mingw32/bin/../lib/gcc/nios2-elf/4.1.2/../../../../nios2-elf/lib\libc.a(lib_a-makebuf.o)
                0x008083f8                __smakebuf_r
 .text          0x0080858c      0x740 c:/altera/12.1sp1/nios2eds/bin/gnu/h-i686-mingw32/bin/../lib/gcc/nios2-elf/4.1.2/../../../../nios2-elf/lib\libc.a(lib_a-mallocr.o)
                0x0080858c                _malloc_r
 .text          0x00808ccc       0xe4 c:/altera/12.1sp1/nios2eds/bin/gnu/h-i686-mingw32/bin/../lib/gcc/nios2-elf/4.1.2/../../../../nios2-elf/lib\libc.a(lib_a-memchr.o)
                0x00808ccc                memchr
 .text          0x00808db0       0xa0 c:/altera/12.1sp1/nios2eds/bin/gnu/h-i686-mingw32/bin/../lib/gcc/nios2-elf/4.1.2/../../../../nios2-elf/lib\libc.a(lib_a-memcpy.o)
                0x00808db0                memcpy
 .text          0x00808e50       0xe0 c:/altera/12.1sp1/nios2eds/bin/gnu/h-i686-mingw32/bin/../lib/gcc/nios2-elf/4.1.2/../../../../nios2-elf/lib\libc.a(lib_a-memmove.o)
                0x00808e50                memmove
 .text          0x00808f30       0x98 c:/altera/12.1sp1/nios2eds/bin/gnu/h-i686-mingw32/bin/../lib/gcc/nios2-elf/4.1.2/../../../../nios2-elf/lib\libc.a(lib_a-memset.o)
                0x00808f30                memset
 .text          0x00808fc8      0xff4 c:/altera/12.1sp1/nios2eds/bin/gnu/h-i686-mingw32/bin/../lib/gcc/nios2-elf/4.1.2/../../../../nios2-elf/lib\libc.a(lib_a-mprec.o)
                0x00808fc8                _Bfree
                0x00808ff0                __hi0bits
                0x00809060                __lo0bits
                0x00809124                __mcmp
                0x00809184                __ulp
                0x00809204                __b2d
                0x00809324                __ratio
                0x008093d4                _mprec_log10
                0x00809468                __copybits
                0x008094c0                __any_on
                0x00809548                _Balloc
                0x00809604                __d2b
                0x00809780                __mdiff
                0x0080990c                __lshift
                0x00809a58                __multiply
                0x00809c40                __i2b
                0x00809c7c                __multadd
                0x00809d7c                __pow5mult
                0x00809e9c                __s2b
 .text          0x00809fbc      0x5f4 c:/altera/12.1sp1/nios2eds/bin/gnu/h-i686-mingw32/bin/../lib/gcc/nios2-elf/4.1.2/../../../../nios2-elf/lib\libc.a(lib_a-reallocr.o)
                0x00809fbc                _realloc_r
 .text          0x0080a5b0       0x40 c:/altera/12.1sp1/nios2eds/bin/gnu/h-i686-mingw32/bin/../lib/gcc/nios2-elf/4.1.2/../../../../nios2-elf/lib\libc.a(lib_a-s_isinfd.o)
                0x0080a5b0                __isinfd
 .text          0x0080a5f0       0x70 c:/altera/12.1sp1/nios2eds/bin/gnu/h-i686-mingw32/bin/../lib/gcc/nios2-elf/4.1.2/../../../../nios2-elf/lib\libc.a(lib_a-sbrkr.o)
                0x0080a5f0                _sbrk_r
 .text          0x0080a660      0x14c c:/altera/12.1sp1/nios2eds/bin/gnu/h-i686-mingw32/bin/../lib/gcc/nios2-elf/4.1.2/../../../../nios2-elf/lib\libc.a(lib_a-stdio.o)
                0x0080a660                __sclose
                0x0080a668                __sseek
                0x0080a6d0                __swrite
                0x0080a74c                __sread
 .text          0x0080a7ac       0xbc c:/altera/12.1sp1/nios2eds/bin/gnu/h-i686-mingw32/bin/../lib/gcc/nios2-elf/4.1.2/../../../../nios2-elf/lib\libc.a(lib_a-strcmp.o)
                0x0080a7ac                strcmp
 .text          0x0080a868       0x78 c:/altera/12.1sp1/nios2eds/bin/gnu/h-i686-mingw32/bin/../lib/gcc/nios2-elf/4.1.2/../../../../nios2-elf/lib\libc.a(lib_a-writer.o)
                0x0080a868                _write_r
 .text          0x0080a8e0       0xb4 c:/altera/12.1sp1/nios2eds/bin/gnu/h-i686-mingw32/bin/../lib/gcc/nios2-elf/4.1.2/../../../../nios2-elf/lib\libc.a(lib_a-callocr.o)
                0x0080a8e0                _calloc_r
 .text          0x0080a994       0x70 c:/altera/12.1sp1/nios2eds/bin/gnu/h-i686-mingw32/bin/../lib/gcc/nios2-elf/4.1.2/../../../../nios2-elf/lib\libc.a(lib_a-closer.o)
                0x0080a994                _close_r
 .text          0x0080aa04      0x124 c:/altera/12.1sp1/nios2eds/bin/gnu/h-i686-mingw32/bin/../lib/gcc/nios2-elf/4.1.2/../../../../nios2-elf/lib\libc.a(lib_a-fclose.o)
                0x0080aa04                _fclose_r
                0x0080ab14                fclose
 .text          0x0080ab28       0x74 c:/altera/12.1sp1/nios2eds/bin/gnu/h-i686-mingw32/bin/../lib/gcc/nios2-elf/4.1.2/../../../../nios2-elf/lib\libc.a(lib_a-fstatr.o)
                0x0080ab28                _fstat_r
 .text          0x0080ab9c        0x0 c:/altera/12.1sp1/nios2eds/bin/gnu/h-i686-mingw32/bin/../lib/gcc/nios2-elf/4.1.2/../../../../nios2-elf/lib\libc.a(lib_a-int_errno.o)
 .text          0x0080ab9c       0x70 c:/altera/12.1sp1/nios2eds/bin/gnu/h-i686-mingw32/bin/../lib/gcc/nios2-elf/4.1.2/../../../../nios2-elf/lib\libc.a(lib_a-isattyr.o)
                0x0080ab9c                _isatty_r
 .text          0x0080ac0c       0x78 c:/altera/12.1sp1/nios2eds/bin/gnu/h-i686-mingw32/bin/../lib/gcc/nios2-elf/4.1.2/../../../../nios2-elf/lib\libc.a(lib_a-lseekr.o)
                0x0080ac0c                _lseek_r
 .text          0x0080ac84       0x78 c:/altera/12.1sp1/nios2eds/bin/gnu/h-i686-mingw32/bin/../lib/gcc/nios2-elf/4.1.2/../../../../nios2-elf/lib\libc.a(lib_a-readr.o)
                0x0080ac84                _read_r
 .text          0x0080acfc      0x5dc c:/altera/12.1sp1/nios2eds/bin/gnu/h-i686-mingw32/bin/../lib/gcc/nios2-elf/4.1.2\libgcc.a(_udivdi3.o)
                0x0080acfc                __udivdi3
 .text          0x0080b2d8      0x5b0 c:/altera/12.1sp1/nios2eds/bin/gnu/h-i686-mingw32/bin/../lib/gcc/nios2-elf/4.1.2\libgcc.a(_umoddi3.o)
                0x0080b2d8                __umoddi3
 .text          0x0080b888       0x88 c:/altera/12.1sp1/nios2eds/bin/gnu/h-i686-mingw32/bin/../lib/gcc/nios2-elf/4.1.2\libgcc.a(_eq_df.o)
                0x0080b888                __eqdf2
 .text          0x0080b910       0x88 c:/altera/12.1sp1/nios2eds/bin/gnu/h-i686-mingw32/bin/../lib/gcc/nios2-elf/4.1.2\libgcc.a(_ne_df.o)
                0x0080b910                __nedf2
 .text          0x0080b998       0x88 c:/altera/12.1sp1/nios2eds/bin/gnu/h-i686-mingw32/bin/../lib/gcc/nios2-elf/4.1.2\libgcc.a(_gt_df.o)
                0x0080b998                __gtdf2
 .text          0x0080ba20      0x14c c:/altera/12.1sp1/nios2eds/bin/gnu/h-i686-mingw32/bin/../lib/gcc/nios2-elf/4.1.2\libgcc.a(lib2-divmod.o)
                0x0080ba9c                __divsi3
                0x0080bafc                __modsi3
                0x0080bb5c                __udivsi3
                0x0080bb64                __umodsi3
 .text          0x0080bb6c      0x15c C:/Users/jchang3/Documents/ECE492/test/software/accelerometer_pen50s_bsp/\libucosii_bsp.a(alt_close.o)
                0x0080bb6c                close
 .text          0x0080bcc8       0x2c C:/Users/jchang3/Documents/ECE492/test/software/accelerometer_pen50s_bsp/\libucosii_bsp.a(alt_dev.o)
 .text          0x0080bcf4        0x0 C:/Users/jchang3/Documents/ECE492/test/software/accelerometer_pen50s_bsp/\libucosii_bsp.a(alt_errno.o)
 .text          0x0080bcf4      0x134 C:/Users/jchang3/Documents/ECE492/test/software/accelerometer_pen50s_bsp/\libucosii_bsp.a(alt_fstat.o)
                0x0080bcf4                fstat
 .text          0x0080be28      0x120 C:/Users/jchang3/Documents/ECE492/test/software/accelerometer_pen50s_bsp/\libucosii_bsp.a(alt_isatty.o)
                0x0080be28                isatty
 .text          0x0080bf48       0xec C:/Users/jchang3/Documents/ECE492/test/software/accelerometer_pen50s_bsp/\libucosii_bsp.a(alt_load.o)
                0x0080bf48                alt_load
 .text          0x0080c034      0x150 C:/Users/jchang3/Documents/ECE492/test/software/accelerometer_pen50s_bsp/\libucosii_bsp.a(alt_lseek.o)
                0x0080c034                lseek
 .text          0x0080c184       0xc8 C:/Users/jchang3/Documents/ECE492/test/software/accelerometer_pen50s_bsp/\libucosii_bsp.a(alt_main.o)
                0x0080c184                alt_main
 .text          0x0080c24c      0x180 C:/Users/jchang3/Documents/ECE492/test/software/accelerometer_pen50s_bsp/\libucosii_bsp.a(alt_read.o)
                0x0080c24c                read
 .text          0x0080c3cc       0x60 C:/Users/jchang3/Documents/ECE492/test/software/accelerometer_pen50s_bsp/\libucosii_bsp.a(alt_release_fd.o)
                0x0080c3cc                alt_release_fd
 .text          0x0080c42c       0xbc C:/Users/jchang3/Documents/ECE492/test/software/accelerometer_pen50s_bsp/\libucosii_bsp.a(alt_sbrk.o)
                0x0080c42c                sbrk
 .text          0x0080c4e8      0x180 C:/Users/jchang3/Documents/ECE492/test/software/accelerometer_pen50s_bsp/\libucosii_bsp.a(alt_write.o)
                0x0080c4e8                write
 .text          0x0080c668      0x108 C:/Users/jchang3/Documents/ECE492/test/software/accelerometer_pen50s_bsp/\libucosii_bsp.a(alt_env_lock.o)
                0x0080c668                __env_lock
                0x0080c714                __env_unlock
 .text          0x0080c770      0x1d8 C:/Users/jchang3/Documents/ECE492/test/software/accelerometer_pen50s_bsp/\libucosii_bsp.a(alt_malloc_lock.o)
                0x0080c770                __malloc_lock
                0x0080c878                __malloc_unlock
 .text          0x0080c948     0x2128 C:/Users/jchang3/Documents/ECE492/test/software/accelerometer_pen50s_bsp/\libucosii_bsp.a(os_core.o)
                0x0080c948                OSEventNameGet
                0x0080ca78                OSEventNameSet
                0x0080cbbc                OSEventPendMulti
                0x0080d270                OSInit
                0x0080d2c4                OSIntEnter
                0x0080d340                OSIntExit
                0x0080d440                OSSchedLock
                0x0080d4cc                OSSchedUnlock
                0x0080d5b0                OSStart
                0x0080d620                OSStatInit
                0x0080d6cc                OSTimeTick
                0x0080d90c                OSVersion
                0x0080d92c                OS_Dummy
                0x0080d948                OS_EventTaskRdy
                0x0080dadc                OS_EventTaskWait
                0x0080dbec                OS_EventTaskWaitMulti
                0x0080dd40                OS_EventTaskRemove
                0x0080ddf8                OS_EventTaskRemoveMulti
                0x0080defc                OS_EventWaitListInit
                0x0080e2c8                OS_MemClr
                0x0080e31c                OS_MemCopy
                0x0080e388                OS_Sched
                0x0080e4cc                OS_StrCopy
                0x0080e54c                OS_StrLen
                0x0080e5a4                OS_TaskIdle
                0x0080e600                OS_TaskStat
                0x0080e6c8                OS_TaskStatStkChk
                0x0080e790                OS_TCBInit
 .text          0x0080ea70      0x18c C:/Users/jchang3/Documents/ECE492/test/software/accelerometer_pen50s_bsp/\libucosii_bsp.a(os_dbg.o)
                0x0080ea70                OSDebugInit
 .text          0x0080ebfc     0x193c C:/Users/jchang3/Documents/ECE492/test/software/accelerometer_pen50s_bsp/\libucosii_bsp.a(os_flag.o)
                0x0080ebfc                OSFlagAccept
                0x0080ef30                OSFlagCreate
                0x0080f06c                OSFlagDel
                0x0080f314                OSFlagNameGet
                0x0080f458                OSFlagNameSet
                0x0080f5ac                OSFlagPend
                0x0080fbf0                OSFlagPendGetFlagsRdy
                0x0080fc58                OSFlagPost
                0x00810000                OSFlagQuery
                0x00810298                OS_FlagInit
                0x0081048c                OS_FlagUnlink
 .text          0x00810538      0x808 C:/Users/jchang3/Documents/ECE492/test/software/accelerometer_pen50s_bsp/\libucosii_bsp.a(os_mem.o)
                0x00810538                OSMemCreate
                0x00810754                OSMemGet
                0x00810858                OSMemNameGet
                0x00810964                OSMemNameSet
                0x00810a84                OSMemPut
                0x00810b74                OSMemQuery
                0x00810c70                OS_MemInit
 .text          0x00810d40     0x1334 C:/Users/jchang3/Documents/ECE492/test/software/accelerometer_pen50s_bsp/\libucosii_bsp.a(os_q.o)
                0x00810d40                OSQAccept
                0x00810e94                OSQCreate
                0x008110a8                OSQDel
                0x008113a8                OSQFlush
                0x00811470                OSQPend
                0x00811790                OSQPendAbort
                0x0081190c                OSQPost
                0x00811a8c                OSQPostFront
                0x00811c14                OSQPostOpt
                0x00811e48                OSQQuery
                0x00811fc8                OS_QInit
 .text          0x00812074      0xbc8 C:/Users/jchang3/Documents/ECE492/test/software/accelerometer_pen50s_bsp/\libucosii_bsp.a(os_sem.o)
                0x00812074                OSSemAccept
                0x00812134                OSSemCreate
                0x00812248                OSSemDel
                0x008124e8                OSSemPend
                0x00812764                OSSemPendAbort
                0x008128e0                OSSemPost
                0x00812a08                OSSemQuery
                0x00812b38                OSSemSet
 .text          0x00812c3c     0x1a40 C:/Users/jchang3/Documents/ECE492/test/software/accelerometer_pen50s_bsp/\libucosii_bsp.a(os_task.o)
                0x00812c3c                OSTaskChangePrio
                0x008131b0                OSTaskCreate
                0x00813384                OSTaskCreateExt
                0x00813584                OSTaskDel
                0x00813990                OSTaskDelReq
                0x00813b00                OSTaskNameGet
                0x00813cb8                OSTaskNameSet
                0x00813e7c                OSTaskResume
                0x00814094                OSTaskStkChk
                0x00814290                OSTaskSuspend
                0x008144bc                OSTaskQuery
                0x00814600                OS_TaskStkClr
 .text          0x0081467c      0x598 C:/Users/jchang3/Documents/ECE492/test/software/accelerometer_pen50s_bsp/\libucosii_bsp.a(os_time.o)
                0x0081467c                OSTimeDly
                0x008147c8                OSTimeDlyHMSM
                0x0081493c                OSTimeDlyResume
                0x00814b4c                OSTimeGet
                0x00814bb0                OSTimeSet
 .text          0x00814c14       0xf8 C:/Users/jchang3/Documents/ECE492/test/software/accelerometer_pen50s_bsp/\libucosii_bsp.a(alt_sys_init.o)
                0x00814c14                alt_irq_init
                0x00814c48                alt_sys_init
 .text          0x00814d0c      0x148 C:/Users/jchang3/Documents/ECE492/test/software/accelerometer_pen50s_bsp/\libucosii_bsp.a(altera_avalon_jtag_uart_fd.o)
                0x00814d0c                altera_avalon_jtag_uart_read_fd
                0x00814d64                altera_avalon_jtag_uart_write_fd
                0x00814dbc                altera_avalon_jtag_uart_close_fd
                0x00814e04                altera_avalon_jtag_uart_ioctl_fd
 .text          0x00814e54      0x580 C:/Users/jchang3/Documents/ECE492/test/software/accelerometer_pen50s_bsp/\libucosii_bsp.a(altera_avalon_jtag_uart_init.o)
                0x00814e54                altera_avalon_jtag_uart_init
                0x00815360                altera_avalon_jtag_uart_close
 .text          0x008153d4       0xf4 C:/Users/jchang3/Documents/ECE492/test/software/accelerometer_pen50s_bsp/\libucosii_bsp.a(altera_avalon_jtag_uart_ioctl.o)
                0x008153d4                altera_avalon_jtag_uart_ioctl
 .text          0x008154c8      0x2c0 C:/Users/jchang3/Documents/ECE492/test/software/accelerometer_pen50s_bsp/\libucosii_bsp.a(altera_avalon_jtag_uart_read.o)
                0x008154c8                altera_avalon_jtag_uart_read
 .text          0x00815788      0x2dc C:/Users/jchang3/Documents/ECE492/test/software/accelerometer_pen50s_bsp/\libucosii_bsp.a(altera_avalon_jtag_uart_write.o)
                0x00815788                altera_avalon_jtag_uart_write
 .text          0x00815a64       0xfc C:/Users/jchang3/Documents/ECE492/test/software/accelerometer_pen50s_bsp/\libucosii_bsp.a(altera_avalon_timer_sc.o)
                0x00815ad8                alt_avalon_timer_sc_init
 .text          0x00815b60      0x530 C:/Users/jchang3/Documents/ECE492/test/software/accelerometer_pen50s_bsp/\libucosii_bsp.a(altera_up_avalon_character_lcd.o)
                0x00815b60                get_DDRAM_addr
                0x00815bdc                alt_up_character_lcd_send_cmd
                0x00815c10                alt_up_character_lcd_init
                0x00815c44                alt_up_character_lcd_open_dev
                0x00815c84                alt_up_character_lcd_write
                0x00815cfc                alt_up_character_lcd_string
                0x00815d74                alt_up_character_lcd_write_fd
                0x00815dc0                alt_up_character_lcd_set_cursor_pos
                0x00815e38                alt_up_character_lcd_shift_cursor
                0x00815ee8                alt_up_character_lcd_shift_display
                0x00815f98                alt_up_character_lcd_erase_pos
                0x00816028                alt_up_character_lcd_cursor_off
                0x0081605c                alt_up_character_lcd_cursor_blink_on
 .text          0x00816090      0x398 C:/Users/jchang3/Documents/ECE492/test/software/accelerometer_pen50s_bsp/\libucosii_bsp.a(altera_up_avalon_rs232.o)
                0x00816090                alt_up_rs232_enable_read_interrupt
                0x008160e4                alt_up_rs232_disable_read_interrupt
                0x0081613c                alt_up_rs232_get_used_space_in_read_FIFO
                0x00816178                alt_up_rs232_get_available_space_in_write_FIFO
                0x008161b8                alt_up_rs232_check_parity
                0x00816208                alt_up_rs232_write_data
                0x00816250                alt_up_rs232_read_data
                0x008162c4                alt_up_rs232_read_fd
                0x00816354                alt_up_rs232_write_fd
                0x008163e8                alt_up_rs232_open_dev
 .text          0x00816428     0x4430 C:/Users/jchang3/Documents/ECE492/test/software/accelerometer_pen50s_bsp/\libucosii_bsp.a(altera_up_sd_card_avalon_interface.o)
                0x00816428                Write_Sector_Data
                0x008164f0                Save_Modified_Sector
                0x00816540                Read_Sector_Data
                0x0081663c                get_cluster_flag
                0x008166f4                mark_cluster
                0x008167d8                Check_for_Master_Boot_Record
                0x00816988                Read_File_Record_At_Offset
                0x00816c0c                Write_File_Record_At_Offset
                0x00816ec4                Check_for_DOS_FAT
                0x0081750c                Look_for_FAT16
                0x00817604                filename_to_upper_case
                0x008176d4                check_file_name_for_FAT16_compliance
                0x00817964                get_dir_divider_location
                0x00817a24                match_file_record_to_name_ext
                0x00817d10                get_home_directory_cluster_for_file
                0x00818224                find_file_in_directory
                0x00818688                find_first_empty_cluster
                0x0081882c                find_first_empty_record_in_a_subdirectory
                0x00818a78                find_first_empty_record_in_root_directory
                0x00818ba4                convert_filename_to_name_extension
                0x00818d5c                create_file
                0x00819030                copy_file_record_name_to_string
                0x00819184                alt_up_sd_card_open_dev
                0x00819248                alt_up_sd_card_is_Present
                0x00819310                alt_up_sd_card_is_FAT16
                0x00819384                alt_up_sd_card_find_first
                0x00819458                alt_up_sd_card_find_next
                0x00819808                alt_up_sd_card_fopen
                0x00819bb0                alt_up_sd_card_set_attributes
                0x00819c40                alt_up_sd_card_get_attributes
                0x00819ccc                alt_up_sd_card_read
                0x0081a068                alt_up_sd_card_write
                0x0081a68c                alt_up_sd_card_fclose
 .text          0x0081a858      0x154 C:/Users/jchang3/Documents/ECE492/test/software/accelerometer_pen50s_bsp/\libucosii_bsp.a(alt_alarm_start.o)
                0x0081a858                alt_alarm_start
 .text          0x0081a9ac       0x1c C:/Users/jchang3/Documents/ECE492/test/software/accelerometer_pen50s_bsp/\libucosii_bsp.a(alt_dcache_flush_all.o)
                0x0081a9ac                alt_dcache_flush_all
 .text          0x0081a9c8      0x114 C:/Users/jchang3/Documents/ECE492/test/software/accelerometer_pen50s_bsp/\libucosii_bsp.a(alt_dev_llist_insert.o)
                0x0081a9c8                alt_dev_llist_insert
 .text          0x0081aadc       0x64 C:/Users/jchang3/Documents/ECE492/test/software/accelerometer_pen50s_bsp/\libucosii_bsp.a(alt_do_ctors.o)
                0x0081aadc                _do_ctors
 .text          0x0081ab40       0x64 C:/Users/jchang3/Documents/ECE492/test/software/accelerometer_pen50s_bsp/\libucosii_bsp.a(alt_do_dtors.o)
                0x0081ab40                _do_dtors
 .text          0x0081aba4       0x94 C:/Users/jchang3/Documents/ECE492/test/software/accelerometer_pen50s_bsp/\libucosii_bsp.a(alt_find_dev.o)
                0x0081aba4                alt_find_dev
 .text          0x0081ac38       0x30 C:/Users/jchang3/Documents/ECE492/test/software/accelerometer_pen50s_bsp/\libucosii_bsp.a(alt_icache_flush_all.o)
                0x0081ac38                alt_icache_flush_all
 .text          0x0081ac68      0x13c C:/Users/jchang3/Documents/ECE492/test/software/accelerometer_pen50s_bsp/\libucosii_bsp.a(alt_io_redirect.o)
                0x0081ad2c                alt_io_redirect
 .text          0x0081ada4      0x1c0 C:/Users/jchang3/Documents/ECE492/test/software/accelerometer_pen50s_bsp/\libucosii_bsp.a(alt_irq_register.o)
                0x0081ada4                alt_irq_register
 .text          0x0081af64        0x0 C:/Users/jchang3/Documents/ECE492/test/software/accelerometer_pen50s_bsp/\libucosii_bsp.a(alt_irq_vars.o)
 .text          0x0081af64      0x2c4 C:/Users/jchang3/Documents/ECE492/test/software/accelerometer_pen50s_bsp/\libucosii_bsp.a(alt_open.o)
                0x0081b040                open
 .text          0x0081b228      0x1a8 C:/Users/jchang3/Documents/ECE492/test/software/accelerometer_pen50s_bsp/\libucosii_bsp.a(alt_tick.o)
                0x0081b228                alt_alarm_stop
                0x0081b2c0                alt_tick
 .text          0x0081b3d0       0x20 C:/Users/jchang3/Documents/ECE492/test/software/accelerometer_pen50s_bsp/\libucosii_bsp.a(altera_nios2_qsys_irq.o)
                0x0081b3d0                altera_nios2_qsys_irq_init
 .text          0x0081b3f0       0xd0 C:/Users/jchang3/Documents/ECE492/test/software/accelerometer_pen50s_bsp/\libucosii_bsp.a(os_cpu_a.o)
                0x0081b3f0                OSCtxSw
                0x0081b3f0                OSIntCtxSw
                0x0081b47c                OSStartHighRdy
                0x0081b49c                OSStartTsk
 .text          0x0081b4c0      0x418 C:/Users/jchang3/Documents/ECE492/test/software/accelerometer_pen50s_bsp/\libucosii_bsp.a(os_cpu_c.o)
                0x0081b4c0                OSTaskStkInit
                0x0081b7d0                OSTaskCreateHook
                0x0081b7f0                OSTaskDelHook
                0x0081b810                OSTaskSwHook
                0x0081b82c                OSTaskStatHook
                0x0081b848                OSTimeTickHook
                0x0081b864                OSInitHookBegin
                0x0081b880                OSInitHookEnd
                0x0081b89c                OSTaskIdleHook
                0x0081b8b8                OSTCBInitHook
 .text          0x0081b8d8      0x120 C:/Users/jchang3/Documents/ECE492/test/software/accelerometer_pen50s_bsp/\libucosii_bsp.a(alt_find_file.o)
                0x0081b8d8                alt_find_file
 .text          0x0081b9f8       0xf4 C:/Users/jchang3/Documents/ECE492/test/software/accelerometer_pen50s_bsp/\libucosii_bsp.a(alt_get_fd.o)
                0x0081b9f8                alt_get_fd
 .text          0x0081baec       0x90 C:/Users/jchang3/Documents/ECE492/test/software/accelerometer_pen50s_bsp/\libucosii_bsp.a(alt_icache_flush.o)
                0x0081baec                alt_icache_flush
 .text          0x0081bb7c        0x0 C:/Users/jchang3/Documents/ECE492/test/software/accelerometer_pen50s_bsp/\libucosii_bsp.a(alt_irq_entry.o)
 .text          0x0081bb7c        0x0 C:/Users/jchang3/Documents/ECE492/test/software/accelerometer_pen50s_bsp/\libucosii_bsp.a(alt_irq_handler.o)
 .text          0x0081bb7c        0x0 C:/Users/jchang3/Documents/ECE492/test/software/accelerometer_pen50s_bsp/\libucosii_bsp.a(alt_exception_entry.o)
 .text          0x0081bb7c       0x14 c:/altera/12.1sp1/nios2eds/bin/gnu/h-i686-mingw32/bin/../lib/gcc/nios2-elf/4.1.2/../../../../nios2-elf/lib\libc.a(lib_a-atexit.o)
                0x0081bb7c                atexit
 .text          0x0081bb90       0x38 c:/altera/12.1sp1/nios2eds/bin/gnu/h-i686-mingw32/bin/../lib/gcc/nios2-elf/4.1.2/../../../../nios2-elf/lib\libc.a(lib_a-exit.o)
                0x0081bb90                exit
 .text          0x0081bbc8       0x74 c:/altera/12.1sp1/nios2eds/bin/gnu/h-i686-mingw32/bin/../lib/gcc/nios2-elf/4.1.2/../../../../nios2-elf/lib\libc.a(lib_a-memcmp.o)
                0x0081bbc8                memcmp
 .text          0x0081bc3c      0x134 c:/altera/12.1sp1/nios2eds/bin/gnu/h-i686-mingw32/bin/../lib/gcc/nios2-elf/4.1.2/../../../../nios2-elf/lib\libc.a(lib_a-__atexit.o)
                0x0081bc3c                __register_exitproc
 .text          0x0081bd70      0x1b4 c:/altera/12.1sp1/nios2eds/bin/gnu/h-i686-mingw32/bin/../lib/gcc/nios2-elf/4.1.2/../../../../nios2-elf/lib\libc.a(lib_a-__call_atexit.o)
                0x0081bd74                __call_exitprocs
 .text          0x0081bf24       0x6c C:/Users/jchang3/Documents/ECE492/test/software/accelerometer_pen50s_bsp/\libucosii_bsp.a(alt_exit.o)
                0x0081bf64                _exit
 *(.gnu.warning.*)
 *(.fini)
                0x0081bf90                PROVIDE (__etext, ABSOLUTE (.))
                0x0081bf90                PROVIDE (_etext, ABSOLUTE (.))
                0x0081bf90                PROVIDE (etext, ABSOLUTE (.))
 *(.eh_frame_hdr)
                0x0081bf90                . = ALIGN (0x4)
                0x0081bf90                PROVIDE (__preinit_array_start, ABSOLUTE (.))
 *(.preinit_array)
                0x0081bf90                PROVIDE (__preinit_array_end, ABSOLUTE (.))
                0x0081bf90                PROVIDE (__init_array_start, ABSOLUTE (.))
 *(.init_array)
                0x0081bf90                PROVIDE (__init_array_end, ABSOLUTE (.))
                0x0081bf90                PROVIDE (__fini_array_start, ABSOLUTE (.))
 *(.fini_array)
                0x0081bf90                PROVIDE (__fini_array_end, ABSOLUTE (.))
 *(.eh_frame)
 *(.gcc_except_table)
 *(.dynamic)
                0x0081bf90                PROVIDE (__CTOR_LIST__, ABSOLUTE (.))
 *(.ctors)
 *(SORT(.ctors.*))
 .ctors.65535   0x0081bf90        0x4 c:/altera/12.1sp1/nios2eds/bin/gnu/h-i686-mingw32/bin/../lib/gcc/nios2-elf/4.1.2/../../../../nios2-elf/lib\libc.a(lib_a-__call_atexit.o)
                0x0081bf94                PROVIDE (__CTOR_END__, ABSOLUTE (.))
                0x0081bf94                PROVIDE (__DTOR_LIST__, ABSOLUTE (.))
 *(.dtors)
 *(SORT(.dtors.*))
                0x0081bf94                PROVIDE (__DTOR_END__, ABSOLUTE (.))
 *(.jcr)
                0x0081bf94                . = ALIGN (0x4)

.rodata         0x0081bf94      0x978
                0x0081bf94                PROVIDE (__ram_rodata_start, ABSOLUTE (.))
                0x0081bf94                . = ALIGN (0x4)
 *(.rodata .rodata.* .gnu.linkonce.r.*)
 .rodata        0x0081bf94      0x4b4 obj/default/hello_ucosii.o
 .rodata.str1.4
                0x0081c448        0x5 c:/altera/12.1sp1/nios2eds/bin/gnu/h-i686-mingw32/bin/../lib/gcc/nios2-elf/4.1.2/../../../../nios2-elf/lib\libm.a(lib_a-w_sqrt.o)
                                  0x8 (size before relaxing)
 *fill*         0x0081c44d        0x3 00
 .rodata        0x0081c450       0x14 c:/altera/12.1sp1/nios2eds/bin/gnu/h-i686-mingw32/bin/../lib/gcc/nios2-elf/4.1.2\libgcc.a(_thenan_df.o)
                0x0081c450                __thenan_df
 .rodata        0x0081c464      0x100 c:/altera/12.1sp1/nios2eds/bin/gnu/h-i686-mingw32/bin/../lib/gcc/nios2-elf/4.1.2\libgcc.a(_clz.o)
                0x0081c464                __clz_tab
 .rodata.str1.4
                0x0081c564        0x2 c:/altera/12.1sp1/nios2eds/bin/gnu/h-i686-mingw32/bin/../lib/gcc/nios2-elf/4.1.2/../../../../nios2-elf/lib\libc.a(lib_a-impure.o)
                                  0x4 (size before relaxing)
 *fill*         0x0081c566        0x2 00
 .rodata.str1.4
                0x0081c568        0x2 c:/altera/12.1sp1/nios2eds/bin/gnu/h-i686-mingw32/bin/../lib/gcc/nios2-elf/4.1.2/../../../../nios2-elf/lib\libc.a(lib_a-puts.o)
                                  0x4 (size before relaxing)
 *fill*         0x0081c56a        0x2 00
 .rodata.str1.4
                0x0081c56c       0x5e c:/altera/12.1sp1/nios2eds/bin/gnu/h-i686-mingw32/bin/../lib/gcc/nios2-elf/4.1.2/../../../../nios2-elf/lib\libc.a(lib_a-vfprintf.o)
                                 0x60 (size before relaxing)
 .rodata        0x0081c5ca       0x20 c:/altera/12.1sp1/nios2eds/bin/gnu/h-i686-mingw32/bin/../lib/gcc/nios2-elf/4.1.2/../../../../nios2-elf/lib\libc.a(lib_a-vfprintf.o)
 *fill*         0x0081c5ea        0x2 00
 .rodata.str1.4
                0x0081c5ec       0x10 c:/altera/12.1sp1/nios2eds/bin/gnu/h-i686-mingw32/bin/../lib/gcc/nios2-elf/4.1.2/../../../../nios2-elf/lib\libc.a(lib_a-dtoa.o)
                                 0x14 (size before relaxing)
 .rodata.str1.4
                0x0081c5fc       0x10 c:/altera/12.1sp1/nios2eds/bin/gnu/h-i686-mingw32/bin/../lib/gcc/nios2-elf/4.1.2/../../../../nios2-elf/lib\libc.a(lib_a-locale.o)
                                 0x18 (size before relaxing)
 .rodata        0x0081c60c       0x30 c:/altera/12.1sp1/nios2eds/bin/gnu/h-i686-mingw32/bin/../lib/gcc/nios2-elf/4.1.2/../../../../nios2-elf/lib\libc.a(lib_a-locale.o)
 .rodata        0x0081c63c      0x124 c:/altera/12.1sp1/nios2eds/bin/gnu/h-i686-mingw32/bin/../lib/gcc/nios2-elf/4.1.2/../../../../nios2-elf/lib\libc.a(lib_a-mprec.o)
                0x0081c63c                __mprec_tens
                0x0081c704                __mprec_bigtens
                0x0081c72c                __mprec_tinytens
 .rodata        0x0081c760        0xc C:/Users/jchang3/Documents/ECE492/test/software/accelerometer_pen50s_bsp/\libucosii_bsp.a(alt_dev.o)
 .rodata        0x0081c76c       0x14 C:/Users/jchang3/Documents/ECE492/test/software/accelerometer_pen50s_bsp/\libucosii_bsp.a(alt_main.o)
 .rodata        0x0081c780      0x120 C:/Users/jchang3/Documents/ECE492/test/software/accelerometer_pen50s_bsp/\libucosii_bsp.a(os_core.o)
                0x0081c780                OSUnMapTbl
 .rodata        0x0081c8a0       0x68 C:/Users/jchang3/Documents/ECE492/test/software/accelerometer_pen50s_bsp/\libucosii_bsp.a(alt_sys_init.o)
 .rodata        0x0081c908        0x4 C:/Users/jchang3/Documents/ECE492/test/software/accelerometer_pen50s_bsp/\libucosii_bsp.a(os_cpu_c.o)
 *(.rodata1)
                0x0081c90c                . = ALIGN (0x4)
                0x0081c90c                PROVIDE (__ram_rodata_end, ABSOLUTE (.))
                0x0081bf94                PROVIDE (__flash_rodata_start, LOADADDR (.rodata))

.rwdata         0x0081c90c     0x1b6c load address 0x0081e478
                0x0081c90c                PROVIDE (__ram_rwdata_start, ABSOLUTE (.))
                0x0081c90c                . = ALIGN (0x4)
 *(.got.plt)
 *(.got)
 *(.data1)
 *(.data .data.* .gnu.linkonce.d.*)
 .data          0x0081c90c        0x0 C:/Users/jchang3/Documents/ECE492/test/software/accelerometer_pen50s_bsp//obj/HAL/src/crt0.o
 .data          0x0081c90c        0x0 obj/default/dtw.o
 .data          0x0081c90c        0x0 obj/default/hello_ucosii.o
 .data          0x0081c90c        0x0 c:/altera/12.1sp1/nios2eds/bin/gnu/h-i686-mingw32/bin/../lib/gcc/nios2-elf/4.1.2/../../../../nios2-elf/lib\libm.a(lib_a-w_sqrt.o)
 .data          0x0081c90c        0x0 c:/altera/12.1sp1/nios2eds/bin/gnu/h-i686-mingw32/bin/../lib/gcc/nios2-elf/4.1.2/../../../../nios2-elf/lib\libm.a(lib_a-e_sqrt.o)
 .data          0x0081c90c        0x0 c:/altera/12.1sp1/nios2eds/bin/gnu/h-i686-mingw32/bin/../lib/gcc/nios2-elf/4.1.2/../../../../nios2-elf/lib\libm.a(lib_a-s_isnand.o)
 .data          0x0081c90c        0x0 c:/altera/12.1sp1/nios2eds/bin/gnu/h-i686-mingw32/bin/../lib/gcc/nios2-elf/4.1.2/../../../../nios2-elf/lib\libm.a(lib_a-s_lib_ver.o)
 .data          0x0081c90c        0x0 c:/altera/12.1sp1/nios2eds/bin/gnu/h-i686-mingw32/bin/../lib/gcc/nios2-elf/4.1.2/../../../../nios2-elf/lib\libm.a(lib_a-s_matherr.o)
 .data          0x0081c90c        0x0 c:/altera/12.1sp1/nios2eds/bin/gnu/h-i686-mingw32/bin/../lib/gcc/nios2-elf/4.1.2\libgcc.a(_muldi3.o)
 .data          0x0081c90c        0x0 c:/altera/12.1sp1/nios2eds/bin/gnu/h-i686-mingw32/bin/../lib/gcc/nios2-elf/4.1.2\libgcc.a(_fixdfdi.o)
 .data          0x0081c90c        0x0 c:/altera/12.1sp1/nios2eds/bin/gnu/h-i686-mingw32/bin/../lib/gcc/nios2-elf/4.1.2\libgcc.a(_fixunsdfdi.o)
 .data          0x0081c90c        0x0 c:/altera/12.1sp1/nios2eds/bin/gnu/h-i686-mingw32/bin/../lib/gcc/nios2-elf/4.1.2\libgcc.a(_floatdidf.o)
 .data          0x0081c90c        0x0 c:/altera/12.1sp1/nios2eds/bin/gnu/h-i686-mingw32/bin/../lib/gcc/nios2-elf/4.1.2\libgcc.a(_addsub_df.o)
 .data          0x0081c90c        0x0 c:/altera/12.1sp1/nios2eds/bin/gnu/h-i686-mingw32/bin/../lib/gcc/nios2-elf/4.1.2\libgcc.a(_mul_df.o)
 .data          0x0081c90c        0x0 c:/altera/12.1sp1/nios2eds/bin/gnu/h-i686-mingw32/bin/../lib/gcc/nios2-elf/4.1.2\libgcc.a(_div_df.o)
 .data          0x0081c90c        0x0 c:/altera/12.1sp1/nios2eds/bin/gnu/h-i686-mingw32/bin/../lib/gcc/nios2-elf/4.1.2\libgcc.a(_lt_df.o)
 .data          0x0081c90c        0x0 c:/altera/12.1sp1/nios2eds/bin/gnu/h-i686-mingw32/bin/../lib/gcc/nios2-elf/4.1.2\libgcc.a(_si_to_df.o)
 .data          0x0081c90c        0x0 c:/altera/12.1sp1/nios2eds/bin/gnu/h-i686-mingw32/bin/../lib/gcc/nios2-elf/4.1.2\libgcc.a(_df_to_si.o)
 .data          0x0081c90c        0x0 c:/altera/12.1sp1/nios2eds/bin/gnu/h-i686-mingw32/bin/../lib/gcc/nios2-elf/4.1.2\libgcc.a(_thenan_df.o)
 .data          0x0081c90c        0x0 c:/altera/12.1sp1/nios2eds/bin/gnu/h-i686-mingw32/bin/../lib/gcc/nios2-elf/4.1.2\libgcc.a(_usi_to_df.o)
 .data          0x0081c90c        0x0 c:/altera/12.1sp1/nios2eds/bin/gnu/h-i686-mingw32/bin/../lib/gcc/nios2-elf/4.1.2\libgcc.a(_clzsi2.o)
 .data          0x0081c90c        0x0 c:/altera/12.1sp1/nios2eds/bin/gnu/h-i686-mingw32/bin/../lib/gcc/nios2-elf/4.1.2\libgcc.a(_fixunsdfsi.o)
 .data          0x0081c90c        0x0 c:/altera/12.1sp1/nios2eds/bin/gnu/h-i686-mingw32/bin/../lib/gcc/nios2-elf/4.1.2\libgcc.a(_pack_df.o)
 .data          0x0081c90c        0x0 c:/altera/12.1sp1/nios2eds/bin/gnu/h-i686-mingw32/bin/../lib/gcc/nios2-elf/4.1.2\libgcc.a(_unpack_df.o)
 .data          0x0081c90c        0x0 c:/altera/12.1sp1/nios2eds/bin/gnu/h-i686-mingw32/bin/../lib/gcc/nios2-elf/4.1.2\libgcc.a(_fpcmp_parts_df.o)
 .data          0x0081c90c        0x0 c:/altera/12.1sp1/nios2eds/bin/gnu/h-i686-mingw32/bin/../lib/gcc/nios2-elf/4.1.2\libgcc.a(_ge_df.o)
 .data          0x0081c90c        0x0 c:/altera/12.1sp1/nios2eds/bin/gnu/h-i686-mingw32/bin/../lib/gcc/nios2-elf/4.1.2\libgcc.a(_clz.o)
 .data          0x0081c90c        0x0 c:/altera/12.1sp1/nios2eds/bin/gnu/h-i686-mingw32/bin/../lib/gcc/nios2-elf/4.1.2/../../../../nios2-elf/lib\libc.a(lib_a-errno.o)
 .data          0x0081c90c      0x400 c:/altera/12.1sp1/nios2eds/bin/gnu/h-i686-mingw32/bin/../lib/gcc/nios2-elf/4.1.2/../../../../nios2-elf/lib\libc.a(lib_a-impure.o)
 .data          0x0081cd0c        0x0 c:/altera/12.1sp1/nios2eds/bin/gnu/h-i686-mingw32/bin/../lib/gcc/nios2-elf/4.1.2/../../../../nios2-elf/lib\libc.a(lib_a-printf.o)
 .data          0x0081cd0c        0x0 c:/altera/12.1sp1/nios2eds/bin/gnu/h-i686-mingw32/bin/../lib/gcc/nios2-elf/4.1.2/../../../../nios2-elf/lib\libc.a(lib_a-puts.o)
 .data          0x0081cd0c        0x0 c:/altera/12.1sp1/nios2eds/bin/gnu/h-i686-mingw32/bin/../lib/gcc/nios2-elf/4.1.2/../../../../nios2-elf/lib\libc.a(lib_a-strlen.o)
 .data          0x0081cd0c        0x0 c:/altera/12.1sp1/nios2eds/bin/gnu/h-i686-mingw32/bin/../lib/gcc/nios2-elf/4.1.2/../../../../nios2-elf/lib\libc.a(lib_a-vfprintf.o)
 .data          0x0081cd0c        0x0 c:/altera/12.1sp1/nios2eds/bin/gnu/h-i686-mingw32/bin/../lib/gcc/nios2-elf/4.1.2/../../../../nios2-elf/lib\libc.a(lib_a-wsetup.o)
 .data          0x0081cd0c        0x0 c:/altera/12.1sp1/nios2eds/bin/gnu/h-i686-mingw32/bin/../lib/gcc/nios2-elf/4.1.2/../../../../nios2-elf/lib\libc.a(lib_a-dtoa.o)
 .data          0x0081cd0c        0x0 c:/altera/12.1sp1/nios2eds/bin/gnu/h-i686-mingw32/bin/../lib/gcc/nios2-elf/4.1.2/../../../../nios2-elf/lib\libc.a(lib_a-fflush.o)
 .data          0x0081cd0c        0x0 c:/altera/12.1sp1/nios2eds/bin/gnu/h-i686-mingw32/bin/../lib/gcc/nios2-elf/4.1.2/../../../../nios2-elf/lib\libc.a(lib_a-findfp.o)
 .data          0x0081cd0c        0x0 c:/altera/12.1sp1/nios2eds/bin/gnu/h-i686-mingw32/bin/../lib/gcc/nios2-elf/4.1.2/../../../../nios2-elf/lib\libc.a(lib_a-freer.o)
 .data          0x0081cd0c        0x0 c:/altera/12.1sp1/nios2eds/bin/gnu/h-i686-mingw32/bin/../lib/gcc/nios2-elf/4.1.2/../../../../nios2-elf/lib\libc.a(lib_a-fvwrite.o)
 .data          0x0081cd0c        0x0 c:/altera/12.1sp1/nios2eds/bin/gnu/h-i686-mingw32/bin/../lib/gcc/nios2-elf/4.1.2/../../../../nios2-elf/lib\libc.a(lib_a-fwalk.o)
 .data          0x0081cd0c        0xc c:/altera/12.1sp1/nios2eds/bin/gnu/h-i686-mingw32/bin/../lib/gcc/nios2-elf/4.1.2/../../../../nios2-elf/lib\libc.a(lib_a-locale.o)
                0x0081cd0c                __lc_ctype
 .data          0x0081cd18        0x0 c:/altera/12.1sp1/nios2eds/bin/gnu/h-i686-mingw32/bin/../lib/gcc/nios2-elf/4.1.2/../../../../nios2-elf/lib\libc.a(lib_a-makebuf.o)
 .data          0x0081cd18      0x408 c:/altera/12.1sp1/nios2eds/bin/gnu/h-i686-mingw32/bin/../lib/gcc/nios2-elf/4.1.2/../../../../nios2-elf/lib\libc.a(lib_a-mallocr.o)
                0x0081cd18                __malloc_av_
 .data          0x0081d120        0x0 c:/altera/12.1sp1/nios2eds/bin/gnu/h-i686-mingw32/bin/../lib/gcc/nios2-elf/4.1.2/../../../../nios2-elf/lib\libc.a(lib_a-memchr.o)
 .data          0x0081d120        0x0 c:/altera/12.1sp1/nios2eds/bin/gnu/h-i686-mingw32/bin/../lib/gcc/nios2-elf/4.1.2/../../../../nios2-elf/lib\libc.a(lib_a-memcpy.o)
 .data          0x0081d120        0x0 c:/altera/12.1sp1/nios2eds/bin/gnu/h-i686-mingw32/bin/../lib/gcc/nios2-elf/4.1.2/../../../../nios2-elf/lib\libc.a(lib_a-memmove.o)
 .data          0x0081d120        0x0 c:/altera/12.1sp1/nios2eds/bin/gnu/h-i686-mingw32/bin/../lib/gcc/nios2-elf/4.1.2/../../../../nios2-elf/lib\libc.a(lib_a-memset.o)
 .data          0x0081d120        0x0 c:/altera/12.1sp1/nios2eds/bin/gnu/h-i686-mingw32/bin/../lib/gcc/nios2-elf/4.1.2/../../../../nios2-elf/lib\libc.a(lib_a-mprec.o)
 .data          0x0081d120        0x0 c:/altera/12.1sp1/nios2eds/bin/gnu/h-i686-mingw32/bin/../lib/gcc/nios2-elf/4.1.2/../../../../nios2-elf/lib\libc.a(lib_a-reallocr.o)
 .data          0x0081d120        0x0 c:/altera/12.1sp1/nios2eds/bin/gnu/h-i686-mingw32/bin/../lib/gcc/nios2-elf/4.1.2/../../../../nios2-elf/lib\libc.a(lib_a-s_isinfd.o)
 .data          0x0081d120        0x0 c:/altera/12.1sp1/nios2eds/bin/gnu/h-i686-mingw32/bin/../lib/gcc/nios2-elf/4.1.2/../../../../nios2-elf/lib\libc.a(lib_a-sbrkr.o)
 .data          0x0081d120        0x0 c:/altera/12.1sp1/nios2eds/bin/gnu/h-i686-mingw32/bin/../lib/gcc/nios2-elf/4.1.2/../../../../nios2-elf/lib\libc.a(lib_a-stdio.o)
 .data          0x0081d120        0x0 c:/altera/12.1sp1/nios2eds/bin/gnu/h-i686-mingw32/bin/../lib/gcc/nios2-elf/4.1.2/../../../../nios2-elf/lib\libc.a(lib_a-strcmp.o)
 .data          0x0081d120        0x0 c:/altera/12.1sp1/nios2eds/bin/gnu/h-i686-mingw32/bin/../lib/gcc/nios2-elf/4.1.2/../../../../nios2-elf/lib\libc.a(lib_a-writer.o)
 .data          0x0081d120        0x0 c:/altera/12.1sp1/nios2eds/bin/gnu/h-i686-mingw32/bin/../lib/gcc/nios2-elf/4.1.2/../../../../nios2-elf/lib\libc.a(lib_a-callocr.o)
 .data          0x0081d120        0x0 c:/altera/12.1sp1/nios2eds/bin/gnu/h-i686-mingw32/bin/../lib/gcc/nios2-elf/4.1.2/../../../../nios2-elf/lib\libc.a(lib_a-closer.o)
 .data          0x0081d120        0x0 c:/altera/12.1sp1/nios2eds/bin/gnu/h-i686-mingw32/bin/../lib/gcc/nios2-elf/4.1.2/../../../../nios2-elf/lib\libc.a(lib_a-fclose.o)
 .data          0x0081d120        0x0 c:/altera/12.1sp1/nios2eds/bin/gnu/h-i686-mingw32/bin/../lib/gcc/nios2-elf/4.1.2/../../../../nios2-elf/lib\libc.a(lib_a-fstatr.o)
 .data          0x0081d120        0x0 c:/altera/12.1sp1/nios2eds/bin/gnu/h-i686-mingw32/bin/../lib/gcc/nios2-elf/4.1.2/../../../../nios2-elf/lib\libc.a(lib_a-int_errno.o)
 .data          0x0081d120        0x0 c:/altera/12.1sp1/nios2eds/bin/gnu/h-i686-mingw32/bin/../lib/gcc/nios2-elf/4.1.2/../../../../nios2-elf/lib\libc.a(lib_a-isattyr.o)
 .data          0x0081d120        0x0 c:/altera/12.1sp1/nios2eds/bin/gnu/h-i686-mingw32/bin/../lib/gcc/nios2-elf/4.1.2/../../../../nios2-elf/lib\libc.a(lib_a-lseekr.o)
 .data          0x0081d120        0x0 c:/altera/12.1sp1/nios2eds/bin/gnu/h-i686-mingw32/bin/../lib/gcc/nios2-elf/4.1.2/../../../../nios2-elf/lib\libc.a(lib_a-readr.o)
 .data          0x0081d120        0x0 c:/altera/12.1sp1/nios2eds/bin/gnu/h-i686-mingw32/bin/../lib/gcc/nios2-elf/4.1.2\libgcc.a(_udivdi3.o)
 .data          0x0081d120        0x0 c:/altera/12.1sp1/nios2eds/bin/gnu/h-i686-mingw32/bin/../lib/gcc/nios2-elf/4.1.2\libgcc.a(_umoddi3.o)
 .data          0x0081d120        0x0 c:/altera/12.1sp1/nios2eds/bin/gnu/h-i686-mingw32/bin/../lib/gcc/nios2-elf/4.1.2\libgcc.a(_eq_df.o)
 .data          0x0081d120        0x0 c:/altera/12.1sp1/nios2eds/bin/gnu/h-i686-mingw32/bin/../lib/gcc/nios2-elf/4.1.2\libgcc.a(_ne_df.o)
 .data          0x0081d120        0x0 c:/altera/12.1sp1/nios2eds/bin/gnu/h-i686-mingw32/bin/../lib/gcc/nios2-elf/4.1.2\libgcc.a(_gt_df.o)
 .data          0x0081d120        0x0 c:/altera/12.1sp1/nios2eds/bin/gnu/h-i686-mingw32/bin/../lib/gcc/nios2-elf/4.1.2\libgcc.a(lib2-divmod.o)
 .data          0x0081d120        0x0 C:/Users/jchang3/Documents/ECE492/test/software/accelerometer_pen50s_bsp/\libucosii_bsp.a(alt_close.o)
 .data          0x0081d120      0x1a8 C:/Users/jchang3/Documents/ECE492/test/software/accelerometer_pen50s_bsp/\libucosii_bsp.a(alt_dev.o)
                0x0081d120                alt_dev_null
                0x0081d148                alt_fd_list
 .data          0x0081d2c8        0x0 C:/Users/jchang3/Documents/ECE492/test/software/accelerometer_pen50s_bsp/\libucosii_bsp.a(alt_errno.o)
 .data          0x0081d2c8        0x0 C:/Users/jchang3/Documents/ECE492/test/software/accelerometer_pen50s_bsp/\libucosii_bsp.a(alt_fstat.o)
 .data          0x0081d2c8        0x0 C:/Users/jchang3/Documents/ECE492/test/software/accelerometer_pen50s_bsp/\libucosii_bsp.a(alt_isatty.o)
 .data          0x0081d2c8        0x0 C:/Users/jchang3/Documents/ECE492/test/software/accelerometer_pen50s_bsp/\libucosii_bsp.a(alt_load.o)
 .data          0x0081d2c8        0x0 C:/Users/jchang3/Documents/ECE492/test/software/accelerometer_pen50s_bsp/\libucosii_bsp.a(alt_lseek.o)
 .data          0x0081d2c8        0x0 C:/Users/jchang3/Documents/ECE492/test/software/accelerometer_pen50s_bsp/\libucosii_bsp.a(alt_main.o)
 .data          0x0081d2c8        0x0 C:/Users/jchang3/Documents/ECE492/test/software/accelerometer_pen50s_bsp/\libucosii_bsp.a(alt_read.o)
 .data          0x0081d2c8        0x0 C:/Users/jchang3/Documents/ECE492/test/software/accelerometer_pen50s_bsp/\libucosii_bsp.a(alt_release_fd.o)
 .data          0x0081d2c8        0x0 C:/Users/jchang3/Documents/ECE492/test/software/accelerometer_pen50s_bsp/\libucosii_bsp.a(alt_sbrk.o)
 .data          0x0081d2c8        0x0 C:/Users/jchang3/Documents/ECE492/test/software/accelerometer_pen50s_bsp/\libucosii_bsp.a(alt_write.o)
 .data          0x0081d2c8        0x0 C:/Users/jchang3/Documents/ECE492/test/software/accelerometer_pen50s_bsp/\libucosii_bsp.a(alt_env_lock.o)
 .data          0x0081d2c8        0x0 C:/Users/jchang3/Documents/ECE492/test/software/accelerometer_pen50s_bsp/\libucosii_bsp.a(alt_malloc_lock.o)
 .data          0x0081d2c8        0x0 C:/Users/jchang3/Documents/ECE492/test/software/accelerometer_pen50s_bsp/\libucosii_bsp.a(os_core.o)
 .data          0x0081d2c8        0x0 C:/Users/jchang3/Documents/ECE492/test/software/accelerometer_pen50s_bsp/\libucosii_bsp.a(os_dbg.o)
 .data          0x0081d2c8        0x0 C:/Users/jchang3/Documents/ECE492/test/software/accelerometer_pen50s_bsp/\libucosii_bsp.a(os_flag.o)
 .data          0x0081d2c8        0x0 C:/Users/jchang3/Documents/ECE492/test/software/accelerometer_pen50s_bsp/\libucosii_bsp.a(os_mem.o)
 .data          0x0081d2c8        0x0 C:/Users/jchang3/Documents/ECE492/test/software/accelerometer_pen50s_bsp/\libucosii_bsp.a(os_q.o)
 .data          0x0081d2c8        0x0 C:/Users/jchang3/Documents/ECE492/test/software/accelerometer_pen50s_bsp/\libucosii_bsp.a(os_sem.o)
 .data          0x0081d2c8        0x0 C:/Users/jchang3/Documents/ECE492/test/software/accelerometer_pen50s_bsp/\libucosii_bsp.a(os_task.o)
 .data          0x0081d2c8        0x0 C:/Users/jchang3/Documents/ECE492/test/software/accelerometer_pen50s_bsp/\libucosii_bsp.a(os_time.o)
 .data          0x0081d2c8     0x10f0 C:/Users/jchang3/Documents/ECE492/test/software/accelerometer_pen50s_bsp/\libucosii_bsp.a(alt_sys_init.o)
 .data          0x0081e3b8        0x0 C:/Users/jchang3/Documents/ECE492/test/software/accelerometer_pen50s_bsp/\libucosii_bsp.a(altera_avalon_jtag_uart_fd.o)
 .data          0x0081e3b8        0x0 C:/Users/jchang3/Documents/ECE492/test/software/accelerometer_pen50s_bsp/\libucosii_bsp.a(altera_avalon_jtag_uart_init.o)
 .data          0x0081e3b8        0x0 C:/Users/jchang3/Documents/ECE492/test/software/accelerometer_pen50s_bsp/\libucosii_bsp.a(altera_avalon_jtag_uart_ioctl.o)
 .data          0x0081e3b8        0x0 C:/Users/jchang3/Documents/ECE492/test/software/accelerometer_pen50s_bsp/\libucosii_bsp.a(altera_avalon_jtag_uart_read.o)
 .data          0x0081e3b8        0x0 C:/Users/jchang3/Documents/ECE492/test/software/accelerometer_pen50s_bsp/\libucosii_bsp.a(altera_avalon_jtag_uart_write.o)
 .data          0x0081e3b8        0x0 C:/Users/jchang3/Documents/ECE492/test/software/accelerometer_pen50s_bsp/\libucosii_bsp.a(altera_avalon_timer_sc.o)
 .data          0x0081e3b8        0x0 C:/Users/jchang3/Documents/ECE492/test/software/accelerometer_pen50s_bsp/\libucosii_bsp.a(altera_up_avalon_character_lcd.o)
 .data          0x0081e3b8        0x0 C:/Users/jchang3/Documents/ECE492/test/software/accelerometer_pen50s_bsp/\libucosii_bsp.a(altera_up_avalon_rs232.o)
 .data          0x0081e3b8        0x0 C:/Users/jchang3/Documents/ECE492/test/software/accelerometer_pen50s_bsp/\libucosii_bsp.a(altera_up_sd_card_avalon_interface.o)
 .data          0x0081e3b8        0x0 C:/Users/jchang3/Documents/ECE492/test/software/accelerometer_pen50s_bsp/\libucosii_bsp.a(alt_alarm_start.o)
 .data          0x0081e3b8        0x0 C:/Users/jchang3/Documents/ECE492/test/software/accelerometer_pen50s_bsp/\libucosii_bsp.a(alt_dcache_flush_all.o)
 .data          0x0081e3b8        0x0 C:/Users/jchang3/Documents/ECE492/test/software/accelerometer_pen50s_bsp/\libucosii_bsp.a(alt_dev_llist_insert.o)
 .data          0x0081e3b8        0x0 C:/Users/jchang3/Documents/ECE492/test/software/accelerometer_pen50s_bsp/\libucosii_bsp.a(alt_do_ctors.o)
 .data          0x0081e3b8        0x0 C:/Users/jchang3/Documents/ECE492/test/software/accelerometer_pen50s_bsp/\libucosii_bsp.a(alt_do_dtors.o)
 .data          0x0081e3b8        0x0 C:/Users/jchang3/Documents/ECE492/test/software/accelerometer_pen50s_bsp/\libucosii_bsp.a(alt_find_dev.o)
 .data          0x0081e3b8        0x0 C:/Users/jchang3/Documents/ECE492/test/software/accelerometer_pen50s_bsp/\libucosii_bsp.a(alt_icache_flush_all.o)
 .data          0x0081e3b8        0x0 C:/Users/jchang3/Documents/ECE492/test/software/accelerometer_pen50s_bsp/\libucosii_bsp.a(alt_io_redirect.o)
 .data          0x0081e3b8        0x0 C:/Users/jchang3/Documents/ECE492/test/software/accelerometer_pen50s_bsp/\libucosii_bsp.a(alt_irq_register.o)
 .data          0x0081e3b8        0x0 C:/Users/jchang3/Documents/ECE492/test/software/accelerometer_pen50s_bsp/\libucosii_bsp.a(alt_irq_vars.o)
 .data          0x0081e3b8        0x0 C:/Users/jchang3/Documents/ECE492/test/software/accelerometer_pen50s_bsp/\libucosii_bsp.a(alt_open.o)
 .data          0x0081e3b8        0x0 C:/Users/jchang3/Documents/ECE492/test/software/accelerometer_pen50s_bsp/\libucosii_bsp.a(alt_tick.o)
 .data          0x0081e3b8        0x0 C:/Users/jchang3/Documents/ECE492/test/software/accelerometer_pen50s_bsp/\libucosii_bsp.a(altera_nios2_qsys_irq.o)
 .data          0x0081e3b8        0x0 C:/Users/jchang3/Documents/ECE492/test/software/accelerometer_pen50s_bsp/\libucosii_bsp.a(os_cpu_a.o)
 .data          0x0081e3b8        0x0 C:/Users/jchang3/Documents/ECE492/test/software/accelerometer_pen50s_bsp/\libucosii_bsp.a(os_cpu_c.o)
 .data          0x0081e3b8        0x0 C:/Users/jchang3/Documents/ECE492/test/software/accelerometer_pen50s_bsp/\libucosii_bsp.a(alt_find_file.o)
 .data          0x0081e3b8        0x0 C:/Users/jchang3/Documents/ECE492/test/software/accelerometer_pen50s_bsp/\libucosii_bsp.a(alt_get_fd.o)
 .data          0x0081e3b8        0x0 C:/Users/jchang3/Documents/ECE492/test/software/accelerometer_pen50s_bsp/\libucosii_bsp.a(alt_icache_flush.o)
 .data          0x0081e3b8        0x0 C:/Users/jchang3/Documents/ECE492/test/software/accelerometer_pen50s_bsp/\libucosii_bsp.a(alt_irq_entry.o)
 .data          0x0081e3b8        0x0 C:/Users/jchang3/Documents/ECE492/test/software/accelerometer_pen50s_bsp/\libucosii_bsp.a(alt_irq_handler.o)
 .data          0x0081e3b8        0x0 C:/Users/jchang3/Documents/ECE492/test/software/accelerometer_pen50s_bsp/\libucosii_bsp.a(alt_exception_entry.o)
 .data          0x0081e3b8        0x0 c:/altera/12.1sp1/nios2eds/bin/gnu/h-i686-mingw32/bin/../lib/gcc/nios2-elf/4.1.2/../../../../nios2-elf/lib\libc.a(lib_a-atexit.o)
 .data          0x0081e3b8        0x0 c:/altera/12.1sp1/nios2eds/bin/gnu/h-i686-mingw32/bin/../lib/gcc/nios2-elf/4.1.2/../../../../nios2-elf/lib\libc.a(lib_a-exit.o)
 .data          0x0081e3b8        0x0 c:/altera/12.1sp1/nios2eds/bin/gnu/h-i686-mingw32/bin/../lib/gcc/nios2-elf/4.1.2/../../../../nios2-elf/lib\libc.a(lib_a-memcmp.o)
 .data          0x0081e3b8        0x0 c:/altera/12.1sp1/nios2eds/bin/gnu/h-i686-mingw32/bin/../lib/gcc/nios2-elf/4.1.2/../../../../nios2-elf/lib\libc.a(lib_a-__atexit.o)
 .data          0x0081e3b8        0x0 c:/altera/12.1sp1/nios2eds/bin/gnu/h-i686-mingw32/bin/../lib/gcc/nios2-elf/4.1.2/../../../../nios2-elf/lib\libc.a(lib_a-__call_atexit.o)
 .data          0x0081e3b8        0x0 C:/Users/jchang3/Documents/ECE492/test/software/accelerometer_pen50s_bsp/\libucosii_bsp.a(alt_exit.o)
                0x008263b8                _gp = ABSOLUTE ((. + 0x8000))
                0x008263b8                PROVIDE (gp, _gp)
 *(.rwdata .rwdata.*)
 *(.sdata .sdata.* .gnu.linkonce.s.*)
 .sdata         0x0081e3b8        0x4 c:/altera/12.1sp1/nios2eds/bin/gnu/h-i686-mingw32/bin/../lib/gcc/nios2-elf/4.1.2/../../../../nios2-elf/lib\libm.a(lib_a-s_lib_ver.o)
                0x0081e3b8                __fdlib_version
 .sdata         0x0081e3bc        0x8 c:/altera/12.1sp1/nios2eds/bin/gnu/h-i686-mingw32/bin/../lib/gcc/nios2-elf/4.1.2/../../../../nios2-elf/lib\libc.a(lib_a-impure.o)
                0x0081e3bc                _impure_ptr
                0x0081e3c0                _global_impure_ptr
 .sdata         0x0081e3c4        0x8 c:/altera/12.1sp1/nios2eds/bin/gnu/h-i686-mingw32/bin/../lib/gcc/nios2-elf/4.1.2/../../../../nios2-elf/lib\libc.a(lib_a-locale.o)
                0x0081e3c4                __mb_cur_max
 .sdata         0x0081e3cc        0x8 c:/altera/12.1sp1/nios2eds/bin/gnu/h-i686-mingw32/bin/../lib/gcc/nios2-elf/4.1.2/../../../../nios2-elf/lib\libc.a(lib_a-mallocr.o)
                0x0081e3cc                __malloc_trim_threshold
                0x0081e3d0                __malloc_sbrk_base
 .sdata         0x0081e3d4       0x14 C:/Users/jchang3/Documents/ECE492/test/software/accelerometer_pen50s_bsp/\libucosii_bsp.a(alt_dev.o)
                0x0081e3d4                alt_fs_list
                0x0081e3dc                alt_dev_list
                0x0081e3e4                alt_max_fd
 .sdata         0x0081e3e8        0x4 C:/Users/jchang3/Documents/ECE492/test/software/accelerometer_pen50s_bsp/\libucosii_bsp.a(alt_errno.o)
                0x0081e3e8                alt_errno
 .sdata         0x0081e3ec        0x4 C:/Users/jchang3/Documents/ECE492/test/software/accelerometer_pen50s_bsp/\libucosii_bsp.a(alt_sbrk.o)
 .sdata         0x0081e3f0        0x4 C:/Users/jchang3/Documents/ECE492/test/software/accelerometer_pen50s_bsp/\libucosii_bsp.a(alt_env_lock.o)
 .sdata         0x0081e3f4        0x4 C:/Users/jchang3/Documents/ECE492/test/software/accelerometer_pen50s_bsp/\libucosii_bsp.a(alt_malloc_lock.o)
 .sdata         0x0081e3f8       0x74 C:/Users/jchang3/Documents/ECE492/test/software/accelerometer_pen50s_bsp/\libucosii_bsp.a(os_dbg.o)
                0x0081e3f8                OSDebugEn
                0x0081e3fc                OSEndiannessTest
                0x0081e400                OSEventEn
                0x0081e402                OSEventMax
                0x0081e404                OSEventNameSize
                0x0081e406                OSEventSize
                0x0081e408                OSEventTblSize
                0x0081e40a                OSEventMultiEn
                0x0081e40c                OSFlagEn
                0x0081e40e                OSFlagGrpSize
                0x0081e410                OSFlagNodeSize
                0x0081e412                OSFlagWidth
                0x0081e414                OSFlagMax
                0x0081e416                OSFlagNameSize
                0x0081e418                OSLowestPrio
                0x0081e41a                OSMboxEn
                0x0081e41c                OSMemEn
                0x0081e41e                OSMemMax
                0x0081e420                OSMemNameSize
                0x0081e422                OSMemSize
                0x0081e424                OSMemTblSize
                0x0081e426                OSMutexEn
                0x0081e428                OSPtrSize
                0x0081e42a                OSQEn
                0x0081e42c                OSQMax
                0x0081e42e                OSQSize
                0x0081e430                OSRdyTblSize
                0x0081e432                OSSemEn
                0x0081e434                OSStkWidth
                0x0081e436                OSTaskCreateEn
                0x0081e438                OSTaskCreateExtEn
                0x0081e43a                OSTaskDelEn
                0x0081e43c                OSTaskIdleStkSize
                0x0081e43e                OSTaskProfileEn
                0x0081e440                OSTaskMax
                0x0081e442                OSTaskNameSize
                0x0081e444                OSTaskStatEn
                0x0081e446                OSTaskStatStkSize
                0x0081e448                OSTaskStatStkChkEn
                0x0081e44a                OSTaskSwHookEn
                0x0081e44c                OSTCBPrioTblMax
                0x0081e44e                OSTCBSize
                0x0081e450                OSTicksPerSec
                0x0081e452                OSTimeTickHookEn
                0x0081e454                OSVersionNbr
                0x0081e456                OSTmrEn
                0x0081e458                OSTmrCfgMax
                0x0081e45a                OSTmrCfgNameSize
                0x0081e45c                OSTmrCfgWheelSize
                0x0081e45e                OSTmrCfgTicksPerSec
                0x0081e460                OSTmrSize
                0x0081e462                OSTmrTblSize
                0x0081e464                OSTmrWheelSize
                0x0081e466                OSTmrWheelTblSize
                0x0081e468                OSDataSize
 .sdata         0x0081e46c        0x4 C:/Users/jchang3/Documents/ECE492/test/software/accelerometer_pen50s_bsp/\libucosii_bsp.a(alt_irq_vars.o)
                0x0081e46c                alt_priority_mask
 .sdata         0x0081e470        0x8 C:/Users/jchang3/Documents/ECE492/test/software/accelerometer_pen50s_bsp/\libucosii_bsp.a(alt_tick.o)
                0x0081e470                alt_alarm_list
 *(.sdata2 .sdata2.* .gnu.linkonce.s2.*)
                0x0081e478                . = ALIGN (0x4)
                0x0081e478                _edata = ABSOLUTE (.)
                0x0081e478                PROVIDE (edata, ABSOLUTE (.))
                0x0081e478                PROVIDE (__ram_rwdata_end, ABSOLUTE (.))
                0x0081e478                PROVIDE (__flash_rwdata_start, LOADADDR (.rwdata))

.bss            0x0081ffe4    0x16530
                0x0081ffe4                __bss_start = ABSOLUTE (.)
                0x0081ffe4                PROVIDE (__sbss_start, ABSOLUTE (.))
                0x0081ffe4                PROVIDE (___sbss_start, ABSOLUTE (.))
 *(.dynsbss)
 *(.sbss .sbss.* .gnu.linkonce.sb.*)
 .sbss          0x0081ffe4       0x50 obj/default/hello_ucosii.o
                0x0081ffe4                t
                0x0081ffe8                template_number
                0x0081ffec                pCharacter
                0x0081fff0                dtw_semy
                0x0081fff4                dtwy
                0x0081fff8                semy
                0x0081fffc                readsem
                0x00820000                loadsdcardsem
                0x00820004                writesem
                0x00820008                configuresem
                0x0082000c                uartsem
                0x00820010                message
                0x00820014                dtwx
                0x00820018                dtw_sem
                0x0082001c                dtw_semx
                0x00820020                loadsem
                0x00820024                err
                0x00820028                semx
                0x0082002c                modeselectsem
                0x00820030                SWQ
 .sbss          0x00820034        0xc c:/altera/12.1sp1/nios2eds/bin/gnu/h-i686-mingw32/bin/../lib/gcc/nios2-elf/4.1.2/../../../../nios2-elf/lib\libc.a(lib_a-locale.o)
                0x00820034                __nlocale_changed
                0x00820038                __mlocale_changed
                0x0082003c                _PathLocale
 .sbss          0x00820040        0xc c:/altera/12.1sp1/nios2eds/bin/gnu/h-i686-mingw32/bin/../lib/gcc/nios2-elf/4.1.2/../../../../nios2-elf/lib\libc.a(lib_a-mallocr.o)
                0x00820040                __malloc_top_pad
                0x00820044                __malloc_max_sbrked_mem
                0x00820048                __malloc_max_total_mem
 .sbss          0x0082004c        0x4 c:/altera/12.1sp1/nios2eds/bin/gnu/h-i686-mingw32/bin/../lib/gcc/nios2-elf/4.1.2/../../../../nios2-elf/lib\libc.a(lib_a-int_errno.o)
                0x0082004c                errno
 .sbss          0x00820050        0x4 C:/Users/jchang3/Documents/ECE492/test/software/accelerometer_pen50s_bsp/\libucosii_bsp.a(alt_dev.o)
                0x00820050                alt_fd_list_lock
 .sbss          0x00820054        0xc C:/Users/jchang3/Documents/ECE492/test/software/accelerometer_pen50s_bsp/\libucosii_bsp.a(alt_main.o)
                0x00820054                alt_argc
                0x00820058                alt_argv
                0x0082005c                alt_envp
 .sbss          0x00820060        0x8 C:/Users/jchang3/Documents/ECE492/test/software/accelerometer_pen50s_bsp/\libucosii_bsp.a(alt_env_lock.o)
                0x00820064                alt_envsem
 .sbss          0x00820068        0x8 C:/Users/jchang3/Documents/ECE492/test/software/accelerometer_pen50s_bsp/\libucosii_bsp.a(alt_malloc_lock.o)
                0x0082006c                alt_heapsem
 .sbss          0x00820070       0x50 C:/Users/jchang3/Documents/ECE492/test/software/accelerometer_pen50s_bsp/\libucosii_bsp.a(os_core.o)
                0x00820070                OSLockNesting
                0x00820071                OSRunning
                0x00820074                OSIdleCtr
                0x00820078                OSPrioHighRdy
                0x00820079                OSPrioCur
                0x0082007c                OSTCBList
                0x00820080                OSTickStepState
                0x00820084                OSCtxSwCtr
                0x00820088                OSIdleCtrMax
                0x0082008c                OSTCBFreeList
                0x00820090                OSCPUUsage
                0x00820091                OSTaskCtr
                0x00820094                OSMemFreeList
                0x00820098                OSTCBHighRdy
                0x0082009c                OSQFreeList
                0x008200a0                OSRdyGrp
                0x008200a1                OSRdyTbl
                0x008200a4                OSEventFreeList
                0x008200a8                OSIntNesting
                0x008200ac                OSTCBCur
                0x008200b0                OSTime
                0x008200b4                OSFlagFreeList
                0x008200b8                OSStatRdy
                0x008200bc                OSIdleCtrRun
 .sbss          0x008200c0       0x34 C:/Users/jchang3/Documents/ECE492/test/software/accelerometer_pen50s_bsp/\libucosii_bsp.a(altera_up_sd_card_avalon_interface.o)
                0x008200c0                initialized
                0x008200c4                is_sd_card_formated_as_FAT16
                0x008200c8                aux_status_register
                0x008200cc                status_register
                0x008200d0                CSD_register_w0
                0x008200d4                command_register
                0x008200d8                command_argument_register
                0x008200dc                buffer_memory
                0x008200e0                fat_partition_offset_in_512_byte_sectors
                0x008200e4                fat_partition_size_in_512_byte_sectors
                0x008200e8                device_pointer
                0x008200ec                current_sector_modified
                0x008200f0                current_sector_index
 .sbss          0x008200f4        0x4 C:/Users/jchang3/Documents/ECE492/test/software/accelerometer_pen50s_bsp/\libucosii_bsp.a(alt_irq_vars.o)
                0x008200f4                alt_irq_active
 .sbss          0x008200f8        0x8 C:/Users/jchang3/Documents/ECE492/test/software/accelerometer_pen50s_bsp/\libucosii_bsp.a(alt_tick.o)
                0x008200f8                _alt_tick_rate
                0x008200fc                _alt_nticks
 *(.sbss2 .sbss2.* .gnu.linkonce.sb2.*)
 *(.scommon)
                0x00820100                PROVIDE (__sbss_end, ABSOLUTE (.))
                0x00820100                PROVIDE (___sbss_end, ABSOLUTE (.))
 *(.dynbss)
 *(.bss .bss.* .gnu.linkonce.b.*)
 .bss           0x00820100        0x0 C:/Users/jchang3/Documents/ECE492/test/software/accelerometer_pen50s_bsp//obj/HAL/src/crt0.o
 .bss           0x00820100        0x0 obj/default/dtw.o
 .bss           0x00820100        0x0 obj/default/hello_ucosii.o
 .bss           0x00820100        0x0 c:/altera/12.1sp1/nios2eds/bin/gnu/h-i686-mingw32/bin/../lib/gcc/nios2-elf/4.1.2/../../../../nios2-elf/lib\libm.a(lib_a-w_sqrt.o)
 .bss           0x00820100        0x0 c:/altera/12.1sp1/nios2eds/bin/gnu/h-i686-mingw32/bin/../lib/gcc/nios2-elf/4.1.2/../../../../nios2-elf/lib\libm.a(lib_a-e_sqrt.o)
 .bss           0x00820100        0x0 c:/altera/12.1sp1/nios2eds/bin/gnu/h-i686-mingw32/bin/../lib/gcc/nios2-elf/4.1.2/../../../../nios2-elf/lib\libm.a(lib_a-s_isnand.o)
 .bss           0x00820100        0x0 c:/altera/12.1sp1/nios2eds/bin/gnu/h-i686-mingw32/bin/../lib/gcc/nios2-elf/4.1.2/../../../../nios2-elf/lib\libm.a(lib_a-s_lib_ver.o)
 .bss           0x00820100        0x0 c:/altera/12.1sp1/nios2eds/bin/gnu/h-i686-mingw32/bin/../lib/gcc/nios2-elf/4.1.2/../../../../nios2-elf/lib\libm.a(lib_a-s_matherr.o)
 .bss           0x00820100        0x0 c:/altera/12.1sp1/nios2eds/bin/gnu/h-i686-mingw32/bin/../lib/gcc/nios2-elf/4.1.2\libgcc.a(_muldi3.o)
 .bss           0x00820100        0x0 c:/altera/12.1sp1/nios2eds/bin/gnu/h-i686-mingw32/bin/../lib/gcc/nios2-elf/4.1.2\libgcc.a(_fixdfdi.o)
 .bss           0x00820100        0x0 c:/altera/12.1sp1/nios2eds/bin/gnu/h-i686-mingw32/bin/../lib/gcc/nios2-elf/4.1.2\libgcc.a(_fixunsdfdi.o)
 .bss           0x00820100        0x0 c:/altera/12.1sp1/nios2eds/bin/gnu/h-i686-mingw32/bin/../lib/gcc/nios2-elf/4.1.2\libgcc.a(_floatdidf.o)
 .bss           0x00820100        0x0 c:/altera/12.1sp1/nios2eds/bin/gnu/h-i686-mingw32/bin/../lib/gcc/nios2-elf/4.1.2\libgcc.a(_addsub_df.o)
 .bss           0x00820100        0x0 c:/altera/12.1sp1/nios2eds/bin/gnu/h-i686-mingw32/bin/../lib/gcc/nios2-elf/4.1.2\libgcc.a(_mul_df.o)
 .bss           0x00820100        0x0 c:/altera/12.1sp1/nios2eds/bin/gnu/h-i686-mingw32/bin/../lib/gcc/nios2-elf/4.1.2\libgcc.a(_div_df.o)
 .bss           0x00820100        0x0 c:/altera/12.1sp1/nios2eds/bin/gnu/h-i686-mingw32/bin/../lib/gcc/nios2-elf/4.1.2\libgcc.a(_lt_df.o)
 .bss           0x00820100        0x0 c:/altera/12.1sp1/nios2eds/bin/gnu/h-i686-mingw32/bin/../lib/gcc/nios2-elf/4.1.2\libgcc.a(_si_to_df.o)
 .bss           0x00820100        0x0 c:/altera/12.1sp1/nios2eds/bin/gnu/h-i686-mingw32/bin/../lib/gcc/nios2-elf/4.1.2\libgcc.a(_df_to_si.o)
 .bss           0x00820100        0x0 c:/altera/12.1sp1/nios2eds/bin/gnu/h-i686-mingw32/bin/../lib/gcc/nios2-elf/4.1.2\libgcc.a(_thenan_df.o)
 .bss           0x00820100        0x0 c:/altera/12.1sp1/nios2eds/bin/gnu/h-i686-mingw32/bin/../lib/gcc/nios2-elf/4.1.2\libgcc.a(_usi_to_df.o)
 .bss           0x00820100        0x0 c:/altera/12.1sp1/nios2eds/bin/gnu/h-i686-mingw32/bin/../lib/gcc/nios2-elf/4.1.2\libgcc.a(_clzsi2.o)
 .bss           0x00820100        0x0 c:/altera/12.1sp1/nios2eds/bin/gnu/h-i686-mingw32/bin/../lib/gcc/nios2-elf/4.1.2\libgcc.a(_fixunsdfsi.o)
 .bss           0x00820100        0x0 c:/altera/12.1sp1/nios2eds/bin/gnu/h-i686-mingw32/bin/../lib/gcc/nios2-elf/4.1.2\libgcc.a(_pack_df.o)
 .bss           0x00820100        0x0 c:/altera/12.1sp1/nios2eds/bin/gnu/h-i686-mingw32/bin/../lib/gcc/nios2-elf/4.1.2\libgcc.a(_unpack_df.o)
 .bss           0x00820100        0x0 c:/altera/12.1sp1/nios2eds/bin/gnu/h-i686-mingw32/bin/../lib/gcc/nios2-elf/4.1.2\libgcc.a(_fpcmp_parts_df.o)
 .bss           0x00820100        0x0 c:/altera/12.1sp1/nios2eds/bin/gnu/h-i686-mingw32/bin/../lib/gcc/nios2-elf/4.1.2\libgcc.a(_ge_df.o)
 .bss           0x00820100        0x0 c:/altera/12.1sp1/nios2eds/bin/gnu/h-i686-mingw32/bin/../lib/gcc/nios2-elf/4.1.2\libgcc.a(_clz.o)
 .bss           0x00820100        0x0 c:/altera/12.1sp1/nios2eds/bin/gnu/h-i686-mingw32/bin/../lib/gcc/nios2-elf/4.1.2/../../../../nios2-elf/lib\libc.a(lib_a-errno.o)
 .bss           0x00820100        0x0 c:/altera/12.1sp1/nios2eds/bin/gnu/h-i686-mingw32/bin/../lib/gcc/nios2-elf/4.1.2/../../../../nios2-elf/lib\libc.a(lib_a-impure.o)
 .bss           0x00820100        0x0 c:/altera/12.1sp1/nios2eds/bin/gnu/h-i686-mingw32/bin/../lib/gcc/nios2-elf/4.1.2/../../../../nios2-elf/lib\libc.a(lib_a-printf.o)
 .bss           0x00820100        0x0 c:/altera/12.1sp1/nios2eds/bin/gnu/h-i686-mingw32/bin/../lib/gcc/nios2-elf/4.1.2/../../../../nios2-elf/lib\libc.a(lib_a-puts.o)
 .bss           0x00820100        0x0 c:/altera/12.1sp1/nios2eds/bin/gnu/h-i686-mingw32/bin/../lib/gcc/nios2-elf/4.1.2/../../../../nios2-elf/lib\libc.a(lib_a-strlen.o)
 .bss           0x00820100        0x0 c:/altera/12.1sp1/nios2eds/bin/gnu/h-i686-mingw32/bin/../lib/gcc/nios2-elf/4.1.2/../../../../nios2-elf/lib\libc.a(lib_a-vfprintf.o)
 .bss           0x00820100        0x0 c:/altera/12.1sp1/nios2eds/bin/gnu/h-i686-mingw32/bin/../lib/gcc/nios2-elf/4.1.2/../../../../nios2-elf/lib\libc.a(lib_a-wsetup.o)
 .bss           0x00820100        0x0 c:/altera/12.1sp1/nios2eds/bin/gnu/h-i686-mingw32/bin/../lib/gcc/nios2-elf/4.1.2/../../../../nios2-elf/lib\libc.a(lib_a-dtoa.o)
 .bss           0x00820100        0x0 c:/altera/12.1sp1/nios2eds/bin/gnu/h-i686-mingw32/bin/../lib/gcc/nios2-elf/4.1.2/../../../../nios2-elf/lib\libc.a(lib_a-fflush.o)
 .bss           0x00820100        0x0 c:/altera/12.1sp1/nios2eds/bin/gnu/h-i686-mingw32/bin/../lib/gcc/nios2-elf/4.1.2/../../../../nios2-elf/lib\libc.a(lib_a-findfp.o)
 .bss           0x00820100        0x0 c:/altera/12.1sp1/nios2eds/bin/gnu/h-i686-mingw32/bin/../lib/gcc/nios2-elf/4.1.2/../../../../nios2-elf/lib\libc.a(lib_a-freer.o)
 .bss           0x00820100        0x0 c:/altera/12.1sp1/nios2eds/bin/gnu/h-i686-mingw32/bin/../lib/gcc/nios2-elf/4.1.2/../../../../nios2-elf/lib\libc.a(lib_a-fvwrite.o)
 .bss           0x00820100        0x0 c:/altera/12.1sp1/nios2eds/bin/gnu/h-i686-mingw32/bin/../lib/gcc/nios2-elf/4.1.2/../../../../nios2-elf/lib\libc.a(lib_a-fwalk.o)
 .bss           0x00820100        0x0 c:/altera/12.1sp1/nios2eds/bin/gnu/h-i686-mingw32/bin/../lib/gcc/nios2-elf/4.1.2/../../../../nios2-elf/lib\libc.a(lib_a-locale.o)
 .bss           0x00820100        0x0 c:/altera/12.1sp1/nios2eds/bin/gnu/h-i686-mingw32/bin/../lib/gcc/nios2-elf/4.1.2/../../../../nios2-elf/lib\libc.a(lib_a-makebuf.o)
 .bss           0x00820100       0x28 c:/altera/12.1sp1/nios2eds/bin/gnu/h-i686-mingw32/bin/../lib/gcc/nios2-elf/4.1.2/../../../../nios2-elf/lib\libc.a(lib_a-mallocr.o)
                0x00820100                __malloc_current_mallinfo
 .bss           0x00820128        0x0 c:/altera/12.1sp1/nios2eds/bin/gnu/h-i686-mingw32/bin/../lib/gcc/nios2-elf/4.1.2/../../../../nios2-elf/lib\libc.a(lib_a-memchr.o)
 .bss           0x00820128        0x0 c:/altera/12.1sp1/nios2eds/bin/gnu/h-i686-mingw32/bin/../lib/gcc/nios2-elf/4.1.2/../../../../nios2-elf/lib\libc.a(lib_a-memcpy.o)
 .bss           0x00820128        0x0 c:/altera/12.1sp1/nios2eds/bin/gnu/h-i686-mingw32/bin/../lib/gcc/nios2-elf/4.1.2/../../../../nios2-elf/lib\libc.a(lib_a-memmove.o)
 .bss           0x00820128        0x0 c:/altera/12.1sp1/nios2eds/bin/gnu/h-i686-mingw32/bin/../lib/gcc/nios2-elf/4.1.2/../../../../nios2-elf/lib\libc.a(lib_a-memset.o)
 .bss           0x00820128        0x0 c:/altera/12.1sp1/nios2eds/bin/gnu/h-i686-mingw32/bin/../lib/gcc/nios2-elf/4.1.2/../../../../nios2-elf/lib\libc.a(lib_a-mprec.o)
 .bss           0x00820128        0x0 c:/altera/12.1sp1/nios2eds/bin/gnu/h-i686-mingw32/bin/../lib/gcc/nios2-elf/4.1.2/../../../../nios2-elf/lib\libc.a(lib_a-reallocr.o)
 .bss           0x00820128        0x0 c:/altera/12.1sp1/nios2eds/bin/gnu/h-i686-mingw32/bin/../lib/gcc/nios2-elf/4.1.2/../../../../nios2-elf/lib\libc.a(lib_a-s_isinfd.o)
 .bss           0x00820128        0x0 c:/altera/12.1sp1/nios2eds/bin/gnu/h-i686-mingw32/bin/../lib/gcc/nios2-elf/4.1.2/../../../../nios2-elf/lib\libc.a(lib_a-sbrkr.o)
 .bss           0x00820128        0x0 c:/altera/12.1sp1/nios2eds/bin/gnu/h-i686-mingw32/bin/../lib/gcc/nios2-elf/4.1.2/../../../../nios2-elf/lib\libc.a(lib_a-stdio.o)
 .bss           0x00820128        0x0 c:/altera/12.1sp1/nios2eds/bin/gnu/h-i686-mingw32/bin/../lib/gcc/nios2-elf/4.1.2/../../../../nios2-elf/lib\libc.a(lib_a-strcmp.o)
 .bss           0x00820128        0x0 c:/altera/12.1sp1/nios2eds/bin/gnu/h-i686-mingw32/bin/../lib/gcc/nios2-elf/4.1.2/../../../../nios2-elf/lib\libc.a(lib_a-writer.o)
 .bss           0x00820128        0x0 c:/altera/12.1sp1/nios2eds/bin/gnu/h-i686-mingw32/bin/../lib/gcc/nios2-elf/4.1.2/../../../../nios2-elf/lib\libc.a(lib_a-callocr.o)
 .bss           0x00820128        0x0 c:/altera/12.1sp1/nios2eds/bin/gnu/h-i686-mingw32/bin/../lib/gcc/nios2-elf/4.1.2/../../../../nios2-elf/lib\libc.a(lib_a-closer.o)
 .bss           0x00820128        0x0 c:/altera/12.1sp1/nios2eds/bin/gnu/h-i686-mingw32/bin/../lib/gcc/nios2-elf/4.1.2/../../../../nios2-elf/lib\libc.a(lib_a-fclose.o)
 .bss           0x00820128        0x0 c:/altera/12.1sp1/nios2eds/bin/gnu/h-i686-mingw32/bin/../lib/gcc/nios2-elf/4.1.2/../../../../nios2-elf/lib\libc.a(lib_a-fstatr.o)
 .bss           0x00820128        0x0 c:/altera/12.1sp1/nios2eds/bin/gnu/h-i686-mingw32/bin/../lib/gcc/nios2-elf/4.1.2/../../../../nios2-elf/lib\libc.a(lib_a-int_errno.o)
 .bss           0x00820128        0x0 c:/altera/12.1sp1/nios2eds/bin/gnu/h-i686-mingw32/bin/../lib/gcc/nios2-elf/4.1.2/../../../../nios2-elf/lib\libc.a(lib_a-isattyr.o)
 .bss           0x00820128        0x0 c:/altera/12.1sp1/nios2eds/bin/gnu/h-i686-mingw32/bin/../lib/gcc/nios2-elf/4.1.2/../../../../nios2-elf/lib\libc.a(lib_a-lseekr.o)
 .bss           0x00820128        0x0 c:/altera/12.1sp1/nios2eds/bin/gnu/h-i686-mingw32/bin/../lib/gcc/nios2-elf/4.1.2/../../../../nios2-elf/lib\libc.a(lib_a-readr.o)
 .bss           0x00820128        0x0 c:/altera/12.1sp1/nios2eds/bin/gnu/h-i686-mingw32/bin/../lib/gcc/nios2-elf/4.1.2\libgcc.a(_udivdi3.o)
 .bss           0x00820128        0x0 c:/altera/12.1sp1/nios2eds/bin/gnu/h-i686-mingw32/bin/../lib/gcc/nios2-elf/4.1.2\libgcc.a(_umoddi3.o)
 .bss           0x00820128        0x0 c:/altera/12.1sp1/nios2eds/bin/gnu/h-i686-mingw32/bin/../lib/gcc/nios2-elf/4.1.2\libgcc.a(_eq_df.o)
 .bss           0x00820128        0x0 c:/altera/12.1sp1/nios2eds/bin/gnu/h-i686-mingw32/bin/../lib/gcc/nios2-elf/4.1.2\libgcc.a(_ne_df.o)
 .bss           0x00820128        0x0 c:/altera/12.1sp1/nios2eds/bin/gnu/h-i686-mingw32/bin/../lib/gcc/nios2-elf/4.1.2\libgcc.a(_gt_df.o)
 .bss           0x00820128        0x0 c:/altera/12.1sp1/nios2eds/bin/gnu/h-i686-mingw32/bin/../lib/gcc/nios2-elf/4.1.2\libgcc.a(lib2-divmod.o)
 .bss           0x00820128        0x0 C:/Users/jchang3/Documents/ECE492/test/software/accelerometer_pen50s_bsp/\libucosii_bsp.a(alt_close.o)
 .bss           0x00820128        0x0 C:/Users/jchang3/Documents/ECE492/test/software/accelerometer_pen50s_bsp/\libucosii_bsp.a(alt_dev.o)
 .bss           0x00820128        0x0 C:/Users/jchang3/Documents/ECE492/test/software/accelerometer_pen50s_bsp/\libucosii_bsp.a(alt_errno.o)
 .bss           0x00820128        0x0 C:/Users/jchang3/Documents/ECE492/test/software/accelerometer_pen50s_bsp/\libucosii_bsp.a(alt_fstat.o)
 .bss           0x00820128        0x0 C:/Users/jchang3/Documents/ECE492/test/software/accelerometer_pen50s_bsp/\libucosii_bsp.a(alt_isatty.o)
 .bss           0x00820128        0x0 C:/Users/jchang3/Documents/ECE492/test/software/accelerometer_pen50s_bsp/\libucosii_bsp.a(alt_load.o)
 .bss           0x00820128        0x0 C:/Users/jchang3/Documents/ECE492/test/software/accelerometer_pen50s_bsp/\libucosii_bsp.a(alt_lseek.o)
 .bss           0x00820128        0x0 C:/Users/jchang3/Documents/ECE492/test/software/accelerometer_pen50s_bsp/\libucosii_bsp.a(alt_main.o)
 .bss           0x00820128        0x0 C:/Users/jchang3/Documents/ECE492/test/software/accelerometer_pen50s_bsp/\libucosii_bsp.a(alt_read.o)
 .bss           0x00820128        0x0 C:/Users/jchang3/Documents/ECE492/test/software/accelerometer_pen50s_bsp/\libucosii_bsp.a(alt_release_fd.o)
 .bss           0x00820128        0x0 C:/Users/jchang3/Documents/ECE492/test/software/accelerometer_pen50s_bsp/\libucosii_bsp.a(alt_sbrk.o)
 .bss           0x00820128        0x0 C:/Users/jchang3/Documents/ECE492/test/software/accelerometer_pen50s_bsp/\libucosii_bsp.a(alt_write.o)
 .bss           0x00820128        0x0 C:/Users/jchang3/Documents/ECE492/test/software/accelerometer_pen50s_bsp/\libucosii_bsp.a(alt_env_lock.o)
 .bss           0x00820128        0x0 C:/Users/jchang3/Documents/ECE492/test/software/accelerometer_pen50s_bsp/\libucosii_bsp.a(alt_malloc_lock.o)
 .bss           0x00820128        0x0 C:/Users/jchang3/Documents/ECE492/test/software/accelerometer_pen50s_bsp/\libucosii_bsp.a(os_core.o)
 .bss           0x00820128        0x0 C:/Users/jchang3/Documents/ECE492/test/software/accelerometer_pen50s_bsp/\libucosii_bsp.a(os_dbg.o)
 .bss           0x00820128        0x0 C:/Users/jchang3/Documents/ECE492/test/software/accelerometer_pen50s_bsp/\libucosii_bsp.a(os_flag.o)
 .bss           0x00820128        0x0 C:/Users/jchang3/Documents/ECE492/test/software/accelerometer_pen50s_bsp/\libucosii_bsp.a(os_mem.o)
 .bss           0x00820128        0x0 C:/Users/jchang3/Documents/ECE492/test/software/accelerometer_pen50s_bsp/\libucosii_bsp.a(os_q.o)
 .bss           0x00820128        0x0 C:/Users/jchang3/Documents/ECE492/test/software/accelerometer_pen50s_bsp/\libucosii_bsp.a(os_sem.o)
 .bss           0x00820128        0x0 C:/Users/jchang3/Documents/ECE492/test/software/accelerometer_pen50s_bsp/\libucosii_bsp.a(os_task.o)
 .bss           0x00820128        0x0 C:/Users/jchang3/Documents/ECE492/test/software/accelerometer_pen50s_bsp/\libucosii_bsp.a(os_time.o)
 .bss           0x00820128        0x0 C:/Users/jchang3/Documents/ECE492/test/software/accelerometer_pen50s_bsp/\libucosii_bsp.a(alt_sys_init.o)
 .bss           0x00820128        0x0 C:/Users/jchang3/Documents/ECE492/test/software/accelerometer_pen50s_bsp/\libucosii_bsp.a(altera_avalon_jtag_uart_fd.o)
 .bss           0x00820128        0x0 C:/Users/jchang3/Documents/ECE492/test/software/accelerometer_pen50s_bsp/\libucosii_bsp.a(altera_avalon_jtag_uart_init.o)
 .bss           0x00820128        0x0 C:/Users/jchang3/Documents/ECE492/test/software/accelerometer_pen50s_bsp/\libucosii_bsp.a(altera_avalon_jtag_uart_ioctl.o)
 .bss           0x00820128        0x0 C:/Users/jchang3/Documents/ECE492/test/software/accelerometer_pen50s_bsp/\libucosii_bsp.a(altera_avalon_jtag_uart_read.o)
 .bss           0x00820128        0x0 C:/Users/jchang3/Documents/ECE492/test/software/accelerometer_pen50s_bsp/\libucosii_bsp.a(altera_avalon_jtag_uart_write.o)
 .bss           0x00820128        0x0 C:/Users/jchang3/Documents/ECE492/test/software/accelerometer_pen50s_bsp/\libucosii_bsp.a(altera_avalon_timer_sc.o)
 .bss           0x00820128        0x0 C:/Users/jchang3/Documents/ECE492/test/software/accelerometer_pen50s_bsp/\libucosii_bsp.a(altera_up_avalon_character_lcd.o)
 .bss           0x00820128        0x0 C:/Users/jchang3/Documents/ECE492/test/software/accelerometer_pen50s_bsp/\libucosii_bsp.a(altera_up_avalon_rs232.o)
 .bss           0x00820128        0x0 C:/Users/jchang3/Documents/ECE492/test/software/accelerometer_pen50s_bsp/\libucosii_bsp.a(altera_up_sd_card_avalon_interface.o)
 .bss           0x00820128        0x0 C:/Users/jchang3/Documents/ECE492/test/software/accelerometer_pen50s_bsp/\libucosii_bsp.a(alt_alarm_start.o)
 .bss           0x00820128        0x0 C:/Users/jchang3/Documents/ECE492/test/software/accelerometer_pen50s_bsp/\libucosii_bsp.a(alt_dcache_flush_all.o)
 .bss           0x00820128        0x0 C:/Users/jchang3/Documents/ECE492/test/software/accelerometer_pen50s_bsp/\libucosii_bsp.a(alt_dev_llist_insert.o)
 .bss           0x00820128        0x0 C:/Users/jchang3/Documents/ECE492/test/software/accelerometer_pen50s_bsp/\libucosii_bsp.a(alt_do_ctors.o)
 .bss           0x00820128        0x0 C:/Users/jchang3/Documents/ECE492/test/software/accelerometer_pen50s_bsp/\libucosii_bsp.a(alt_do_dtors.o)
 .bss           0x00820128        0x0 C:/Users/jchang3/Documents/ECE492/test/software/accelerometer_pen50s_bsp/\libucosii_bsp.a(alt_find_dev.o)
 .bss           0x00820128        0x0 C:/Users/jchang3/Documents/ECE492/test/software/accelerometer_pen50s_bsp/\libucosii_bsp.a(alt_icache_flush_all.o)
 .bss           0x00820128        0x0 C:/Users/jchang3/Documents/ECE492/test/software/accelerometer_pen50s_bsp/\libucosii_bsp.a(alt_io_redirect.o)
 .bss           0x00820128        0x0 C:/Users/jchang3/Documents/ECE492/test/software/accelerometer_pen50s_bsp/\libucosii_bsp.a(alt_irq_register.o)
 .bss           0x00820128        0x0 C:/Users/jchang3/Documents/ECE492/test/software/accelerometer_pen50s_bsp/\libucosii_bsp.a(alt_irq_vars.o)
 .bss           0x00820128        0x0 C:/Users/jchang3/Documents/ECE492/test/software/accelerometer_pen50s_bsp/\libucosii_bsp.a(alt_open.o)
 .bss           0x00820128        0x0 C:/Users/jchang3/Documents/ECE492/test/software/accelerometer_pen50s_bsp/\libucosii_bsp.a(alt_tick.o)
 .bss           0x00820128        0x0 C:/Users/jchang3/Documents/ECE492/test/software/accelerometer_pen50s_bsp/\libucosii_bsp.a(altera_nios2_qsys_irq.o)
 .bss           0x00820128        0x0 C:/Users/jchang3/Documents/ECE492/test/software/accelerometer_pen50s_bsp/\libucosii_bsp.a(os_cpu_a.o)
 .bss           0x00820128        0x0 C:/Users/jchang3/Documents/ECE492/test/software/accelerometer_pen50s_bsp/\libucosii_bsp.a(os_cpu_c.o)
 .bss           0x00820128        0x0 C:/Users/jchang3/Documents/ECE492/test/software/accelerometer_pen50s_bsp/\libucosii_bsp.a(alt_find_file.o)
 .bss           0x00820128        0x0 C:/Users/jchang3/Documents/ECE492/test/software/accelerometer_pen50s_bsp/\libucosii_bsp.a(alt_get_fd.o)
 .bss           0x00820128        0x0 C:/Users/jchang3/Documents/ECE492/test/software/accelerometer_pen50s_bsp/\libucosii_bsp.a(alt_icache_flush.o)
 .bss           0x00820128        0x0 C:/Users/jchang3/Documents/ECE492/test/software/accelerometer_pen50s_bsp/\libucosii_bsp.a(alt_irq_entry.o)
 .bss           0x00820128        0x0 C:/Users/jchang3/Documents/ECE492/test/software/accelerometer_pen50s_bsp/\libucosii_bsp.a(alt_irq_handler.o)
 .bss           0x00820128        0x0 C:/Users/jchang3/Documents/ECE492/test/software/accelerometer_pen50s_bsp/\libucosii_bsp.a(alt_exception_entry.o)
 .bss           0x00820128        0x0 c:/altera/12.1sp1/nios2eds/bin/gnu/h-i686-mingw32/bin/../lib/gcc/nios2-elf/4.1.2/../../../../nios2-elf/lib\libc.a(lib_a-atexit.o)
 .bss           0x00820128        0x0 c:/altera/12.1sp1/nios2eds/bin/gnu/h-i686-mingw32/bin/../lib/gcc/nios2-elf/4.1.2/../../../../nios2-elf/lib\libc.a(lib_a-exit.o)
 .bss           0x00820128        0x0 c:/altera/12.1sp1/nios2eds/bin/gnu/h-i686-mingw32/bin/../lib/gcc/nios2-elf/4.1.2/../../../../nios2-elf/lib\libc.a(lib_a-memcmp.o)
 .bss           0x00820128        0x0 c:/altera/12.1sp1/nios2eds/bin/gnu/h-i686-mingw32/bin/../lib/gcc/nios2-elf/4.1.2/../../../../nios2-elf/lib\libc.a(lib_a-__atexit.o)
 .bss           0x00820128        0x0 c:/altera/12.1sp1/nios2eds/bin/gnu/h-i686-mingw32/bin/../lib/gcc/nios2-elf/4.1.2/../../../../nios2-elf/lib\libc.a(lib_a-__call_atexit.o)
 .bss           0x00820128        0x0 C:/Users/jchang3/Documents/ECE492/test/software/accelerometer_pen50s_bsp/\libucosii_bsp.a(alt_exit.o)
 *(COMMON)
 COMMON         0x00820128    0x129d0 obj/default/hello_ucosii.o
                0x00820128                taskCalibrate_stk
                0x00822128                taskCharacterRead_stk
                0x00824128                taskModeSelect_stk
                0x00826128                taskTemplateMatch_stk
                0x00828128                taskDTWX_stk
                0x0082a128                taskWriteSDCard_stk
                0x0082c128                taskLoadSDCard_stk
                0x0082e128                templates
                0x0082e148                template
                0x0082e208                array
                0x0082e238                SWQ_stk
                0x00830238                taskDTWY_stk
                0x00832238                messageArray
                0x00832a38                array_8
 COMMON         0x00832af8     0x3224 C:/Users/jchang3/Documents/ECE492/test/software/accelerometer_pen50s_bsp/\libucosii_bsp.a(os_core.o)
                0x00832af8                OSFlagTbl
                0x00832e68                OSMemTbl
                0x00833a98                OSTaskStatStk
                0x00834298                OSQTbl
                0x00834478                OSTaskIdleStk
                0x00834c78                OSEventTbl
                0x008357b8                OSTCBTbl
                0x00835cc8                OSTCBPrioTbl
 COMMON         0x00835d1c      0x568 C:/Users/jchang3/Documents/ECE492/test/software/accelerometer_pen50s_bsp/\libucosii_bsp.a(altera_up_sd_card_avalon_interface.o)
                0x00835d1c                search_data
                0x00835d30                boot_sector_data
                0x00835d84                active_files
 COMMON         0x00836284      0x100 C:/Users/jchang3/Documents/ECE492/test/software/accelerometer_pen50s_bsp/\libucosii_bsp.a(alt_irq_handler.o)
                0x00836284                alt_irq
 COMMON         0x00836384      0x190 c:/altera/12.1sp1/nios2eds/bin/gnu/h-i686-mingw32/bin/../lib/gcc/nios2-elf/4.1.2/../../../../nios2-elf/lib\libc.a(lib_a-atexit.o)
                0x00836384                _atexit0
                0x00836514                . = ALIGN (0x4)
                0x00836514                __bss_end = ABSOLUTE (.)

.sdram_0        0x00836514        0x0
                0x00836514                PROVIDE (_alt_partition_sdram_0_start, ABSOLUTE (.))
 *(.sdram_0. sdram_0.*)
                0x00836514                . = ALIGN (0x4)
                0x00836514                PROVIDE (_alt_partition_sdram_0_end, ABSOLUTE (.))
                0x00836514                _end = ABSOLUTE (.)
                0x00836514                end = ABSOLUTE (.)
                0x00836514                __alt_stack_base = ABSOLUTE (.)
                0x00836514                PROVIDE (_alt_partition_sdram_0_load_addr, LOADADDR (.sdram_0))

.generic_tristate_controller_0
                0x01400000        0x0 load address 0x00836514
                0x01400000                PROVIDE (_alt_partition_generic_tristate_controller_0_start, ABSOLUTE (.))
 *(.generic_tristate_controller_0. generic_tristate_controller_0.*)
                0x01400000                . = ALIGN (0x4)
                0x01400000                PROVIDE (_alt_partition_generic_tristate_controller_0_end, ABSOLUTE (.))
                0x00836514                PROVIDE (_alt_partition_generic_tristate_controller_0_load_addr, LOADADDR (.generic_tristate_controller_0))

.sram_0         0x01880000        0x0 load address 0x00836514
                0x01880000                PROVIDE (_alt_partition_sram_0_start, ABSOLUTE (.))
 *(.sram_0. sram_0.*)
                0x01880000                . = ALIGN (0x4)
                0x01880000                PROVIDE (_alt_partition_sram_0_end, ABSOLUTE (.))
                0x00836514                PROVIDE (_alt_partition_sram_0_load_addr, LOADADDR (.sram_0))

.onchip_memory2_0
                0x019041c0        0x0 load address 0x00836514
                0x019041c0                PROVIDE (_alt_partition_onchip_memory2_0_start, ABSOLUTE (.))
 *(.onchip_memory2_0. onchip_memory2_0.*)
                0x019041c0                . = ALIGN (0x4)
                0x019041c0                PROVIDE (_alt_partition_onchip_memory2_0_end, ABSOLUTE (.))
                0x00836514                PROVIDE (_alt_partition_onchip_memory2_0_load_addr, LOADADDR (.onchip_memory2_0))

.stab
 *(.stab)

.stabstr
 *(.stabstr)

.stab.excl
 *(.stab.excl)

.stab.exclstr
 *(.stab.exclstr)

.stab.index
 *(.stab.index)

.stab.indexstr
 *(.stab.indexstr)

.comment        0x00000000       0x26
 *(.comment)
 .comment       0x00000000       0x26 obj/default/dtw.o
                                 0x27 (size before relaxing)
 .comment       0x00000000       0x27 obj/default/hello_ucosii.o
 .comment       0x00000000       0x27 c:/altera/12.1sp1/nios2eds/bin/gnu/h-i686-mingw32/bin/../lib/gcc/nios2-elf/4.1.2/../../../../nios2-elf/lib\libm.a(lib_a-w_sqrt.o)
 .comment       0x00000000       0x27 c:/altera/12.1sp1/nios2eds/bin/gnu/h-i686-mingw32/bin/../lib/gcc/nios2-elf/4.1.2/../../../../nios2-elf/lib\libm.a(lib_a-e_sqrt.o)
 .comment       0x00000000       0x27 c:/altera/12.1sp1/nios2eds/bin/gnu/h-i686-mingw32/bin/../lib/gcc/nios2-elf/4.1.2/../../../../nios2-elf/lib\libm.a(lib_a-s_isnand.o)
 .comment       0x00000000       0x27 c:/altera/12.1sp1/nios2eds/bin/gnu/h-i686-mingw32/bin/../lib/gcc/nios2-elf/4.1.2/../../../../nios2-elf/lib\libm.a(lib_a-s_lib_ver.o)
 .comment       0x00000000       0x27 c:/altera/12.1sp1/nios2eds/bin/gnu/h-i686-mingw32/bin/../lib/gcc/nios2-elf/4.1.2/../../../../nios2-elf/lib\libm.a(lib_a-s_matherr.o)
 .comment       0x00000000       0x27 c:/altera/12.1sp1/nios2eds/bin/gnu/h-i686-mingw32/bin/../lib/gcc/nios2-elf/4.1.2\libgcc.a(_muldi3.o)
 .comment       0x00000000       0x27 c:/altera/12.1sp1/nios2eds/bin/gnu/h-i686-mingw32/bin/../lib/gcc/nios2-elf/4.1.2\libgcc.a(_fixdfdi.o)
 .comment       0x00000000       0x27 c:/altera/12.1sp1/nios2eds/bin/gnu/h-i686-mingw32/bin/../lib/gcc/nios2-elf/4.1.2\libgcc.a(_fixunsdfdi.o)
 .comment       0x00000000       0x27 c:/altera/12.1sp1/nios2eds/bin/gnu/h-i686-mingw32/bin/../lib/gcc/nios2-elf/4.1.2\libgcc.a(_floatdidf.o)
 .comment       0x00000000       0x27 c:/altera/12.1sp1/nios2eds/bin/gnu/h-i686-mingw32/bin/../lib/gcc/nios2-elf/4.1.2\libgcc.a(_addsub_df.o)
 .comment       0x00000000       0x27 c:/altera/12.1sp1/nios2eds/bin/gnu/h-i686-mingw32/bin/../lib/gcc/nios2-elf/4.1.2\libgcc.a(_mul_df.o)
 .comment       0x00000000       0x27 c:/altera/12.1sp1/nios2eds/bin/gnu/h-i686-mingw32/bin/../lib/gcc/nios2-elf/4.1.2\libgcc.a(_div_df.o)
 .comment       0x00000000       0x27 c:/altera/12.1sp1/nios2eds/bin/gnu/h-i686-mingw32/bin/../lib/gcc/nios2-elf/4.1.2\libgcc.a(_lt_df.o)
 .comment       0x00000000       0x27 c:/altera/12.1sp1/nios2eds/bin/gnu/h-i686-mingw32/bin/../lib/gcc/nios2-elf/4.1.2\libgcc.a(_si_to_df.o)
 .comment       0x00000000       0x27 c:/altera/12.1sp1/nios2eds/bin/gnu/h-i686-mingw32/bin/../lib/gcc/nios2-elf/4.1.2\libgcc.a(_df_to_si.o)
 .comment       0x00000000       0x27 c:/altera/12.1sp1/nios2eds/bin/gnu/h-i686-mingw32/bin/../lib/gcc/nios2-elf/4.1.2\libgcc.a(_thenan_df.o)
 .comment       0x00000000       0x27 c:/altera/12.1sp1/nios2eds/bin/gnu/h-i686-mingw32/bin/../lib/gcc/nios2-elf/4.1.2\libgcc.a(_usi_to_df.o)
 .comment       0x00000000       0x27 c:/altera/12.1sp1/nios2eds/bin/gnu/h-i686-mingw32/bin/../lib/gcc/nios2-elf/4.1.2\libgcc.a(_clzsi2.o)
 .comment       0x00000000       0x27 c:/altera/12.1sp1/nios2eds/bin/gnu/h-i686-mingw32/bin/../lib/gcc/nios2-elf/4.1.2\libgcc.a(_fixunsdfsi.o)
 .comment       0x00000000       0x27 c:/altera/12.1sp1/nios2eds/bin/gnu/h-i686-mingw32/bin/../lib/gcc/nios2-elf/4.1.2\libgcc.a(_pack_df.o)
 .comment       0x00000000       0x27 c:/altera/12.1sp1/nios2eds/bin/gnu/h-i686-mingw32/bin/../lib/gcc/nios2-elf/4.1.2\libgcc.a(_unpack_df.o)
 .comment       0x00000000       0x27 c:/altera/12.1sp1/nios2eds/bin/gnu/h-i686-mingw32/bin/../lib/gcc/nios2-elf/4.1.2\libgcc.a(_fpcmp_parts_df.o)
 .comment       0x00000000       0x27 c:/altera/12.1sp1/nios2eds/bin/gnu/h-i686-mingw32/bin/../lib/gcc/nios2-elf/4.1.2\libgcc.a(_ge_df.o)
 .comment       0x00000000       0x27 c:/altera/12.1sp1/nios2eds/bin/gnu/h-i686-mingw32/bin/../lib/gcc/nios2-elf/4.1.2\libgcc.a(_clz.o)
 .comment       0x00000000       0x27 c:/altera/12.1sp1/nios2eds/bin/gnu/h-i686-mingw32/bin/../lib/gcc/nios2-elf/4.1.2/../../../../nios2-elf/lib\libc.a(lib_a-errno.o)
 .comment       0x00000000       0x27 c:/altera/12.1sp1/nios2eds/bin/gnu/h-i686-mingw32/bin/../lib/gcc/nios2-elf/4.1.2/../../../../nios2-elf/lib\libc.a(lib_a-impure.o)
 .comment       0x00000000       0x27 c:/altera/12.1sp1/nios2eds/bin/gnu/h-i686-mingw32/bin/../lib/gcc/nios2-elf/4.1.2/../../../../nios2-elf/lib\libc.a(lib_a-printf.o)
 .comment       0x00000000       0x27 c:/altera/12.1sp1/nios2eds/bin/gnu/h-i686-mingw32/bin/../lib/gcc/nios2-elf/4.1.2/../../../../nios2-elf/lib\libc.a(lib_a-puts.o)
 .comment       0x00000000       0x27 c:/altera/12.1sp1/nios2eds/bin/gnu/h-i686-mingw32/bin/../lib/gcc/nios2-elf/4.1.2/../../../../nios2-elf/lib\libc.a(lib_a-strlen.o)
 .comment       0x00000000       0x27 c:/altera/12.1sp1/nios2eds/bin/gnu/h-i686-mingw32/bin/../lib/gcc/nios2-elf/4.1.2/../../../../nios2-elf/lib\libc.a(lib_a-vfprintf.o)
 .comment       0x00000000       0x27 c:/altera/12.1sp1/nios2eds/bin/gnu/h-i686-mingw32/bin/../lib/gcc/nios2-elf/4.1.2/../../../../nios2-elf/lib\libc.a(lib_a-wsetup.o)
 .comment       0x00000000       0x27 c:/altera/12.1sp1/nios2eds/bin/gnu/h-i686-mingw32/bin/../lib/gcc/nios2-elf/4.1.2/../../../../nios2-elf/lib\libc.a(lib_a-dtoa.o)
 .comment       0x00000000       0x27 c:/altera/12.1sp1/nios2eds/bin/gnu/h-i686-mingw32/bin/../lib/gcc/nios2-elf/4.1.2/../../../../nios2-elf/lib\libc.a(lib_a-fflush.o)
 .comment       0x00000000       0x27 c:/altera/12.1sp1/nios2eds/bin/gnu/h-i686-mingw32/bin/../lib/gcc/nios2-elf/4.1.2/../../../../nios2-elf/lib\libc.a(lib_a-findfp.o)
 .comment       0x00000000       0x27 c:/altera/12.1sp1/nios2eds/bin/gnu/h-i686-mingw32/bin/../lib/gcc/nios2-elf/4.1.2/../../../../nios2-elf/lib\libc.a(lib_a-freer.o)
 .comment       0x00000000       0x27 c:/altera/12.1sp1/nios2eds/bin/gnu/h-i686-mingw32/bin/../lib/gcc/nios2-elf/4.1.2/../../../../nios2-elf/lib\libc.a(lib_a-fvwrite.o)
 .comment       0x00000000       0x27 c:/altera/12.1sp1/nios2eds/bin/gnu/h-i686-mingw32/bin/../lib/gcc/nios2-elf/4.1.2/../../../../nios2-elf/lib\libc.a(lib_a-fwalk.o)
 .comment       0x00000000       0x27 c:/altera/12.1sp1/nios2eds/bin/gnu/h-i686-mingw32/bin/../lib/gcc/nios2-elf/4.1.2/../../../../nios2-elf/lib\libc.a(lib_a-locale.o)
 .comment       0x00000000       0x27 c:/altera/12.1sp1/nios2eds/bin/gnu/h-i686-mingw32/bin/../lib/gcc/nios2-elf/4.1.2/../../../../nios2-elf/lib\libc.a(lib_a-makebuf.o)
 .comment       0x00000000       0x27 c:/altera/12.1sp1/nios2eds/bin/gnu/h-i686-mingw32/bin/../lib/gcc/nios2-elf/4.1.2/../../../../nios2-elf/lib\libc.a(lib_a-mallocr.o)
 .comment       0x00000000       0x27 c:/altera/12.1sp1/nios2eds/bin/gnu/h-i686-mingw32/bin/../lib/gcc/nios2-elf/4.1.2/../../../../nios2-elf/lib\libc.a(lib_a-memchr.o)
 .comment       0x00000000       0x27 c:/altera/12.1sp1/nios2eds/bin/gnu/h-i686-mingw32/bin/../lib/gcc/nios2-elf/4.1.2/../../../../nios2-elf/lib\libc.a(lib_a-memcpy.o)
 .comment       0x00000000       0x27 c:/altera/12.1sp1/nios2eds/bin/gnu/h-i686-mingw32/bin/../lib/gcc/nios2-elf/4.1.2/../../../../nios2-elf/lib\libc.a(lib_a-memmove.o)
 .comment       0x00000000       0x27 c:/altera/12.1sp1/nios2eds/bin/gnu/h-i686-mingw32/bin/../lib/gcc/nios2-elf/4.1.2/../../../../nios2-elf/lib\libc.a(lib_a-memset.o)
 .comment       0x00000000       0x27 c:/altera/12.1sp1/nios2eds/bin/gnu/h-i686-mingw32/bin/../lib/gcc/nios2-elf/4.1.2/../../../../nios2-elf/lib\libc.a(lib_a-mprec.o)
 .comment       0x00000000       0x27 c:/altera/12.1sp1/nios2eds/bin/gnu/h-i686-mingw32/bin/../lib/gcc/nios2-elf/4.1.2/../../../../nios2-elf/lib\libc.a(lib_a-reallocr.o)
 .comment       0x00000000       0x27 c:/altera/12.1sp1/nios2eds/bin/gnu/h-i686-mingw32/bin/../lib/gcc/nios2-elf/4.1.2/../../../../nios2-elf/lib\libc.a(lib_a-s_isinfd.o)
 .comment       0x00000000       0x27 c:/altera/12.1sp1/nios2eds/bin/gnu/h-i686-mingw32/bin/../lib/gcc/nios2-elf/4.1.2/../../../../nios2-elf/lib\libc.a(lib_a-sbrkr.o)
 .comment       0x00000000       0x27 c:/altera/12.1sp1/nios2eds/bin/gnu/h-i686-mingw32/bin/../lib/gcc/nios2-elf/4.1.2/../../../../nios2-elf/lib\libc.a(lib_a-stdio.o)
 .comment       0x00000000       0x27 c:/altera/12.1sp1/nios2eds/bin/gnu/h-i686-mingw32/bin/../lib/gcc/nios2-elf/4.1.2/../../../../nios2-elf/lib\libc.a(lib_a-strcmp.o)
 .comment       0x00000000       0x27 c:/altera/12.1sp1/nios2eds/bin/gnu/h-i686-mingw32/bin/../lib/gcc/nios2-elf/4.1.2/../../../../nios2-elf/lib\libc.a(lib_a-writer.o)
 .comment       0x00000000       0x27 c:/altera/12.1sp1/nios2eds/bin/gnu/h-i686-mingw32/bin/../lib/gcc/nios2-elf/4.1.2/../../../../nios2-elf/lib\libc.a(lib_a-callocr.o)
 .comment       0x00000000       0x27 c:/altera/12.1sp1/nios2eds/bin/gnu/h-i686-mingw32/bin/../lib/gcc/nios2-elf/4.1.2/../../../../nios2-elf/lib\libc.a(lib_a-closer.o)
 .comment       0x00000000       0x27 c:/altera/12.1sp1/nios2eds/bin/gnu/h-i686-mingw32/bin/../lib/gcc/nios2-elf/4.1.2/../../../../nios2-elf/lib\libc.a(lib_a-fclose.o)
 .comment       0x00000000       0x27 c:/altera/12.1sp1/nios2eds/bin/gnu/h-i686-mingw32/bin/../lib/gcc/nios2-elf/4.1.2/../../../../nios2-elf/lib\libc.a(lib_a-fstatr.o)
 .comment       0x00000000       0x27 c:/altera/12.1sp1/nios2eds/bin/gnu/h-i686-mingw32/bin/../lib/gcc/nios2-elf/4.1.2/../../../../nios2-elf/lib\libc.a(lib_a-int_errno.o)
 .comment       0x00000000       0x27 c:/altera/12.1sp1/nios2eds/bin/gnu/h-i686-mingw32/bin/../lib/gcc/nios2-elf/4.1.2/../../../../nios2-elf/lib\libc.a(lib_a-isattyr.o)
 .comment       0x00000000       0x27 c:/altera/12.1sp1/nios2eds/bin/gnu/h-i686-mingw32/bin/../lib/gcc/nios2-elf/4.1.2/../../../../nios2-elf/lib\libc.a(lib_a-lseekr.o)
 .comment       0x00000000       0x27 c:/altera/12.1sp1/nios2eds/bin/gnu/h-i686-mingw32/bin/../lib/gcc/nios2-elf/4.1.2/../../../../nios2-elf/lib\libc.a(lib_a-readr.o)
 .comment       0x00000000       0x27 c:/altera/12.1sp1/nios2eds/bin/gnu/h-i686-mingw32/bin/../lib/gcc/nios2-elf/4.1.2\libgcc.a(_udivdi3.o)
 .comment       0x00000000       0x27 c:/altera/12.1sp1/nios2eds/bin/gnu/h-i686-mingw32/bin/../lib/gcc/nios2-elf/4.1.2\libgcc.a(_umoddi3.o)
 .comment       0x00000000       0x27 c:/altera/12.1sp1/nios2eds/bin/gnu/h-i686-mingw32/bin/../lib/gcc/nios2-elf/4.1.2\libgcc.a(_eq_df.o)
 .comment       0x00000000       0x27 c:/altera/12.1sp1/nios2eds/bin/gnu/h-i686-mingw32/bin/../lib/gcc/nios2-elf/4.1.2\libgcc.a(_ne_df.o)
 .comment       0x00000000       0x27 c:/altera/12.1sp1/nios2eds/bin/gnu/h-i686-mingw32/bin/../lib/gcc/nios2-elf/4.1.2\libgcc.a(_gt_df.o)
 .comment       0x00000000       0x27 c:/altera/12.1sp1/nios2eds/bin/gnu/h-i686-mingw32/bin/../lib/gcc/nios2-elf/4.1.2\libgcc.a(lib2-divmod.o)
 .comment       0x00000000       0x27 C:/Users/jchang3/Documents/ECE492/test/software/accelerometer_pen50s_bsp/\libucosii_bsp.a(alt_close.o)
 .comment       0x00000000       0x27 C:/Users/jchang3/Documents/ECE492/test/software/accelerometer_pen50s_bsp/\libucosii_bsp.a(alt_dev.o)
 .comment       0x00000000       0x27 C:/Users/jchang3/Documents/ECE492/test/software/accelerometer_pen50s_bsp/\libucosii_bsp.a(alt_errno.o)
 .comment       0x00000000       0x27 C:/Users/jchang3/Documents/ECE492/test/software/accelerometer_pen50s_bsp/\libucosii_bsp.a(alt_fstat.o)
 .comment       0x00000000       0x27 C:/Users/jchang3/Documents/ECE492/test/software/accelerometer_pen50s_bsp/\libucosii_bsp.a(alt_isatty.o)
 .comment       0x00000000       0x27 C:/Users/jchang3/Documents/ECE492/test/software/accelerometer_pen50s_bsp/\libucosii_bsp.a(alt_load.o)
 .comment       0x00000000       0x27 C:/Users/jchang3/Documents/ECE492/test/software/accelerometer_pen50s_bsp/\libucosii_bsp.a(alt_lseek.o)
 .comment       0x00000000       0x27 C:/Users/jchang3/Documents/ECE492/test/software/accelerometer_pen50s_bsp/\libucosii_bsp.a(alt_main.o)
 .comment       0x00000000       0x27 C:/Users/jchang3/Documents/ECE492/test/software/accelerometer_pen50s_bsp/\libucosii_bsp.a(alt_read.o)
 .comment       0x00000000       0x27 C:/Users/jchang3/Documents/ECE492/test/software/accelerometer_pen50s_bsp/\libucosii_bsp.a(alt_release_fd.o)
 .comment       0x00000000       0x27 C:/Users/jchang3/Documents/ECE492/test/software/accelerometer_pen50s_bsp/\libucosii_bsp.a(alt_sbrk.o)
 .comment       0x00000000       0x27 C:/Users/jchang3/Documents/ECE492/test/software/accelerometer_pen50s_bsp/\libucosii_bsp.a(alt_write.o)
 .comment       0x00000000       0x27 C:/Users/jchang3/Documents/ECE492/test/software/accelerometer_pen50s_bsp/\libucosii_bsp.a(alt_env_lock.o)
 .comment       0x00000000       0x27 C:/Users/jchang3/Documents/ECE492/test/software/accelerometer_pen50s_bsp/\libucosii_bsp.a(alt_malloc_lock.o)
 .comment       0x00000000       0x27 C:/Users/jchang3/Documents/ECE492/test/software/accelerometer_pen50s_bsp/\libucosii_bsp.a(os_core.o)
 .comment       0x00000000       0x27 C:/Users/jchang3/Documents/ECE492/test/software/accelerometer_pen50s_bsp/\libucosii_bsp.a(os_dbg.o)
 .comment       0x00000000       0x27 C:/Users/jchang3/Documents/ECE492/test/software/accelerometer_pen50s_bsp/\libucosii_bsp.a(os_flag.o)
 .comment       0x00000000       0x27 C:/Users/jchang3/Documents/ECE492/test/software/accelerometer_pen50s_bsp/\libucosii_bsp.a(os_mem.o)
 .comment       0x00000000       0x27 C:/Users/jchang3/Documents/ECE492/test/software/accelerometer_pen50s_bsp/\libucosii_bsp.a(os_q.o)
 .comment       0x00000000       0x27 C:/Users/jchang3/Documents/ECE492/test/software/accelerometer_pen50s_bsp/\libucosii_bsp.a(os_sem.o)
 .comment       0x00000000       0x27 C:/Users/jchang3/Documents/ECE492/test/software/accelerometer_pen50s_bsp/\libucosii_bsp.a(os_task.o)
 .comment       0x00000000       0x27 C:/Users/jchang3/Documents/ECE492/test/software/accelerometer_pen50s_bsp/\libucosii_bsp.a(os_time.o)
 .comment       0x00000000       0x27 C:/Users/jchang3/Documents/ECE492/test/software/accelerometer_pen50s_bsp/\libucosii_bsp.a(alt_sys_init.o)
 .comment       0x00000000       0x27 C:/Users/jchang3/Documents/ECE492/test/software/accelerometer_pen50s_bsp/\libucosii_bsp.a(altera_avalon_jtag_uart_fd.o)
 .comment       0x00000000       0x27 C:/Users/jchang3/Documents/ECE492/test/software/accelerometer_pen50s_bsp/\libucosii_bsp.a(altera_avalon_jtag_uart_init.o)
 .comment       0x00000000       0x27 C:/Users/jchang3/Documents/ECE492/test/software/accelerometer_pen50s_bsp/\libucosii_bsp.a(altera_avalon_jtag_uart_ioctl.o)
 .comment       0x00000000       0x27 C:/Users/jchang3/Documents/ECE492/test/software/accelerometer_pen50s_bsp/\libucosii_bsp.a(altera_avalon_jtag_uart_read.o)
 .comment       0x00000000       0x27 C:/Users/jchang3/Documents/ECE492/test/software/accelerometer_pen50s_bsp/\libucosii_bsp.a(altera_avalon_jtag_uart_write.o)
 .comment       0x00000000       0x27 C:/Users/jchang3/Documents/ECE492/test/software/accelerometer_pen50s_bsp/\libucosii_bsp.a(altera_avalon_timer_sc.o)
 .comment       0x00000000       0x27 C:/Users/jchang3/Documents/ECE492/test/software/accelerometer_pen50s_bsp/\libucosii_bsp.a(altera_up_avalon_character_lcd.o)
 .comment       0x00000000       0x27 C:/Users/jchang3/Documents/ECE492/test/software/accelerometer_pen50s_bsp/\libucosii_bsp.a(altera_up_avalon_rs232.o)
 .comment       0x00000000       0x27 C:/Users/jchang3/Documents/ECE492/test/software/accelerometer_pen50s_bsp/\libucosii_bsp.a(altera_up_sd_card_avalon_interface.o)
 .comment       0x00000000       0x27 C:/Users/jchang3/Documents/ECE492/test/software/accelerometer_pen50s_bsp/\libucosii_bsp.a(alt_alarm_start.o)
 .comment       0x00000000       0x27 C:/Users/jchang3/Documents/ECE492/test/software/accelerometer_pen50s_bsp/\libucosii_bsp.a(alt_dcache_flush_all.o)
 .comment       0x00000000       0x27 C:/Users/jchang3/Documents/ECE492/test/software/accelerometer_pen50s_bsp/\libucosii_bsp.a(alt_dev_llist_insert.o)
 .comment       0x00000000       0x27 C:/Users/jchang3/Documents/ECE492/test/software/accelerometer_pen50s_bsp/\libucosii_bsp.a(alt_do_ctors.o)
 .comment       0x00000000       0x27 C:/Users/jchang3/Documents/ECE492/test/software/accelerometer_pen50s_bsp/\libucosii_bsp.a(alt_do_dtors.o)
 .comment       0x00000000       0x27 C:/Users/jchang3/Documents/ECE492/test/software/accelerometer_pen50s_bsp/\libucosii_bsp.a(alt_find_dev.o)
 .comment       0x00000000       0x27 C:/Users/jchang3/Documents/ECE492/test/software/accelerometer_pen50s_bsp/\libucosii_bsp.a(alt_icache_flush_all.o)
 .comment       0x00000000       0x27 C:/Users/jchang3/Documents/ECE492/test/software/accelerometer_pen50s_bsp/\libucosii_bsp.a(alt_io_redirect.o)
 .comment       0x00000000       0x27 C:/Users/jchang3/Documents/ECE492/test/software/accelerometer_pen50s_bsp/\libucosii_bsp.a(alt_irq_register.o)
 .comment       0x00000000       0x27 C:/Users/jchang3/Documents/ECE492/test/software/accelerometer_pen50s_bsp/\libucosii_bsp.a(alt_irq_vars.o)
 .comment       0x00000000       0x27 C:/Users/jchang3/Documents/ECE492/test/software/accelerometer_pen50s_bsp/\libucosii_bsp.a(alt_open.o)
 .comment       0x00000000       0x27 C:/Users/jchang3/Documents/ECE492/test/software/accelerometer_pen50s_bsp/\libucosii_bsp.a(alt_tick.o)
 .comment       0x00000000       0x27 C:/Users/jchang3/Documents/ECE492/test/software/accelerometer_pen50s_bsp/\libucosii_bsp.a(altera_nios2_qsys_irq.o)
 .comment       0x00000000       0x27 C:/Users/jchang3/Documents/ECE492/test/software/accelerometer_pen50s_bsp/\libucosii_bsp.a(os_cpu_c.o)
 .comment       0x00000000       0x27 C:/Users/jchang3/Documents/ECE492/test/software/accelerometer_pen50s_bsp/\libucosii_bsp.a(alt_find_file.o)
 .comment       0x00000000       0x27 C:/Users/jchang3/Documents/ECE492/test/software/accelerometer_pen50s_bsp/\libucosii_bsp.a(alt_get_fd.o)
 .comment       0x00000000       0x27 C:/Users/jchang3/Documents/ECE492/test/software/accelerometer_pen50s_bsp/\libucosii_bsp.a(alt_icache_flush.o)
 .comment       0x00000000       0x27 C:/Users/jchang3/Documents/ECE492/test/software/accelerometer_pen50s_bsp/\libucosii_bsp.a(alt_irq_handler.o)
 .comment       0x00000000       0x27 c:/altera/12.1sp1/nios2eds/bin/gnu/h-i686-mingw32/bin/../lib/gcc/nios2-elf/4.1.2/../../../../nios2-elf/lib\libc.a(lib_a-atexit.o)
 .comment       0x00000000       0x27 c:/altera/12.1sp1/nios2eds/bin/gnu/h-i686-mingw32/bin/../lib/gcc/nios2-elf/4.1.2/../../../../nios2-elf/lib\libc.a(lib_a-exit.o)
 .comment       0x00000000       0x27 c:/altera/12.1sp1/nios2eds/bin/gnu/h-i686-mingw32/bin/../lib/gcc/nios2-elf/4.1.2/../../../../nios2-elf/lib\libc.a(lib_a-memcmp.o)
 .comment       0x00000000       0x27 c:/altera/12.1sp1/nios2eds/bin/gnu/h-i686-mingw32/bin/../lib/gcc/nios2-elf/4.1.2/../../../../nios2-elf/lib\libc.a(lib_a-__atexit.o)
 .comment       0x00000000       0x27 c:/altera/12.1sp1/nios2eds/bin/gnu/h-i686-mingw32/bin/../lib/gcc/nios2-elf/4.1.2/../../../../nios2-elf/lib\libc.a(lib_a-__call_atexit.o)
 .comment       0x00000000       0x27 C:/Users/jchang3/Documents/ECE492/test/software/accelerometer_pen50s_bsp/\libucosii_bsp.a(alt_exit.o)

.debug
 *(.debug)

.line
 *(.line)

.debug_srcinfo
 *(.debug_srcinfo)

.debug_sfnames
 *(.debug_sfnames)

.debug_aranges  0x00000000      0xf38
 *(.debug_aranges)
 .debug_aranges
                0x00000000       0x28 C:/Users/jchang3/Documents/ECE492/test/software/accelerometer_pen50s_bsp//obj/HAL/src/crt0.o
 .debug_aranges
                0x00000028       0x20 obj/default/dtw.o
 .debug_aranges
                0x00000048       0x20 obj/default/hello_ucosii.o
 .debug_aranges
                0x00000068       0x20 c:/altera/12.1sp1/nios2eds/bin/gnu/h-i686-mingw32/bin/../lib/gcc/nios2-elf/4.1.2/../../../../nios2-elf/lib\libm.a(lib_a-w_sqrt.o)
 .debug_aranges
                0x00000088       0x20 c:/altera/12.1sp1/nios2eds/bin/gnu/h-i686-mingw32/bin/../lib/gcc/nios2-elf/4.1.2/../../../../nios2-elf/lib\libm.a(lib_a-e_sqrt.o)
 .debug_aranges
                0x000000a8       0x20 c:/altera/12.1sp1/nios2eds/bin/gnu/h-i686-mingw32/bin/../lib/gcc/nios2-elf/4.1.2/../../../../nios2-elf/lib\libm.a(lib_a-s_isnand.o)
 .debug_aranges
                0x000000c8       0x20 c:/altera/12.1sp1/nios2eds/bin/gnu/h-i686-mingw32/bin/../lib/gcc/nios2-elf/4.1.2/../../../../nios2-elf/lib\libm.a(lib_a-s_matherr.o)
 .debug_aranges
                0x000000e8       0x20 c:/altera/12.1sp1/nios2eds/bin/gnu/h-i686-mingw32/bin/../lib/gcc/nios2-elf/4.1.2\libgcc.a(_muldi3.o)
 .debug_aranges
                0x00000108       0x20 c:/altera/12.1sp1/nios2eds/bin/gnu/h-i686-mingw32/bin/../lib/gcc/nios2-elf/4.1.2\libgcc.a(_fixdfdi.o)
 .debug_aranges
                0x00000128       0x20 c:/altera/12.1sp1/nios2eds/bin/gnu/h-i686-mingw32/bin/../lib/gcc/nios2-elf/4.1.2\libgcc.a(_fixunsdfdi.o)
 .debug_aranges
                0x00000148       0x20 c:/altera/12.1sp1/nios2eds/bin/gnu/h-i686-mingw32/bin/../lib/gcc/nios2-elf/4.1.2\libgcc.a(_floatdidf.o)
 .debug_aranges
                0x00000168       0x20 c:/altera/12.1sp1/nios2eds/bin/gnu/h-i686-mingw32/bin/../lib/gcc/nios2-elf/4.1.2\libgcc.a(_addsub_df.o)
 .debug_aranges
                0x00000188       0x20 c:/altera/12.1sp1/nios2eds/bin/gnu/h-i686-mingw32/bin/../lib/gcc/nios2-elf/4.1.2\libgcc.a(_mul_df.o)
 .debug_aranges
                0x000001a8       0x20 c:/altera/12.1sp1/nios2eds/bin/gnu/h-i686-mingw32/bin/../lib/gcc/nios2-elf/4.1.2\libgcc.a(_div_df.o)
 .debug_aranges
                0x000001c8       0x20 c:/altera/12.1sp1/nios2eds/bin/gnu/h-i686-mingw32/bin/../lib/gcc/nios2-elf/4.1.2\libgcc.a(_lt_df.o)
 .debug_aranges
                0x000001e8       0x20 c:/altera/12.1sp1/nios2eds/bin/gnu/h-i686-mingw32/bin/../lib/gcc/nios2-elf/4.1.2\libgcc.a(_si_to_df.o)
 .debug_aranges
                0x00000208       0x20 c:/altera/12.1sp1/nios2eds/bin/gnu/h-i686-mingw32/bin/../lib/gcc/nios2-elf/4.1.2\libgcc.a(_df_to_si.o)
 .debug_aranges
                0x00000228       0x20 c:/altera/12.1sp1/nios2eds/bin/gnu/h-i686-mingw32/bin/../lib/gcc/nios2-elf/4.1.2\libgcc.a(_usi_to_df.o)
 .debug_aranges
                0x00000248       0x20 c:/altera/12.1sp1/nios2eds/bin/gnu/h-i686-mingw32/bin/../lib/gcc/nios2-elf/4.1.2\libgcc.a(_clzsi2.o)
 .debug_aranges
                0x00000268       0x20 c:/altera/12.1sp1/nios2eds/bin/gnu/h-i686-mingw32/bin/../lib/gcc/nios2-elf/4.1.2\libgcc.a(_fixunsdfsi.o)
 .debug_aranges
                0x00000288       0x20 c:/altera/12.1sp1/nios2eds/bin/gnu/h-i686-mingw32/bin/../lib/gcc/nios2-elf/4.1.2\libgcc.a(_pack_df.o)
 .debug_aranges
                0x000002a8       0x20 c:/altera/12.1sp1/nios2eds/bin/gnu/h-i686-mingw32/bin/../lib/gcc/nios2-elf/4.1.2\libgcc.a(_unpack_df.o)
 .debug_aranges
                0x000002c8       0x20 c:/altera/12.1sp1/nios2eds/bin/gnu/h-i686-mingw32/bin/../lib/gcc/nios2-elf/4.1.2\libgcc.a(_fpcmp_parts_df.o)
 .debug_aranges
                0x000002e8       0x20 c:/altera/12.1sp1/nios2eds/bin/gnu/h-i686-mingw32/bin/../lib/gcc/nios2-elf/4.1.2\libgcc.a(_ge_df.o)
 .debug_aranges
                0x00000308       0x20 c:/altera/12.1sp1/nios2eds/bin/gnu/h-i686-mingw32/bin/../lib/gcc/nios2-elf/4.1.2/../../../../nios2-elf/lib\libc.a(lib_a-errno.o)
 .debug_aranges
                0x00000328       0x20 c:/altera/12.1sp1/nios2eds/bin/gnu/h-i686-mingw32/bin/../lib/gcc/nios2-elf/4.1.2/../../../../nios2-elf/lib\libc.a(lib_a-printf.o)
 .debug_aranges
                0x00000348       0x20 c:/altera/12.1sp1/nios2eds/bin/gnu/h-i686-mingw32/bin/../lib/gcc/nios2-elf/4.1.2/../../../../nios2-elf/lib\libc.a(lib_a-puts.o)
 .debug_aranges
                0x00000368       0x20 c:/altera/12.1sp1/nios2eds/bin/gnu/h-i686-mingw32/bin/../lib/gcc/nios2-elf/4.1.2/../../../../nios2-elf/lib\libc.a(lib_a-strlen.o)
 .debug_aranges
                0x00000388       0x20 c:/altera/12.1sp1/nios2eds/bin/gnu/h-i686-mingw32/bin/../lib/gcc/nios2-elf/4.1.2/../../../../nios2-elf/lib\libc.a(lib_a-vfprintf.o)
 .debug_aranges
                0x000003a8       0x20 c:/altera/12.1sp1/nios2eds/bin/gnu/h-i686-mingw32/bin/../lib/gcc/nios2-elf/4.1.2/../../../../nios2-elf/lib\libc.a(lib_a-wsetup.o)
 .debug_aranges
                0x000003c8       0x20 c:/altera/12.1sp1/nios2eds/bin/gnu/h-i686-mingw32/bin/../lib/gcc/nios2-elf/4.1.2/../../../../nios2-elf/lib\libc.a(lib_a-dtoa.o)
 .debug_aranges
                0x000003e8       0x20 c:/altera/12.1sp1/nios2eds/bin/gnu/h-i686-mingw32/bin/../lib/gcc/nios2-elf/4.1.2/../../../../nios2-elf/lib\libc.a(lib_a-fflush.o)
 .debug_aranges
                0x00000408       0x20 c:/altera/12.1sp1/nios2eds/bin/gnu/h-i686-mingw32/bin/../lib/gcc/nios2-elf/4.1.2/../../../../nios2-elf/lib\libc.a(lib_a-findfp.o)
 .debug_aranges
                0x00000428       0x20 c:/altera/12.1sp1/nios2eds/bin/gnu/h-i686-mingw32/bin/../lib/gcc/nios2-elf/4.1.2/../../../../nios2-elf/lib\libc.a(lib_a-freer.o)
 .debug_aranges
                0x00000448       0x20 c:/altera/12.1sp1/nios2eds/bin/gnu/h-i686-mingw32/bin/../lib/gcc/nios2-elf/4.1.2/../../../../nios2-elf/lib\libc.a(lib_a-fvwrite.o)
 .debug_aranges
                0x00000468       0x20 c:/altera/12.1sp1/nios2eds/bin/gnu/h-i686-mingw32/bin/../lib/gcc/nios2-elf/4.1.2/../../../../nios2-elf/lib\libc.a(lib_a-fwalk.o)
 .debug_aranges
                0x00000488       0x20 c:/altera/12.1sp1/nios2eds/bin/gnu/h-i686-mingw32/bin/../lib/gcc/nios2-elf/4.1.2/../../../../nios2-elf/lib\libc.a(lib_a-locale.o)
 .debug_aranges
                0x000004a8       0x20 c:/altera/12.1sp1/nios2eds/bin/gnu/h-i686-mingw32/bin/../lib/gcc/nios2-elf/4.1.2/../../../../nios2-elf/lib\libc.a(lib_a-makebuf.o)
 .debug_aranges
                0x000004c8       0x20 c:/altera/12.1sp1/nios2eds/bin/gnu/h-i686-mingw32/bin/../lib/gcc/nios2-elf/4.1.2/../../../../nios2-elf/lib\libc.a(lib_a-mallocr.o)
 .debug_aranges
                0x000004e8       0x20 c:/altera/12.1sp1/nios2eds/bin/gnu/h-i686-mingw32/bin/../lib/gcc/nios2-elf/4.1.2/../../../../nios2-elf/lib\libc.a(lib_a-memchr.o)
 .debug_aranges
                0x00000508       0x20 c:/altera/12.1sp1/nios2eds/bin/gnu/h-i686-mingw32/bin/../lib/gcc/nios2-elf/4.1.2/../../../../nios2-elf/lib\libc.a(lib_a-memcpy.o)
 .debug_aranges
                0x00000528       0x20 c:/altera/12.1sp1/nios2eds/bin/gnu/h-i686-mingw32/bin/../lib/gcc/nios2-elf/4.1.2/../../../../nios2-elf/lib\libc.a(lib_a-memmove.o)
 .debug_aranges
                0x00000548       0x20 c:/altera/12.1sp1/nios2eds/bin/gnu/h-i686-mingw32/bin/../lib/gcc/nios2-elf/4.1.2/../../../../nios2-elf/lib\libc.a(lib_a-memset.o)
 .debug_aranges
                0x00000568       0x20 c:/altera/12.1sp1/nios2eds/bin/gnu/h-i686-mingw32/bin/../lib/gcc/nios2-elf/4.1.2/../../../../nios2-elf/lib\libc.a(lib_a-mprec.o)
 .debug_aranges
                0x00000588       0x20 c:/altera/12.1sp1/nios2eds/bin/gnu/h-i686-mingw32/bin/../lib/gcc/nios2-elf/4.1.2/../../../../nios2-elf/lib\libc.a(lib_a-reallocr.o)
 .debug_aranges
                0x000005a8       0x20 c:/altera/12.1sp1/nios2eds/bin/gnu/h-i686-mingw32/bin/../lib/gcc/nios2-elf/4.1.2/../../../../nios2-elf/lib\libc.a(lib_a-s_isinfd.o)
 .debug_aranges
                0x000005c8       0x20 c:/altera/12.1sp1/nios2eds/bin/gnu/h-i686-mingw32/bin/../lib/gcc/nios2-elf/4.1.2/../../../../nios2-elf/lib\libc.a(lib_a-sbrkr.o)
 .debug_aranges
                0x000005e8       0x20 c:/altera/12.1sp1/nios2eds/bin/gnu/h-i686-mingw32/bin/../lib/gcc/nios2-elf/4.1.2/../../../../nios2-elf/lib\libc.a(lib_a-stdio.o)
 .debug_aranges
                0x00000608       0x20 c:/altera/12.1sp1/nios2eds/bin/gnu/h-i686-mingw32/bin/../lib/gcc/nios2-elf/4.1.2/../../../../nios2-elf/lib\libc.a(lib_a-strcmp.o)
 .debug_aranges
                0x00000628       0x20 c:/altera/12.1sp1/nios2eds/bin/gnu/h-i686-mingw32/bin/../lib/gcc/nios2-elf/4.1.2/../../../../nios2-elf/lib\libc.a(lib_a-writer.o)
 .debug_aranges
                0x00000648       0x20 c:/altera/12.1sp1/nios2eds/bin/gnu/h-i686-mingw32/bin/../lib/gcc/nios2-elf/4.1.2/../../../../nios2-elf/lib\libc.a(lib_a-callocr.o)
 .debug_aranges
                0x00000668       0x20 c:/altera/12.1sp1/nios2eds/bin/gnu/h-i686-mingw32/bin/../lib/gcc/nios2-elf/4.1.2/../../../../nios2-elf/lib\libc.a(lib_a-closer.o)
 .debug_aranges
                0x00000688       0x20 c:/altera/12.1sp1/nios2eds/bin/gnu/h-i686-mingw32/bin/../lib/gcc/nios2-elf/4.1.2/../../../../nios2-elf/lib\libc.a(lib_a-fclose.o)
 .debug_aranges
                0x000006a8       0x20 c:/altera/12.1sp1/nios2eds/bin/gnu/h-i686-mingw32/bin/../lib/gcc/nios2-elf/4.1.2/../../../../nios2-elf/lib\libc.a(lib_a-fstatr.o)
 .debug_aranges
                0x000006c8       0x20 c:/altera/12.1sp1/nios2eds/bin/gnu/h-i686-mingw32/bin/../lib/gcc/nios2-elf/4.1.2/../../../../nios2-elf/lib\libc.a(lib_a-isattyr.o)
 .debug_aranges
                0x000006e8       0x20 c:/altera/12.1sp1/nios2eds/bin/gnu/h-i686-mingw32/bin/../lib/gcc/nios2-elf/4.1.2/../../../../nios2-elf/lib\libc.a(lib_a-lseekr.o)
 .debug_aranges
                0x00000708       0x20 c:/altera/12.1sp1/nios2eds/bin/gnu/h-i686-mingw32/bin/../lib/gcc/nios2-elf/4.1.2/../../../../nios2-elf/lib\libc.a(lib_a-readr.o)
 .debug_aranges
                0x00000728       0x20 c:/altera/12.1sp1/nios2eds/bin/gnu/h-i686-mingw32/bin/../lib/gcc/nios2-elf/4.1.2\libgcc.a(_udivdi3.o)
 .debug_aranges
                0x00000748       0x20 c:/altera/12.1sp1/nios2eds/bin/gnu/h-i686-mingw32/bin/../lib/gcc/nios2-elf/4.1.2\libgcc.a(_umoddi3.o)
 .debug_aranges
                0x00000768       0x20 c:/altera/12.1sp1/nios2eds/bin/gnu/h-i686-mingw32/bin/../lib/gcc/nios2-elf/4.1.2\libgcc.a(_eq_df.o)
 .debug_aranges
                0x00000788       0x20 c:/altera/12.1sp1/nios2eds/bin/gnu/h-i686-mingw32/bin/../lib/gcc/nios2-elf/4.1.2\libgcc.a(_ne_df.o)
 .debug_aranges
                0x000007a8       0x20 c:/altera/12.1sp1/nios2eds/bin/gnu/h-i686-mingw32/bin/../lib/gcc/nios2-elf/4.1.2\libgcc.a(_gt_df.o)
 .debug_aranges
                0x000007c8       0x20 c:/altera/12.1sp1/nios2eds/bin/gnu/h-i686-mingw32/bin/../lib/gcc/nios2-elf/4.1.2\libgcc.a(lib2-divmod.o)
 .debug_aranges
                0x000007e8       0x20 C:/Users/jchang3/Documents/ECE492/test/software/accelerometer_pen50s_bsp/\libucosii_bsp.a(alt_close.o)
 .debug_aranges
                0x00000808       0x20 C:/Users/jchang3/Documents/ECE492/test/software/accelerometer_pen50s_bsp/\libucosii_bsp.a(alt_dev.o)
 .debug_aranges
                0x00000828       0x20 C:/Users/jchang3/Documents/ECE492/test/software/accelerometer_pen50s_bsp/\libucosii_bsp.a(alt_fstat.o)
 .debug_aranges
                0x00000848       0x20 C:/Users/jchang3/Documents/ECE492/test/software/accelerometer_pen50s_bsp/\libucosii_bsp.a(alt_isatty.o)
 .debug_aranges
                0x00000868       0x20 C:/Users/jchang3/Documents/ECE492/test/software/accelerometer_pen50s_bsp/\libucosii_bsp.a(alt_load.o)
 .debug_aranges
                0x00000888       0x20 C:/Users/jchang3/Documents/ECE492/test/software/accelerometer_pen50s_bsp/\libucosii_bsp.a(alt_lseek.o)
 .debug_aranges
                0x000008a8       0x20 C:/Users/jchang3/Documents/ECE492/test/software/accelerometer_pen50s_bsp/\libucosii_bsp.a(alt_main.o)
 .debug_aranges
                0x000008c8       0x20 C:/Users/jchang3/Documents/ECE492/test/software/accelerometer_pen50s_bsp/\libucosii_bsp.a(alt_read.o)
 .debug_aranges
                0x000008e8       0x20 C:/Users/jchang3/Documents/ECE492/test/software/accelerometer_pen50s_bsp/\libucosii_bsp.a(alt_release_fd.o)
 .debug_aranges
                0x00000908       0x20 C:/Users/jchang3/Documents/ECE492/test/software/accelerometer_pen50s_bsp/\libucosii_bsp.a(alt_sbrk.o)
 .debug_aranges
                0x00000928       0x20 C:/Users/jchang3/Documents/ECE492/test/software/accelerometer_pen50s_bsp/\libucosii_bsp.a(alt_write.o)
 .debug_aranges
                0x00000948       0x20 C:/Users/jchang3/Documents/ECE492/test/software/accelerometer_pen50s_bsp/\libucosii_bsp.a(alt_env_lock.o)
 .debug_aranges
                0x00000968       0x20 C:/Users/jchang3/Documents/ECE492/test/software/accelerometer_pen50s_bsp/\libucosii_bsp.a(alt_malloc_lock.o)
 .debug_aranges
                0x00000988       0x20 C:/Users/jchang3/Documents/ECE492/test/software/accelerometer_pen50s_bsp/\libucosii_bsp.a(os_core.o)
 .debug_aranges
                0x000009a8       0x20 C:/Users/jchang3/Documents/ECE492/test/software/accelerometer_pen50s_bsp/\libucosii_bsp.a(os_dbg.o)
 .debug_aranges
                0x000009c8       0x20 C:/Users/jchang3/Documents/ECE492/test/software/accelerometer_pen50s_bsp/\libucosii_bsp.a(os_flag.o)
 .debug_aranges
                0x000009e8       0x20 C:/Users/jchang3/Documents/ECE492/test/software/accelerometer_pen50s_bsp/\libucosii_bsp.a(os_mem.o)
 .debug_aranges
                0x00000a08       0x20 C:/Users/jchang3/Documents/ECE492/test/software/accelerometer_pen50s_bsp/\libucosii_bsp.a(os_q.o)
 .debug_aranges
                0x00000a28       0x20 C:/Users/jchang3/Documents/ECE492/test/software/accelerometer_pen50s_bsp/\libucosii_bsp.a(os_sem.o)
 .debug_aranges
                0x00000a48       0x20 C:/Users/jchang3/Documents/ECE492/test/software/accelerometer_pen50s_bsp/\libucosii_bsp.a(os_task.o)
 .debug_aranges
                0x00000a68       0x20 C:/Users/jchang3/Documents/ECE492/test/software/accelerometer_pen50s_bsp/\libucosii_bsp.a(os_time.o)
 .debug_aranges
                0x00000a88       0x20 C:/Users/jchang3/Documents/ECE492/test/software/accelerometer_pen50s_bsp/\libucosii_bsp.a(alt_sys_init.o)
 .debug_aranges
                0x00000aa8       0x20 C:/Users/jchang3/Documents/ECE492/test/software/accelerometer_pen50s_bsp/\libucosii_bsp.a(altera_avalon_jtag_uart_fd.o)
 .debug_aranges
                0x00000ac8       0x20 C:/Users/jchang3/Documents/ECE492/test/software/accelerometer_pen50s_bsp/\libucosii_bsp.a(altera_avalon_jtag_uart_init.o)
 .debug_aranges
                0x00000ae8       0x20 C:/Users/jchang3/Documents/ECE492/test/software/accelerometer_pen50s_bsp/\libucosii_bsp.a(altera_avalon_jtag_uart_ioctl.o)
 .debug_aranges
                0x00000b08       0x20 C:/Users/jchang3/Documents/ECE492/test/software/accelerometer_pen50s_bsp/\libucosii_bsp.a(altera_avalon_jtag_uart_read.o)
 .debug_aranges
                0x00000b28       0x20 C:/Users/jchang3/Documents/ECE492/test/software/accelerometer_pen50s_bsp/\libucosii_bsp.a(altera_avalon_jtag_uart_write.o)
 .debug_aranges
                0x00000b48       0x20 C:/Users/jchang3/Documents/ECE492/test/software/accelerometer_pen50s_bsp/\libucosii_bsp.a(altera_avalon_timer_sc.o)
 .debug_aranges
                0x00000b68       0x20 C:/Users/jchang3/Documents/ECE492/test/software/accelerometer_pen50s_bsp/\libucosii_bsp.a(altera_up_avalon_character_lcd.o)
 .debug_aranges
                0x00000b88       0x20 C:/Users/jchang3/Documents/ECE492/test/software/accelerometer_pen50s_bsp/\libucosii_bsp.a(altera_up_avalon_rs232.o)
 .debug_aranges
                0x00000ba8       0x20 C:/Users/jchang3/Documents/ECE492/test/software/accelerometer_pen50s_bsp/\libucosii_bsp.a(altera_up_sd_card_avalon_interface.o)
 .debug_aranges
                0x00000bc8       0x20 C:/Users/jchang3/Documents/ECE492/test/software/accelerometer_pen50s_bsp/\libucosii_bsp.a(alt_alarm_start.o)
 .debug_aranges
                0x00000be8       0x20 C:/Users/jchang3/Documents/ECE492/test/software/accelerometer_pen50s_bsp/\libucosii_bsp.a(alt_dcache_flush_all.o)
 .debug_aranges
                0x00000c08       0x20 C:/Users/jchang3/Documents/ECE492/test/software/accelerometer_pen50s_bsp/\libucosii_bsp.a(alt_dev_llist_insert.o)
 .debug_aranges
                0x00000c28       0x20 C:/Users/jchang3/Documents/ECE492/test/software/accelerometer_pen50s_bsp/\libucosii_bsp.a(alt_do_ctors.o)
 .debug_aranges
                0x00000c48       0x20 C:/Users/jchang3/Documents/ECE492/test/software/accelerometer_pen50s_bsp/\libucosii_bsp.a(alt_do_dtors.o)
 .debug_aranges
                0x00000c68       0x20 C:/Users/jchang3/Documents/ECE492/test/software/accelerometer_pen50s_bsp/\libucosii_bsp.a(alt_find_dev.o)
 .debug_aranges
                0x00000c88       0x20 C:/Users/jchang3/Documents/ECE492/test/software/accelerometer_pen50s_bsp/\libucosii_bsp.a(alt_icache_flush_all.o)
 .debug_aranges
                0x00000ca8       0x20 C:/Users/jchang3/Documents/ECE492/test/software/accelerometer_pen50s_bsp/\libucosii_bsp.a(alt_io_redirect.o)
 .debug_aranges
                0x00000cc8       0x20 C:/Users/jchang3/Documents/ECE492/test/software/accelerometer_pen50s_bsp/\libucosii_bsp.a(alt_irq_register.o)
 .debug_aranges
                0x00000ce8       0x20 C:/Users/jchang3/Documents/ECE492/test/software/accelerometer_pen50s_bsp/\libucosii_bsp.a(alt_open.o)
 .debug_aranges
                0x00000d08       0x20 C:/Users/jchang3/Documents/ECE492/test/software/accelerometer_pen50s_bsp/\libucosii_bsp.a(alt_tick.o)
 .debug_aranges
                0x00000d28       0x20 C:/Users/jchang3/Documents/ECE492/test/software/accelerometer_pen50s_bsp/\libucosii_bsp.a(altera_nios2_qsys_irq.o)
 .debug_aranges
                0x00000d48       0x20 C:/Users/jchang3/Documents/ECE492/test/software/accelerometer_pen50s_bsp/\libucosii_bsp.a(os_cpu_a.o)
 .debug_aranges
                0x00000d68       0x20 C:/Users/jchang3/Documents/ECE492/test/software/accelerometer_pen50s_bsp/\libucosii_bsp.a(os_cpu_c.o)
 .debug_aranges
                0x00000d88       0x20 C:/Users/jchang3/Documents/ECE492/test/software/accelerometer_pen50s_bsp/\libucosii_bsp.a(alt_find_file.o)
 .debug_aranges
                0x00000da8       0x20 C:/Users/jchang3/Documents/ECE492/test/software/accelerometer_pen50s_bsp/\libucosii_bsp.a(alt_get_fd.o)
 .debug_aranges
                0x00000dc8       0x20 C:/Users/jchang3/Documents/ECE492/test/software/accelerometer_pen50s_bsp/\libucosii_bsp.a(alt_icache_flush.o)
 .debug_aranges
                0x00000de8       0x30 C:/Users/jchang3/Documents/ECE492/test/software/accelerometer_pen50s_bsp/\libucosii_bsp.a(alt_irq_entry.o)
 .debug_aranges
                0x00000e18       0x28 C:/Users/jchang3/Documents/ECE492/test/software/accelerometer_pen50s_bsp/\libucosii_bsp.a(alt_irq_handler.o)
 .debug_aranges
                0x00000e40       0x38 C:/Users/jchang3/Documents/ECE492/test/software/accelerometer_pen50s_bsp/\libucosii_bsp.a(alt_exception_entry.o)
 .debug_aranges
                0x00000e78       0x20 c:/altera/12.1sp1/nios2eds/bin/gnu/h-i686-mingw32/bin/../lib/gcc/nios2-elf/4.1.2/../../../../nios2-elf/lib\libc.a(lib_a-atexit.o)
 .debug_aranges
                0x00000e98       0x20 c:/altera/12.1sp1/nios2eds/bin/gnu/h-i686-mingw32/bin/../lib/gcc/nios2-elf/4.1.2/../../../../nios2-elf/lib\libc.a(lib_a-exit.o)
 .debug_aranges
                0x00000eb8       0x20 c:/altera/12.1sp1/nios2eds/bin/gnu/h-i686-mingw32/bin/../lib/gcc/nios2-elf/4.1.2/../../../../nios2-elf/lib\libc.a(lib_a-memcmp.o)
 .debug_aranges
                0x00000ed8       0x20 c:/altera/12.1sp1/nios2eds/bin/gnu/h-i686-mingw32/bin/../lib/gcc/nios2-elf/4.1.2/../../../../nios2-elf/lib\libc.a(lib_a-__atexit.o)
 .debug_aranges
                0x00000ef8       0x20 c:/altera/12.1sp1/nios2eds/bin/gnu/h-i686-mingw32/bin/../lib/gcc/nios2-elf/4.1.2/../../../../nios2-elf/lib\libc.a(lib_a-__call_atexit.o)
 .debug_aranges
                0x00000f18       0x20 C:/Users/jchang3/Documents/ECE492/test/software/accelerometer_pen50s_bsp/\libucosii_bsp.a(alt_exit.o)

.debug_pubnames
                0x00000000     0x2bf5
 *(.debug_pubnames)
 .debug_pubnames
                0x00000000       0x41 obj/default/dtw.o
 .debug_pubnames
                0x00000041      0x2a2 obj/default/hello_ucosii.o
 .debug_pubnames
                0x000002e3       0x1b c:/altera/12.1sp1/nios2eds/bin/gnu/h-i686-mingw32/bin/../lib/gcc/nios2-elf/4.1.2/../../../../nios2-elf/lib\libm.a(lib_a-w_sqrt.o)
 .debug_pubnames
                0x000002fe       0x25 c:/altera/12.1sp1/nios2eds/bin/gnu/h-i686-mingw32/bin/../lib/gcc/nios2-elf/4.1.2/../../../../nios2-elf/lib\libm.a(lib_a-e_sqrt.o)
 .debug_pubnames
                0x00000323       0x1f c:/altera/12.1sp1/nios2eds/bin/gnu/h-i686-mingw32/bin/../lib/gcc/nios2-elf/4.1.2/../../../../nios2-elf/lib\libm.a(lib_a-s_isnand.o)
 .debug_pubnames
                0x00000342       0x26 c:/altera/12.1sp1/nios2eds/bin/gnu/h-i686-mingw32/bin/../lib/gcc/nios2-elf/4.1.2/../../../../nios2-elf/lib\libm.a(lib_a-s_lib_ver.o)
 .debug_pubnames
                0x00000368       0x1e c:/altera/12.1sp1/nios2eds/bin/gnu/h-i686-mingw32/bin/../lib/gcc/nios2-elf/4.1.2/../../../../nios2-elf/lib\libm.a(lib_a-s_matherr.o)
 .debug_pubnames
                0x00000386       0x1f c:/altera/12.1sp1/nios2eds/bin/gnu/h-i686-mingw32/bin/../lib/gcc/nios2-elf/4.1.2\libgcc.a(_muldi3.o)
 .debug_pubnames
                0x000003a5       0x20 c:/altera/12.1sp1/nios2eds/bin/gnu/h-i686-mingw32/bin/../lib/gcc/nios2-elf/4.1.2\libgcc.a(_fixdfdi.o)
 .debug_pubnames
                0x000003c5       0x23 c:/altera/12.1sp1/nios2eds/bin/gnu/h-i686-mingw32/bin/../lib/gcc/nios2-elf/4.1.2\libgcc.a(_fixunsdfdi.o)
 .debug_pubnames
                0x000003e8       0x22 c:/altera/12.1sp1/nios2eds/bin/gnu/h-i686-mingw32/bin/../lib/gcc/nios2-elf/4.1.2\libgcc.a(_floatdidf.o)
 .debug_pubnames
                0x0000040a       0x2c c:/altera/12.1sp1/nios2eds/bin/gnu/h-i686-mingw32/bin/../lib/gcc/nios2-elf/4.1.2\libgcc.a(_addsub_df.o)
 .debug_pubnames
                0x00000436       0x1f c:/altera/12.1sp1/nios2eds/bin/gnu/h-i686-mingw32/bin/../lib/gcc/nios2-elf/4.1.2\libgcc.a(_mul_df.o)
 .debug_pubnames
                0x00000455       0x1f c:/altera/12.1sp1/nios2eds/bin/gnu/h-i686-mingw32/bin/../lib/gcc/nios2-elf/4.1.2\libgcc.a(_div_df.o)
 .debug_pubnames
                0x00000474       0x1e c:/altera/12.1sp1/nios2eds/bin/gnu/h-i686-mingw32/bin/../lib/gcc/nios2-elf/4.1.2\libgcc.a(_lt_df.o)
 .debug_pubnames
                0x00000492       0x22 c:/altera/12.1sp1/nios2eds/bin/gnu/h-i686-mingw32/bin/../lib/gcc/nios2-elf/4.1.2\libgcc.a(_si_to_df.o)
 .debug_pubnames
                0x000004b4       0x20 c:/altera/12.1sp1/nios2eds/bin/gnu/h-i686-mingw32/bin/../lib/gcc/nios2-elf/4.1.2\libgcc.a(_df_to_si.o)
 .debug_pubnames
                0x000004d4       0x22 c:/altera/12.1sp1/nios2eds/bin/gnu/h-i686-mingw32/bin/../lib/gcc/nios2-elf/4.1.2\libgcc.a(_thenan_df.o)
 .debug_pubnames
                0x000004f6       0x24 c:/altera/12.1sp1/nios2eds/bin/gnu/h-i686-mingw32/bin/../lib/gcc/nios2-elf/4.1.2\libgcc.a(_usi_to_df.o)
 .debug_pubnames
                0x0000051a       0x1f c:/altera/12.1sp1/nios2eds/bin/gnu/h-i686-mingw32/bin/../lib/gcc/nios2-elf/4.1.2\libgcc.a(_clzsi2.o)
 .debug_pubnames
                0x00000539       0x23 c:/altera/12.1sp1/nios2eds/bin/gnu/h-i686-mingw32/bin/../lib/gcc/nios2-elf/4.1.2\libgcc.a(_fixunsdfsi.o)
 .debug_pubnames
                0x0000055c       0x1f c:/altera/12.1sp1/nios2eds/bin/gnu/h-i686-mingw32/bin/../lib/gcc/nios2-elf/4.1.2\libgcc.a(_pack_df.o)
 .debug_pubnames
                0x0000057b       0x21 c:/altera/12.1sp1/nios2eds/bin/gnu/h-i686-mingw32/bin/../lib/gcc/nios2-elf/4.1.2\libgcc.a(_unpack_df.o)
 .debug_pubnames
                0x0000059c       0x26 c:/altera/12.1sp1/nios2eds/bin/gnu/h-i686-mingw32/bin/../lib/gcc/nios2-elf/4.1.2\libgcc.a(_fpcmp_parts_df.o)
 .debug_pubnames
                0x000005c2       0x1e c:/altera/12.1sp1/nios2eds/bin/gnu/h-i686-mingw32/bin/../lib/gcc/nios2-elf/4.1.2\libgcc.a(_ge_df.o)
 .debug_pubnames
                0x000005e0       0x20 c:/altera/12.1sp1/nios2eds/bin/gnu/h-i686-mingw32/bin/../lib/gcc/nios2-elf/4.1.2\libgcc.a(_clz.o)
 .debug_pubnames
                0x00000600       0x1e c:/altera/12.1sp1/nios2eds/bin/gnu/h-i686-mingw32/bin/../lib/gcc/nios2-elf/4.1.2/../../../../nios2-elf/lib\libc.a(lib_a-errno.o)
 .debug_pubnames
                0x0000061e       0x39 c:/altera/12.1sp1/nios2eds/bin/gnu/h-i686-mingw32/bin/../lib/gcc/nios2-elf/4.1.2/../../../../nios2-elf/lib\libc.a(lib_a-impure.o)
 .debug_pubnames
                0x00000657       0x2b c:/altera/12.1sp1/nios2eds/bin/gnu/h-i686-mingw32/bin/../lib/gcc/nios2-elf/4.1.2/../../../../nios2-elf/lib\libc.a(lib_a-printf.o)
 .debug_pubnames
                0x00000682       0x27 c:/altera/12.1sp1/nios2eds/bin/gnu/h-i686-mingw32/bin/../lib/gcc/nios2-elf/4.1.2/../../../../nios2-elf/lib\libc.a(lib_a-puts.o)
 .debug_pubnames
                0x000006a9       0x1d c:/altera/12.1sp1/nios2eds/bin/gnu/h-i686-mingw32/bin/../lib/gcc/nios2-elf/4.1.2/../../../../nios2-elf/lib\libc.a(lib_a-strlen.o)
 .debug_pubnames
                0x000006c6       0x45 c:/altera/12.1sp1/nios2eds/bin/gnu/h-i686-mingw32/bin/../lib/gcc/nios2-elf/4.1.2/../../../../nios2-elf/lib\libc.a(lib_a-vfprintf.o)
 .debug_pubnames
                0x0000070b       0x22 c:/altera/12.1sp1/nios2eds/bin/gnu/h-i686-mingw32/bin/../lib/gcc/nios2-elf/4.1.2/../../../../nios2-elf/lib\libc.a(lib_a-wsetup.o)
 .debug_pubnames
                0x0000072d       0x1e c:/altera/12.1sp1/nios2eds/bin/gnu/h-i686-mingw32/bin/../lib/gcc/nios2-elf/4.1.2/../../../../nios2-elf/lib\libc.a(lib_a-dtoa.o)
 .debug_pubnames
                0x0000074b       0x2b c:/altera/12.1sp1/nios2eds/bin/gnu/h-i686-mingw32/bin/../lib/gcc/nios2-elf/4.1.2/../../../../nios2-elf/lib\libc.a(lib_a-fflush.o)
 .debug_pubnames
                0x00000776       0xdb c:/altera/12.1sp1/nios2eds/bin/gnu/h-i686-mingw32/bin/../lib/gcc/nios2-elf/4.1.2/../../../../nios2-elf/lib\libc.a(lib_a-findfp.o)
 .debug_pubnames
                0x00000851       0x31 c:/altera/12.1sp1/nios2eds/bin/gnu/h-i686-mingw32/bin/../lib/gcc/nios2-elf/4.1.2/../../../../nios2-elf/lib\libc.a(lib_a-freer.o)
 .debug_pubnames
                0x00000882       0x23 c:/altera/12.1sp1/nios2eds/bin/gnu/h-i686-mingw32/bin/../lib/gcc/nios2-elf/4.1.2/../../../../nios2-elf/lib\libc.a(lib_a-fvwrite.o)
 .debug_pubnames
                0x000008a5       0x2e c:/altera/12.1sp1/nios2eds/bin/gnu/h-i686-mingw32/bin/../lib/gcc/nios2-elf/4.1.2/../../../../nios2-elf/lib\libc.a(lib_a-fwalk.o)
 .debug_pubnames
                0x000008d3       0xc3 c:/altera/12.1sp1/nios2eds/bin/gnu/h-i686-mingw32/bin/../lib/gcc/nios2-elf/4.1.2/../../../../nios2-elf/lib\libc.a(lib_a-locale.o)
 .debug_pubnames
                0x00000996       0x23 c:/altera/12.1sp1/nios2eds/bin/gnu/h-i686-mingw32/bin/../lib/gcc/nios2-elf/4.1.2/../../../../nios2-elf/lib\libc.a(lib_a-makebuf.o)
 .debug_pubnames
                0x000009b9       0xce c:/altera/12.1sp1/nios2eds/bin/gnu/h-i686-mingw32/bin/../lib/gcc/nios2-elf/4.1.2/../../../../nios2-elf/lib\libc.a(lib_a-mallocr.o)
 .debug_pubnames
                0x00000a87       0x1d c:/altera/12.1sp1/nios2eds/bin/gnu/h-i686-mingw32/bin/../lib/gcc/nios2-elf/4.1.2/../../../../nios2-elf/lib\libc.a(lib_a-memchr.o)
 .debug_pubnames
                0x00000aa4       0x1d c:/altera/12.1sp1/nios2eds/bin/gnu/h-i686-mingw32/bin/../lib/gcc/nios2-elf/4.1.2/../../../../nios2-elf/lib\libc.a(lib_a-memcpy.o)
 .debug_pubnames
                0x00000ac1       0x1e c:/altera/12.1sp1/nios2eds/bin/gnu/h-i686-mingw32/bin/../lib/gcc/nios2-elf/4.1.2/../../../../nios2-elf/lib\libc.a(lib_a-memmove.o)
 .debug_pubnames
                0x00000adf       0x1d c:/altera/12.1sp1/nios2eds/bin/gnu/h-i686-mingw32/bin/../lib/gcc/nios2-elf/4.1.2/../../../../nios2-elf/lib\libc.a(lib_a-memset.o)
 .debug_pubnames
                0x00000afc      0x13a c:/altera/12.1sp1/nios2eds/bin/gnu/h-i686-mingw32/bin/../lib/gcc/nios2-elf/4.1.2/../../../../nios2-elf/lib\libc.a(lib_a-mprec.o)
 .debug_pubnames
                0x00000c36       0x21 c:/altera/12.1sp1/nios2eds/bin/gnu/h-i686-mingw32/bin/../lib/gcc/nios2-elf/4.1.2/../../../../nios2-elf/lib\libc.a(lib_a-reallocr.o)
 .debug_pubnames
                0x00000c57       0x1f c:/altera/12.1sp1/nios2eds/bin/gnu/h-i686-mingw32/bin/../lib/gcc/nios2-elf/4.1.2/../../../../nios2-elf/lib\libc.a(lib_a-s_isinfd.o)
 .debug_pubnames
                0x00000c76       0x1e c:/altera/12.1sp1/nios2eds/bin/gnu/h-i686-mingw32/bin/../lib/gcc/nios2-elf/4.1.2/../../../../nios2-elf/lib\libc.a(lib_a-sbrkr.o)
 .debug_pubnames
                0x00000c94       0x44 c:/altera/12.1sp1/nios2eds/bin/gnu/h-i686-mingw32/bin/../lib/gcc/nios2-elf/4.1.2/../../../../nios2-elf/lib\libc.a(lib_a-stdio.o)
 .debug_pubnames
                0x00000cd8       0x1d c:/altera/12.1sp1/nios2eds/bin/gnu/h-i686-mingw32/bin/../lib/gcc/nios2-elf/4.1.2/../../../../nios2-elf/lib\libc.a(lib_a-strcmp.o)
 .debug_pubnames
                0x00000cf5       0x1f c:/altera/12.1sp1/nios2eds/bin/gnu/h-i686-mingw32/bin/../lib/gcc/nios2-elf/4.1.2/../../../../nios2-elf/lib\libc.a(lib_a-writer.o)
 .debug_pubnames
                0x00000d14       0x20 c:/altera/12.1sp1/nios2eds/bin/gnu/h-i686-mingw32/bin/../lib/gcc/nios2-elf/4.1.2/../../../../nios2-elf/lib\libc.a(lib_a-callocr.o)
 .debug_pubnames
                0x00000d34       0x1f c:/altera/12.1sp1/nios2eds/bin/gnu/h-i686-mingw32/bin/../lib/gcc/nios2-elf/4.1.2/../../../../nios2-elf/lib\libc.a(lib_a-closer.o)
 .debug_pubnames
                0x00000d53       0x2b c:/altera/12.1sp1/nios2eds/bin/gnu/h-i686-mingw32/bin/../lib/gcc/nios2-elf/4.1.2/../../../../nios2-elf/lib\libc.a(lib_a-fclose.o)
 .debug_pubnames
                0x00000d7e       0x1f c:/altera/12.1sp1/nios2eds/bin/gnu/h-i686-mingw32/bin/../lib/gcc/nios2-elf/4.1.2/../../../../nios2-elf/lib\libc.a(lib_a-fstatr.o)
 .debug_pubnames
                0x00000d9d       0x1c c:/altera/12.1sp1/nios2eds/bin/gnu/h-i686-mingw32/bin/../lib/gcc/nios2-elf/4.1.2/../../../../nios2-elf/lib\libc.a(lib_a-int_errno.o)
 .debug_pubnames
                0x00000db9       0x20 c:/altera/12.1sp1/nios2eds/bin/gnu/h-i686-mingw32/bin/../lib/gcc/nios2-elf/4.1.2/../../../../nios2-elf/lib\libc.a(lib_a-isattyr.o)
 .debug_pubnames
                0x00000dd9       0x1f c:/altera/12.1sp1/nios2eds/bin/gnu/h-i686-mingw32/bin/../lib/gcc/nios2-elf/4.1.2/../../../../nios2-elf/lib\libc.a(lib_a-lseekr.o)
 .debug_pubnames
                0x00000df8       0x1e c:/altera/12.1sp1/nios2eds/bin/gnu/h-i686-mingw32/bin/../lib/gcc/nios2-elf/4.1.2/../../../../nios2-elf/lib\libc.a(lib_a-readr.o)
 .debug_pubnames
                0x00000e16       0x20 c:/altera/12.1sp1/nios2eds/bin/gnu/h-i686-mingw32/bin/../lib/gcc/nios2-elf/4.1.2\libgcc.a(_udivdi3.o)
 .debug_pubnames
                0x00000e36       0x20 c:/altera/12.1sp1/nios2eds/bin/gnu/h-i686-mingw32/bin/../lib/gcc/nios2-elf/4.1.2\libgcc.a(_umoddi3.o)
 .debug_pubnames
                0x00000e56       0x1e c:/altera/12.1sp1/nios2eds/bin/gnu/h-i686-mingw32/bin/../lib/gcc/nios2-elf/4.1.2\libgcc.a(_eq_df.o)
 .debug_pubnames
                0x00000e74       0x1e c:/altera/12.1sp1/nios2eds/bin/gnu/h-i686-mingw32/bin/../lib/gcc/nios2-elf/4.1.2\libgcc.a(_ne_df.o)
 .debug_pubnames
                0x00000e92       0x1e c:/altera/12.1sp1/nios2eds/bin/gnu/h-i686-mingw32/bin/../lib/gcc/nios2-elf/4.1.2\libgcc.a(_gt_df.o)
 .debug_pubnames
                0x00000eb0       0x48 c:/altera/12.1sp1/nios2eds/bin/gnu/h-i686-mingw32/bin/../lib/gcc/nios2-elf/4.1.2\libgcc.a(lib2-divmod.o)
 .debug_pubnames
                0x00000ef8       0x1c C:/Users/jchang3/Documents/ECE492/test/software/accelerometer_pen50s_bsp/\libucosii_bsp.a(alt_close.o)
 .debug_pubnames
                0x00000f14       0x78 C:/Users/jchang3/Documents/ECE492/test/software/accelerometer_pen50s_bsp/\libucosii_bsp.a(alt_dev.o)
 .debug_pubnames
                0x00000f8c       0x20 C:/Users/jchang3/Documents/ECE492/test/software/accelerometer_pen50s_bsp/\libucosii_bsp.a(alt_errno.o)
 .debug_pubnames
                0x00000fac       0x1c C:/Users/jchang3/Documents/ECE492/test/software/accelerometer_pen50s_bsp/\libucosii_bsp.a(alt_fstat.o)
 .debug_pubnames
                0x00000fc8       0x1d C:/Users/jchang3/Documents/ECE492/test/software/accelerometer_pen50s_bsp/\libucosii_bsp.a(alt_isatty.o)
 .debug_pubnames
                0x00000fe5       0x1f C:/Users/jchang3/Documents/ECE492/test/software/accelerometer_pen50s_bsp/\libucosii_bsp.a(alt_load.o)
 .debug_pubnames
                0x00001004       0x1c C:/Users/jchang3/Documents/ECE492/test/software/accelerometer_pen50s_bsp/\libucosii_bsp.a(alt_lseek.o)
 .debug_pubnames
                0x00001020       0x46 C:/Users/jchang3/Documents/ECE492/test/software/accelerometer_pen50s_bsp/\libucosii_bsp.a(alt_main.o)
 .debug_pubnames
                0x00001066       0x1b C:/Users/jchang3/Documents/ECE492/test/software/accelerometer_pen50s_bsp/\libucosii_bsp.a(alt_read.o)
 .debug_pubnames
                0x00001081       0x25 C:/Users/jchang3/Documents/ECE492/test/software/accelerometer_pen50s_bsp/\libucosii_bsp.a(alt_release_fd.o)
 .debug_pubnames
                0x000010a6       0x1b C:/Users/jchang3/Documents/ECE492/test/software/accelerometer_pen50s_bsp/\libucosii_bsp.a(alt_sbrk.o)
 .debug_pubnames
                0x000010c1       0x1c C:/Users/jchang3/Documents/ECE492/test/software/accelerometer_pen50s_bsp/\libucosii_bsp.a(alt_write.o)
 .debug_pubnames
                0x000010dd       0x41 C:/Users/jchang3/Documents/ECE492/test/software/accelerometer_pen50s_bsp/\libucosii_bsp.a(alt_env_lock.o)
 .debug_pubnames
                0x0000111e       0x48 C:/Users/jchang3/Documents/ECE492/test/software/accelerometer_pen50s_bsp/\libucosii_bsp.a(alt_malloc_lock.o)
 .debug_pubnames
                0x00001166      0x3f8 C:/Users/jchang3/Documents/ECE492/test/software/accelerometer_pen50s_bsp/\libucosii_bsp.a(os_core.o)
 .debug_pubnames
                0x0000155e      0x3c5 C:/Users/jchang3/Documents/ECE492/test/software/accelerometer_pen50s_bsp/\libucosii_bsp.a(os_dbg.o)
 .debug_pubnames
                0x00001923       0xd0 C:/Users/jchang3/Documents/ECE492/test/software/accelerometer_pen50s_bsp/\libucosii_bsp.a(os_flag.o)
 .debug_pubnames
                0x000019f3       0x7c C:/Users/jchang3/Documents/ECE492/test/software/accelerometer_pen50s_bsp/\libucosii_bsp.a(os_mem.o)
 .debug_pubnames
                0x00001a6f       0xa9 C:/Users/jchang3/Documents/ECE492/test/software/accelerometer_pen50s_bsp/\libucosii_bsp.a(os_q.o)
 .debug_pubnames
                0x00001b18       0x8a C:/Users/jchang3/Documents/ECE492/test/software/accelerometer_pen50s_bsp/\libucosii_bsp.a(os_sem.o)
 .debug_pubnames
                0x00001ba2       0xe5 C:/Users/jchang3/Documents/ECE492/test/software/accelerometer_pen50s_bsp/\libucosii_bsp.a(os_task.o)
 .debug_pubnames
                0x00001c87       0x62 C:/Users/jchang3/Documents/ECE492/test/software/accelerometer_pen50s_bsp/\libucosii_bsp.a(os_time.o)
 .debug_pubnames
                0x00001ce9       0x34 C:/Users/jchang3/Documents/ECE492/test/software/accelerometer_pen50s_bsp/\libucosii_bsp.a(alt_sys_init.o)
 .debug_pubnames
                0x00001d1d       0xa5 C:/Users/jchang3/Documents/ECE492/test/software/accelerometer_pen50s_bsp/\libucosii_bsp.a(altera_avalon_jtag_uart_fd.o)
 .debug_pubnames
                0x00001dc2       0x55 C:/Users/jchang3/Documents/ECE492/test/software/accelerometer_pen50s_bsp/\libucosii_bsp.a(altera_avalon_jtag_uart_init.o)
 .debug_pubnames
                0x00001e17       0x34 C:/Users/jchang3/Documents/ECE492/test/software/accelerometer_pen50s_bsp/\libucosii_bsp.a(altera_avalon_jtag_uart_ioctl.o)
 .debug_pubnames
                0x00001e4b       0x33 C:/Users/jchang3/Documents/ECE492/test/software/accelerometer_pen50s_bsp/\libucosii_bsp.a(altera_avalon_jtag_uart_read.o)
 .debug_pubnames
                0x00001e7e       0x34 C:/Users/jchang3/Documents/ECE492/test/software/accelerometer_pen50s_bsp/\libucosii_bsp.a(altera_avalon_jtag_uart_write.o)
 .debug_pubnames
                0x00001eb2       0x2f C:/Users/jchang3/Documents/ECE492/test/software/accelerometer_pen50s_bsp/\libucosii_bsp.a(altera_avalon_timer_sc.o)
 .debug_pubnames
                0x00001ee1      0x1cd C:/Users/jchang3/Documents/ECE492/test/software/accelerometer_pen50s_bsp/\libucosii_bsp.a(altera_up_avalon_character_lcd.o)
 .debug_pubnames
                0x000020ae      0x163 C:/Users/jchang3/Documents/ECE492/test/software/accelerometer_pen50s_bsp/\libucosii_bsp.a(altera_up_avalon_rs232.o)
 .debug_pubnames
                0x00002211      0x564 C:/Users/jchang3/Documents/ECE492/test/software/accelerometer_pen50s_bsp/\libucosii_bsp.a(altera_up_sd_card_avalon_interface.o)
 .debug_pubnames
                0x00002775       0x26 C:/Users/jchang3/Documents/ECE492/test/software/accelerometer_pen50s_bsp/\libucosii_bsp.a(alt_alarm_start.o)
 .debug_pubnames
                0x0000279b       0x2b C:/Users/jchang3/Documents/ECE492/test/software/accelerometer_pen50s_bsp/\libucosii_bsp.a(alt_dcache_flush_all.o)
 .debug_pubnames
                0x000027c6       0x2b C:/Users/jchang3/Documents/ECE492/test/software/accelerometer_pen50s_bsp/\libucosii_bsp.a(alt_dev_llist_insert.o)
 .debug_pubnames
                0x000027f1       0x20 C:/Users/jchang3/Documents/ECE492/test/software/accelerometer_pen50s_bsp/\libucosii_bsp.a(alt_do_ctors.o)
 .debug_pubnames
                0x00002811       0x20 C:/Users/jchang3/Documents/ECE492/test/software/accelerometer_pen50s_bsp/\libucosii_bsp.a(alt_do_dtors.o)
 .debug_pubnames
                0x00002831       0x23 C:/Users/jchang3/Documents/ECE492/test/software/accelerometer_pen50s_bsp/\libucosii_bsp.a(alt_find_dev.o)
 .debug_pubnames
                0x00002854       0x2b C:/Users/jchang3/Documents/ECE492/test/software/accelerometer_pen50s_bsp/\libucosii_bsp.a(alt_icache_flush_all.o)
 .debug_pubnames
                0x0000287f       0x26 C:/Users/jchang3/Documents/ECE492/test/software/accelerometer_pen50s_bsp/\libucosii_bsp.a(alt_io_redirect.o)
 .debug_pubnames
                0x000028a5       0x27 C:/Users/jchang3/Documents/ECE492/test/software/accelerometer_pen50s_bsp/\libucosii_bsp.a(alt_irq_register.o)
 .debug_pubnames
                0x000028cc       0x3b C:/Users/jchang3/Documents/ECE492/test/software/accelerometer_pen50s_bsp/\libucosii_bsp.a(alt_irq_vars.o)
 .debug_pubnames
                0x00002907       0x1b C:/Users/jchang3/Documents/ECE492/test/software/accelerometer_pen50s_bsp/\libucosii_bsp.a(alt_open.o)
 .debug_pubnames
                0x00002922       0x68 C:/Users/jchang3/Documents/ECE492/test/software/accelerometer_pen50s_bsp/\libucosii_bsp.a(alt_tick.o)
 .debug_pubnames
                0x0000298a       0x31 C:/Users/jchang3/Documents/ECE492/test/software/accelerometer_pen50s_bsp/\libucosii_bsp.a(altera_nios2_qsys_irq.o)
 .debug_pubnames
                0x000029bb       0xcd C:/Users/jchang3/Documents/ECE492/test/software/accelerometer_pen50s_bsp/\libucosii_bsp.a(os_cpu_c.o)
 .debug_pubnames
                0x00002a88       0x24 C:/Users/jchang3/Documents/ECE492/test/software/accelerometer_pen50s_bsp/\libucosii_bsp.a(alt_find_file.o)
 .debug_pubnames
                0x00002aac       0x21 C:/Users/jchang3/Documents/ECE492/test/software/accelerometer_pen50s_bsp/\libucosii_bsp.a(alt_get_fd.o)
 .debug_pubnames
                0x00002acd       0x27 C:/Users/jchang3/Documents/ECE492/test/software/accelerometer_pen50s_bsp/\libucosii_bsp.a(alt_icache_flush.o)
 .debug_pubnames
                0x00002af4       0x32 C:/Users/jchang3/Documents/ECE492/test/software/accelerometer_pen50s_bsp/\libucosii_bsp.a(alt_irq_handler.o)
 .debug_pubnames
                0x00002b26       0x2a c:/altera/12.1sp1/nios2eds/bin/gnu/h-i686-mingw32/bin/../lib/gcc/nios2-elf/4.1.2/../../../../nios2-elf/lib\libc.a(lib_a-atexit.o)
 .debug_pubnames
                0x00002b50       0x1b c:/altera/12.1sp1/nios2eds/bin/gnu/h-i686-mingw32/bin/../lib/gcc/nios2-elf/4.1.2/../../../../nios2-elf/lib\libc.a(lib_a-exit.o)
 .debug_pubnames
                0x00002b6b       0x1d c:/altera/12.1sp1/nios2eds/bin/gnu/h-i686-mingw32/bin/../lib/gcc/nios2-elf/4.1.2/../../../../nios2-elf/lib\libc.a(lib_a-memcmp.o)
 .debug_pubnames
                0x00002b88       0x2a c:/altera/12.1sp1/nios2eds/bin/gnu/h-i686-mingw32/bin/../lib/gcc/nios2-elf/4.1.2/../../../../nios2-elf/lib\libc.a(lib_a-__atexit.o)
 .debug_pubnames
                0x00002bb2       0x27 c:/altera/12.1sp1/nios2eds/bin/gnu/h-i686-mingw32/bin/../lib/gcc/nios2-elf/4.1.2/../../../../nios2-elf/lib\libc.a(lib_a-__call_atexit.o)
 .debug_pubnames
                0x00002bd9       0x1c C:/Users/jchang3/Documents/ECE492/test/software/accelerometer_pen50s_bsp/\libucosii_bsp.a(alt_exit.o)

.debug_info     0x00000000    0x34f20
 *(.debug_info .gnu.linkonce.wi.*)
 .debug_info    0x00000000       0x7a C:/Users/jchang3/Documents/ECE492/test/software/accelerometer_pen50s_bsp//obj/HAL/src/crt0.o
 .debug_info    0x0000007a      0x388 obj/default/dtw.o
 .debug_info    0x00000402      0xfa1 obj/default/hello_ucosii.o
 .debug_info    0x000013a3      0x18c c:/altera/12.1sp1/nios2eds/bin/gnu/h-i686-mingw32/bin/../lib/gcc/nios2-elf/4.1.2/../../../../nios2-elf/lib\libm.a(lib_a-w_sqrt.o)
 .debug_info    0x0000152f      0x23a c:/altera/12.1sp1/nios2eds/bin/gnu/h-i686-mingw32/bin/../lib/gcc/nios2-elf/4.1.2/../../../../nios2-elf/lib\libm.a(lib_a-e_sqrt.o)
 .debug_info    0x00001769       0xd5 c:/altera/12.1sp1/nios2eds/bin/gnu/h-i686-mingw32/bin/../lib/gcc/nios2-elf/4.1.2/../../../../nios2-elf/lib\libm.a(lib_a-s_isnand.o)
 .debug_info    0x0000183e       0xc7 c:/altera/12.1sp1/nios2eds/bin/gnu/h-i686-mingw32/bin/../lib/gcc/nios2-elf/4.1.2/../../../../nios2-elf/lib\libm.a(lib_a-s_lib_ver.o)
 .debug_info    0x00001905      0x133 c:/altera/12.1sp1/nios2eds/bin/gnu/h-i686-mingw32/bin/../lib/gcc/nios2-elf/4.1.2/../../../../nios2-elf/lib\libm.a(lib_a-s_matherr.o)
 .debug_info    0x00001a38      0x215 c:/altera/12.1sp1/nios2eds/bin/gnu/h-i686-mingw32/bin/../lib/gcc/nios2-elf/4.1.2\libgcc.a(_muldi3.o)
 .debug_info    0x00001c4d       0xce c:/altera/12.1sp1/nios2eds/bin/gnu/h-i686-mingw32/bin/../lib/gcc/nios2-elf/4.1.2\libgcc.a(_fixdfdi.o)
 .debug_info    0x00001d1b       0xfc c:/altera/12.1sp1/nios2eds/bin/gnu/h-i686-mingw32/bin/../lib/gcc/nios2-elf/4.1.2\libgcc.a(_fixunsdfdi.o)
 .debug_info    0x00001e17       0xdc c:/altera/12.1sp1/nios2eds/bin/gnu/h-i686-mingw32/bin/../lib/gcc/nios2-elf/4.1.2\libgcc.a(_floatdidf.o)
 .debug_info    0x00001ef3      0x493 c:/altera/12.1sp1/nios2eds/bin/gnu/h-i686-mingw32/bin/../lib/gcc/nios2-elf/4.1.2\libgcc.a(_addsub_df.o)
 .debug_info    0x00002386      0x488 c:/altera/12.1sp1/nios2eds/bin/gnu/h-i686-mingw32/bin/../lib/gcc/nios2-elf/4.1.2\libgcc.a(_mul_df.o)
 .debug_info    0x0000280e      0x39b c:/altera/12.1sp1/nios2eds/bin/gnu/h-i686-mingw32/bin/../lib/gcc/nios2-elf/4.1.2\libgcc.a(_div_df.o)
 .debug_info    0x00002ba9      0x29d c:/altera/12.1sp1/nios2eds/bin/gnu/h-i686-mingw32/bin/../lib/gcc/nios2-elf/4.1.2\libgcc.a(_lt_df.o)
 .debug_info    0x00002e46      0x218 c:/altera/12.1sp1/nios2eds/bin/gnu/h-i686-mingw32/bin/../lib/gcc/nios2-elf/4.1.2\libgcc.a(_si_to_df.o)
 .debug_info    0x0000305e      0x2cd c:/altera/12.1sp1/nios2eds/bin/gnu/h-i686-mingw32/bin/../lib/gcc/nios2-elf/4.1.2\libgcc.a(_df_to_si.o)
 .debug_info    0x0000332b      0x164 c:/altera/12.1sp1/nios2eds/bin/gnu/h-i686-mingw32/bin/../lib/gcc/nios2-elf/4.1.2\libgcc.a(_thenan_df.o)
 .debug_info    0x0000348f      0x213 c:/altera/12.1sp1/nios2eds/bin/gnu/h-i686-mingw32/bin/../lib/gcc/nios2-elf/4.1.2\libgcc.a(_usi_to_df.o)
 .debug_info    0x000036a2      0x130 c:/altera/12.1sp1/nios2eds/bin/gnu/h-i686-mingw32/bin/../lib/gcc/nios2-elf/4.1.2\libgcc.a(_clzsi2.o)
 .debug_info    0x000037d2       0xce c:/altera/12.1sp1/nios2eds/bin/gnu/h-i686-mingw32/bin/../lib/gcc/nios2-elf/4.1.2\libgcc.a(_fixunsdfsi.o)
 .debug_info    0x000038a0      0x2fc c:/altera/12.1sp1/nios2eds/bin/gnu/h-i686-mingw32/bin/../lib/gcc/nios2-elf/4.1.2\libgcc.a(_pack_df.o)
 .debug_info    0x00003b9c      0x268 c:/altera/12.1sp1/nios2eds/bin/gnu/h-i686-mingw32/bin/../lib/gcc/nios2-elf/4.1.2\libgcc.a(_unpack_df.o)
 .debug_info    0x00003e04      0x21b c:/altera/12.1sp1/nios2eds/bin/gnu/h-i686-mingw32/bin/../lib/gcc/nios2-elf/4.1.2\libgcc.a(_fpcmp_parts_df.o)
 .debug_info    0x0000401f      0x29d c:/altera/12.1sp1/nios2eds/bin/gnu/h-i686-mingw32/bin/../lib/gcc/nios2-elf/4.1.2\libgcc.a(_ge_df.o)
 .debug_info    0x000042bc       0xc9 c:/altera/12.1sp1/nios2eds/bin/gnu/h-i686-mingw32/bin/../lib/gcc/nios2-elf/4.1.2\libgcc.a(_clz.o)
 .debug_info    0x00004385      0x92e c:/altera/12.1sp1/nios2eds/bin/gnu/h-i686-mingw32/bin/../lib/gcc/nios2-elf/4.1.2/../../../../nios2-elf/lib\libc.a(lib_a-errno.o)
 .debug_info    0x00004cb3      0x93d c:/altera/12.1sp1/nios2eds/bin/gnu/h-i686-mingw32/bin/../lib/gcc/nios2-elf/4.1.2/../../../../nios2-elf/lib\libc.a(lib_a-impure.o)
 .debug_info    0x000055f0      0x9d1 c:/altera/12.1sp1/nios2eds/bin/gnu/h-i686-mingw32/bin/../lib/gcc/nios2-elf/4.1.2/../../../../nios2-elf/lib\libc.a(lib_a-printf.o)
 .debug_info    0x00005fc1      0xa25 c:/altera/12.1sp1/nios2eds/bin/gnu/h-i686-mingw32/bin/../lib/gcc/nios2-elf/4.1.2/../../../../nios2-elf/lib\libc.a(lib_a-puts.o)
 .debug_info    0x000069e6       0xdb c:/altera/12.1sp1/nios2eds/bin/gnu/h-i686-mingw32/bin/../lib/gcc/nios2-elf/4.1.2/../../../../nios2-elf/lib\libc.a(lib_a-strlen.o)
 .debug_info    0x00006ac1     0x10d5 c:/altera/12.1sp1/nios2eds/bin/gnu/h-i686-mingw32/bin/../lib/gcc/nios2-elf/4.1.2/../../../../nios2-elf/lib\libc.a(lib_a-vfprintf.o)
 .debug_info    0x00007b96      0x95d c:/altera/12.1sp1/nios2eds/bin/gnu/h-i686-mingw32/bin/../lib/gcc/nios2-elf/4.1.2/../../../../nios2-elf/lib\libc.a(lib_a-wsetup.o)
 .debug_info    0x000084f3      0xd6f c:/altera/12.1sp1/nios2eds/bin/gnu/h-i686-mingw32/bin/../lib/gcc/nios2-elf/4.1.2/../../../../nios2-elf/lib\libc.a(lib_a-dtoa.o)
 .debug_info    0x00009262      0x9fe c:/altera/12.1sp1/nios2eds/bin/gnu/h-i686-mingw32/bin/../lib/gcc/nios2-elf/4.1.2/../../../../nios2-elf/lib\libc.a(lib_a-fflush.o)
 .debug_info    0x00009c60      0xb72 c:/altera/12.1sp1/nios2eds/bin/gnu/h-i686-mingw32/bin/../lib/gcc/nios2-elf/4.1.2/../../../../nios2-elf/lib\libc.a(lib_a-findfp.o)
 .debug_info    0x0000a7d2      0xbc9 c:/altera/12.1sp1/nios2eds/bin/gnu/h-i686-mingw32/bin/../lib/gcc/nios2-elf/4.1.2/../../../../nios2-elf/lib\libc.a(lib_a-freer.o)
 .debug_info    0x0000b39b      0xa88 c:/altera/12.1sp1/nios2eds/bin/gnu/h-i686-mingw32/bin/../lib/gcc/nios2-elf/4.1.2/../../../../nios2-elf/lib\libc.a(lib_a-fvwrite.o)
 .debug_info    0x0000be23      0xaed c:/altera/12.1sp1/nios2eds/bin/gnu/h-i686-mingw32/bin/../lib/gcc/nios2-elf/4.1.2/../../../../nios2-elf/lib\libc.a(lib_a-fwalk.o)
 .debug_info    0x0000c910      0xb97 c:/altera/12.1sp1/nios2eds/bin/gnu/h-i686-mingw32/bin/../lib/gcc/nios2-elf/4.1.2/../../../../nios2-elf/lib\libc.a(lib_a-locale.o)
 .debug_info    0x0000d4a7      0xb1a c:/altera/12.1sp1/nios2eds/bin/gnu/h-i686-mingw32/bin/../lib/gcc/nios2-elf/4.1.2/../../../../nios2-elf/lib\libc.a(lib_a-makebuf.o)
 .debug_info    0x0000dfc1      0xcd0 c:/altera/12.1sp1/nios2eds/bin/gnu/h-i686-mingw32/bin/../lib/gcc/nios2-elf/4.1.2/../../../../nios2-elf/lib\libc.a(lib_a-mallocr.o)
 .debug_info    0x0000ec91      0x138 c:/altera/12.1sp1/nios2eds/bin/gnu/h-i686-mingw32/bin/../lib/gcc/nios2-elf/4.1.2/../../../../nios2-elf/lib\libc.a(lib_a-memchr.o)
 .debug_info    0x0000edc9      0x106 c:/altera/12.1sp1/nios2eds/bin/gnu/h-i686-mingw32/bin/../lib/gcc/nios2-elf/4.1.2/../../../../nios2-elf/lib\libc.a(lib_a-memcpy.o)
 .debug_info    0x0000eecf      0x13e c:/altera/12.1sp1/nios2eds/bin/gnu/h-i686-mingw32/bin/../lib/gcc/nios2-elf/4.1.2/../../../../nios2-elf/lib\libc.a(lib_a-memmove.o)
 .debug_info    0x0000f00d      0x113 c:/altera/12.1sp1/nios2eds/bin/gnu/h-i686-mingw32/bin/../lib/gcc/nios2-elf/4.1.2/../../../../nios2-elf/lib\libc.a(lib_a-memset.o)
 .debug_info    0x0000f120     0x1437 c:/altera/12.1sp1/nios2eds/bin/gnu/h-i686-mingw32/bin/../lib/gcc/nios2-elf/4.1.2/../../../../nios2-elf/lib\libc.a(lib_a-mprec.o)
 .debug_info    0x00010557      0xbd7 c:/altera/12.1sp1/nios2eds/bin/gnu/h-i686-mingw32/bin/../lib/gcc/nios2-elf/4.1.2/../../../../nios2-elf/lib\libc.a(lib_a-reallocr.o)
 .debug_info    0x0001112e       0xd7 c:/altera/12.1sp1/nios2eds/bin/gnu/h-i686-mingw32/bin/../lib/gcc/nios2-elf/4.1.2/../../../../nios2-elf/lib\libc.a(lib_a-s_isinfd.o)
 .debug_info    0x00011205      0x962 c:/altera/12.1sp1/nios2eds/bin/gnu/h-i686-mingw32/bin/../lib/gcc/nios2-elf/4.1.2/../../../../nios2-elf/lib\libc.a(lib_a-sbrkr.o)
 .debug_info    0x00011b67      0xaac c:/altera/12.1sp1/nios2eds/bin/gnu/h-i686-mingw32/bin/../lib/gcc/nios2-elf/4.1.2/../../../../nios2-elf/lib\libc.a(lib_a-stdio.o)
 .debug_info    0x00012613       0xdd c:/altera/12.1sp1/nios2eds/bin/gnu/h-i686-mingw32/bin/../lib/gcc/nios2-elf/4.1.2/../../../../nios2-elf/lib\libc.a(lib_a-strcmp.o)
 .debug_info    0x000126f0      0x993 c:/altera/12.1sp1/nios2eds/bin/gnu/h-i686-mingw32/bin/../lib/gcc/nios2-elf/4.1.2/../../../../nios2-elf/lib\libc.a(lib_a-writer.o)
 .debug_info    0x00013083      0xa1b c:/altera/12.1sp1/nios2eds/bin/gnu/h-i686-mingw32/bin/../lib/gcc/nios2-elf/4.1.2/../../../../nios2-elf/lib\libc.a(lib_a-callocr.o)
 .debug_info    0x00013a9e      0x958 c:/altera/12.1sp1/nios2eds/bin/gnu/h-i686-mingw32/bin/../lib/gcc/nios2-elf/4.1.2/../../../../nios2-elf/lib\libc.a(lib_a-closer.o)
 .debug_info    0x000143f6      0x994 c:/altera/12.1sp1/nios2eds/bin/gnu/h-i686-mingw32/bin/../lib/gcc/nios2-elf/4.1.2/../../../../nios2-elf/lib\libc.a(lib_a-fclose.o)
 .debug_info    0x00014d8a      0xafc c:/altera/12.1sp1/nios2eds/bin/gnu/h-i686-mingw32/bin/../lib/gcc/nios2-elf/4.1.2/../../../../nios2-elf/lib\libc.a(lib_a-fstatr.o)
 .debug_info    0x00015886       0x8c c:/altera/12.1sp1/nios2eds/bin/gnu/h-i686-mingw32/bin/../lib/gcc/nios2-elf/4.1.2/../../../../nios2-elf/lib\libc.a(lib_a-int_errno.o)
 .debug_info    0x00015912      0x958 c:/altera/12.1sp1/nios2eds/bin/gnu/h-i686-mingw32/bin/../lib/gcc/nios2-elf/4.1.2/../../../../nios2-elf/lib\libc.a(lib_a-isattyr.o)
 .debug_info    0x0001626a      0x981 c:/altera/12.1sp1/nios2eds/bin/gnu/h-i686-mingw32/bin/../lib/gcc/nios2-elf/4.1.2/../../../../nios2-elf/lib\libc.a(lib_a-lseekr.o)
 .debug_info    0x00016beb      0x98c c:/altera/12.1sp1/nios2eds/bin/gnu/h-i686-mingw32/bin/../lib/gcc/nios2-elf/4.1.2/../../../../nios2-elf/lib\libc.a(lib_a-readr.o)
 .debug_info    0x00017577      0x724 c:/altera/12.1sp1/nios2eds/bin/gnu/h-i686-mingw32/bin/../lib/gcc/nios2-elf/4.1.2\libgcc.a(_udivdi3.o)
 .debug_info    0x00017c9b      0x751 c:/altera/12.1sp1/nios2eds/bin/gnu/h-i686-mingw32/bin/../lib/gcc/nios2-elf/4.1.2\libgcc.a(_umoddi3.o)
 .debug_info    0x000183ec      0x29d c:/altera/12.1sp1/nios2eds/bin/gnu/h-i686-mingw32/bin/../lib/gcc/nios2-elf/4.1.2\libgcc.a(_eq_df.o)
 .debug_info    0x00018689      0x29d c:/altera/12.1sp1/nios2eds/bin/gnu/h-i686-mingw32/bin/../lib/gcc/nios2-elf/4.1.2\libgcc.a(_ne_df.o)
 .debug_info    0x00018926      0x29d c:/altera/12.1sp1/nios2eds/bin/gnu/h-i686-mingw32/bin/../lib/gcc/nios2-elf/4.1.2\libgcc.a(_gt_df.o)
 .debug_info    0x00018bc3      0x21c c:/altera/12.1sp1/nios2eds/bin/gnu/h-i686-mingw32/bin/../lib/gcc/nios2-elf/4.1.2\libgcc.a(lib2-divmod.o)
 .debug_info    0x00018ddf      0x4ed C:/Users/jchang3/Documents/ECE492/test/software/accelerometer_pen50s_bsp/\libucosii_bsp.a(alt_close.o)
 .debug_info    0x000192cc      0x80f C:/Users/jchang3/Documents/ECE492/test/software/accelerometer_pen50s_bsp/\libucosii_bsp.a(alt_dev.o)
 .debug_info    0x00019adb      0x163 C:/Users/jchang3/Documents/ECE492/test/software/accelerometer_pen50s_bsp/\libucosii_bsp.a(alt_errno.o)
 .debug_info    0x00019c3e      0x6e6 C:/Users/jchang3/Documents/ECE492/test/software/accelerometer_pen50s_bsp/\libucosii_bsp.a(alt_fstat.o)
 .debug_info    0x0001a324      0x6ec C:/Users/jchang3/Documents/ECE492/test/software/accelerometer_pen50s_bsp/\libucosii_bsp.a(alt_isatty.o)
 .debug_info    0x0001aa10      0x28c C:/Users/jchang3/Documents/ECE492/test/software/accelerometer_pen50s_bsp/\libucosii_bsp.a(alt_load.o)
 .debug_info    0x0001ac9c      0x520 C:/Users/jchang3/Documents/ECE492/test/software/accelerometer_pen50s_bsp/\libucosii_bsp.a(alt_lseek.o)
 .debug_info    0x0001b1bc      0x40f C:/Users/jchang3/Documents/ECE492/test/software/accelerometer_pen50s_bsp/\libucosii_bsp.a(alt_main.o)
 .debug_info    0x0001b5cb      0x710 C:/Users/jchang3/Documents/ECE492/test/software/accelerometer_pen50s_bsp/\libucosii_bsp.a(alt_read.o)
 .debug_info    0x0001bcdb      0x481 C:/Users/jchang3/Documents/ECE492/test/software/accelerometer_pen50s_bsp/\libucosii_bsp.a(alt_release_fd.o)
 .debug_info    0x0001c15c      0x2fd C:/Users/jchang3/Documents/ECE492/test/software/accelerometer_pen50s_bsp/\libucosii_bsp.a(alt_sbrk.o)
 .debug_info    0x0001c459      0x719 C:/Users/jchang3/Documents/ECE492/test/software/accelerometer_pen50s_bsp/\libucosii_bsp.a(alt_write.o)
 .debug_info    0x0001cb72     0x1205 C:/Users/jchang3/Documents/ECE492/test/software/accelerometer_pen50s_bsp/\libucosii_bsp.a(alt_env_lock.o)
 .debug_info    0x0001dd77     0x1361 C:/Users/jchang3/Documents/ECE492/test/software/accelerometer_pen50s_bsp/\libucosii_bsp.a(alt_malloc_lock.o)
 .debug_info    0x0001f0d8     0x1c1b C:/Users/jchang3/Documents/ECE492/test/software/accelerometer_pen50s_bsp/\libucosii_bsp.a(os_core.o)
 .debug_info    0x00020cf3     0x1160 C:/Users/jchang3/Documents/ECE492/test/software/accelerometer_pen50s_bsp/\libucosii_bsp.a(os_dbg.o)
 .debug_info    0x00021e53     0x1276 C:/Users/jchang3/Documents/ECE492/test/software/accelerometer_pen50s_bsp/\libucosii_bsp.a(os_flag.o)
 .debug_info    0x000230c9      0x840 C:/Users/jchang3/Documents/ECE492/test/software/accelerometer_pen50s_bsp/\libucosii_bsp.a(os_mem.o)
 .debug_info    0x00023909     0x10b0 C:/Users/jchang3/Documents/ECE492/test/software/accelerometer_pen50s_bsp/\libucosii_bsp.a(os_q.o)
 .debug_info    0x000249b9      0xd18 C:/Users/jchang3/Documents/ECE492/test/software/accelerometer_pen50s_bsp/\libucosii_bsp.a(os_sem.o)
 .debug_info    0x000256d1     0x138e C:/Users/jchang3/Documents/ECE492/test/software/accelerometer_pen50s_bsp/\libucosii_bsp.a(os_task.o)
 .debug_info    0x00026a5f      0xa12 C:/Users/jchang3/Documents/ECE492/test/software/accelerometer_pen50s_bsp/\libucosii_bsp.a(os_time.o)
 .debug_info    0x00027471      0xa50 C:/Users/jchang3/Documents/ECE492/test/software/accelerometer_pen50s_bsp/\libucosii_bsp.a(alt_sys_init.o)
 .debug_info    0x00027ec1      0xa04 C:/Users/jchang3/Documents/ECE492/test/software/accelerometer_pen50s_bsp/\libucosii_bsp.a(altera_avalon_jtag_uart_fd.o)
 .debug_info    0x000288c5      0x98f C:/Users/jchang3/Documents/ECE492/test/software/accelerometer_pen50s_bsp/\libucosii_bsp.a(altera_avalon_jtag_uart_init.o)
 .debug_info    0x00029254      0x66e C:/Users/jchang3/Documents/ECE492/test/software/accelerometer_pen50s_bsp/\libucosii_bsp.a(altera_avalon_jtag_uart_ioctl.o)
 .debug_info    0x000298c2      0x82a C:/Users/jchang3/Documents/ECE492/test/software/accelerometer_pen50s_bsp/\libucosii_bsp.a(altera_avalon_jtag_uart_read.o)
 .debug_info    0x0002a0ec      0x821 C:/Users/jchang3/Documents/ECE492/test/software/accelerometer_pen50s_bsp/\libucosii_bsp.a(altera_avalon_jtag_uart_write.o)
 .debug_info    0x0002a90d      0x3ca C:/Users/jchang3/Documents/ECE492/test/software/accelerometer_pen50s_bsp/\libucosii_bsp.a(altera_avalon_timer_sc.o)
 .debug_info    0x0002acd7      0x92e C:/Users/jchang3/Documents/ECE492/test/software/accelerometer_pen50s_bsp/\libucosii_bsp.a(altera_up_avalon_character_lcd.o)
 .debug_info    0x0002b605      0x856 C:/Users/jchang3/Documents/ECE492/test/software/accelerometer_pen50s_bsp/\libucosii_bsp.a(altera_up_avalon_rs232.o)
 .debug_info    0x0002be5b     0x2225 C:/Users/jchang3/Documents/ECE492/test/software/accelerometer_pen50s_bsp/\libucosii_bsp.a(altera_up_sd_card_avalon_interface.o)
 .debug_info    0x0002e080      0x474 C:/Users/jchang3/Documents/ECE492/test/software/accelerometer_pen50s_bsp/\libucosii_bsp.a(alt_alarm_start.o)
 .debug_info    0x0002e4f4      0x15b C:/Users/jchang3/Documents/ECE492/test/software/accelerometer_pen50s_bsp/\libucosii_bsp.a(alt_dcache_flush_all.o)
 .debug_info    0x0002e64f      0x2b6 C:/Users/jchang3/Documents/ECE492/test/software/accelerometer_pen50s_bsp/\libucosii_bsp.a(alt_dev_llist_insert.o)
 .debug_info    0x0002e905      0x10e C:/Users/jchang3/Documents/ECE492/test/software/accelerometer_pen50s_bsp/\libucosii_bsp.a(alt_do_ctors.o)
 .debug_info    0x0002ea13      0x10d C:/Users/jchang3/Documents/ECE492/test/software/accelerometer_pen50s_bsp/\libucosii_bsp.a(alt_do_dtors.o)
 .debug_info    0x0002eb20      0x49e C:/Users/jchang3/Documents/ECE492/test/software/accelerometer_pen50s_bsp/\libucosii_bsp.a(alt_find_dev.o)
 .debug_info    0x0002efbe      0x15b C:/Users/jchang3/Documents/ECE492/test/software/accelerometer_pen50s_bsp/\libucosii_bsp.a(alt_icache_flush_all.o)
 .debug_info    0x0002f119      0x71b C:/Users/jchang3/Documents/ECE492/test/software/accelerometer_pen50s_bsp/\libucosii_bsp.a(alt_io_redirect.o)
 .debug_info    0x0002f834      0x46e C:/Users/jchang3/Documents/ECE492/test/software/accelerometer_pen50s_bsp/\libucosii_bsp.a(alt_irq_register.o)
 .debug_info    0x0002fca2      0x166 C:/Users/jchang3/Documents/ECE492/test/software/accelerometer_pen50s_bsp/\libucosii_bsp.a(alt_irq_vars.o)
 .debug_info    0x0002fe08      0x59c C:/Users/jchang3/Documents/ECE492/test/software/accelerometer_pen50s_bsp/\libucosii_bsp.a(alt_open.o)
 .debug_info    0x000303a4      0x443 C:/Users/jchang3/Documents/ECE492/test/software/accelerometer_pen50s_bsp/\libucosii_bsp.a(alt_tick.o)
 .debug_info    0x000307e7      0x1a9 C:/Users/jchang3/Documents/ECE492/test/software/accelerometer_pen50s_bsp/\libucosii_bsp.a(altera_nios2_qsys_irq.o)
 .debug_info    0x00030990       0x82 C:/Users/jchang3/Documents/ECE492/test/software/accelerometer_pen50s_bsp/\libucosii_bsp.a(os_cpu_a.o)
 .debug_info    0x00030a12     0x1305 C:/Users/jchang3/Documents/ECE492/test/software/accelerometer_pen50s_bsp/\libucosii_bsp.a(os_cpu_c.o)
 .debug_info    0x00031d17      0x4a5 C:/Users/jchang3/Documents/ECE492/test/software/accelerometer_pen50s_bsp/\libucosii_bsp.a(alt_find_file.o)
 .debug_info    0x000321bc      0x637 C:/Users/jchang3/Documents/ECE492/test/software/accelerometer_pen50s_bsp/\libucosii_bsp.a(alt_get_fd.o)
 .debug_info    0x000327f3      0x1a3 C:/Users/jchang3/Documents/ECE492/test/software/accelerometer_pen50s_bsp/\libucosii_bsp.a(alt_icache_flush.o)
 .debug_info    0x00032996       0x83 C:/Users/jchang3/Documents/ECE492/test/software/accelerometer_pen50s_bsp/\libucosii_bsp.a(alt_irq_entry.o)
 .debug_info    0x00032a19      0x2f1 C:/Users/jchang3/Documents/ECE492/test/software/accelerometer_pen50s_bsp/\libucosii_bsp.a(alt_irq_handler.o)
 .debug_info    0x00032d0a       0x89 C:/Users/jchang3/Documents/ECE492/test/software/accelerometer_pen50s_bsp/\libucosii_bsp.a(alt_exception_entry.o)
 .debug_info    0x00032d93      0x181 c:/altera/12.1sp1/nios2eds/bin/gnu/h-i686-mingw32/bin/../lib/gcc/nios2-elf/4.1.2/../../../../nios2-elf/lib\libc.a(lib_a-atexit.o)
 .debug_info    0x00032f14      0x93f c:/altera/12.1sp1/nios2eds/bin/gnu/h-i686-mingw32/bin/../lib/gcc/nios2-elf/4.1.2/../../../../nios2-elf/lib\libc.a(lib_a-exit.o)
 .debug_info    0x00033853      0x115 c:/altera/12.1sp1/nios2eds/bin/gnu/h-i686-mingw32/bin/../lib/gcc/nios2-elf/4.1.2/../../../../nios2-elf/lib\libc.a(lib_a-memcmp.o)
 .debug_info    0x00033968      0x99c c:/altera/12.1sp1/nios2eds/bin/gnu/h-i686-mingw32/bin/../lib/gcc/nios2-elf/4.1.2/../../../../nios2-elf/lib\libc.a(lib_a-__atexit.o)
 .debug_info    0x00034304      0x9e2 c:/altera/12.1sp1/nios2eds/bin/gnu/h-i686-mingw32/bin/../lib/gcc/nios2-elf/4.1.2/../../../../nios2-elf/lib\libc.a(lib_a-__call_atexit.o)
 .debug_info    0x00034ce6      0x23a C:/Users/jchang3/Documents/ECE492/test/software/accelerometer_pen50s_bsp/\libucosii_bsp.a(alt_exit.o)

.debug_abbrev   0x00000000     0x9cb4
 *(.debug_abbrev)
 .debug_abbrev  0x00000000       0x12 C:/Users/jchang3/Documents/ECE492/test/software/accelerometer_pen50s_bsp//obj/HAL/src/crt0.o
 .debug_abbrev  0x00000012       0x8f obj/default/dtw.o
 .debug_abbrev  0x000000a1      0x1df obj/default/hello_ucosii.o
 .debug_abbrev  0x00000280       0xe5 c:/altera/12.1sp1/nios2eds/bin/gnu/h-i686-mingw32/bin/../lib/gcc/nios2-elf/4.1.2/../../../../nios2-elf/lib\libm.a(lib_a-w_sqrt.o)
 .debug_abbrev  0x00000365      0x122 c:/altera/12.1sp1/nios2eds/bin/gnu/h-i686-mingw32/bin/../lib/gcc/nios2-elf/4.1.2/../../../../nios2-elf/lib\libm.a(lib_a-e_sqrt.o)
 .debug_abbrev  0x00000487       0x79 c:/altera/12.1sp1/nios2eds/bin/gnu/h-i686-mingw32/bin/../lib/gcc/nios2-elf/4.1.2/../../../../nios2-elf/lib\libm.a(lib_a-s_isnand.o)
 .debug_abbrev  0x00000500       0x53 c:/altera/12.1sp1/nios2eds/bin/gnu/h-i686-mingw32/bin/../lib/gcc/nios2-elf/4.1.2/../../../../nios2-elf/lib\libm.a(lib_a-s_lib_ver.o)
 .debug_abbrev  0x00000553       0x95 c:/altera/12.1sp1/nios2eds/bin/gnu/h-i686-mingw32/bin/../lib/gcc/nios2-elf/4.1.2/../../../../nios2-elf/lib\libm.a(lib_a-s_matherr.o)
 .debug_abbrev  0x000005e8       0xee c:/altera/12.1sp1/nios2eds/bin/gnu/h-i686-mingw32/bin/../lib/gcc/nios2-elf/4.1.2\libgcc.a(_muldi3.o)
 .debug_abbrev  0x000006d6       0x5d c:/altera/12.1sp1/nios2eds/bin/gnu/h-i686-mingw32/bin/../lib/gcc/nios2-elf/4.1.2\libgcc.a(_fixdfdi.o)
 .debug_abbrev  0x00000733       0x82 c:/altera/12.1sp1/nios2eds/bin/gnu/h-i686-mingw32/bin/../lib/gcc/nios2-elf/4.1.2\libgcc.a(_fixunsdfdi.o)
 .debug_abbrev  0x000007b5       0x6c c:/altera/12.1sp1/nios2eds/bin/gnu/h-i686-mingw32/bin/../lib/gcc/nios2-elf/4.1.2\libgcc.a(_floatdidf.o)
 .debug_abbrev  0x00000821      0x1d2 c:/altera/12.1sp1/nios2eds/bin/gnu/h-i686-mingw32/bin/../lib/gcc/nios2-elf/4.1.2\libgcc.a(_addsub_df.o)
 .debug_abbrev  0x000009f3      0x204 c:/altera/12.1sp1/nios2eds/bin/gnu/h-i686-mingw32/bin/../lib/gcc/nios2-elf/4.1.2\libgcc.a(_mul_df.o)
 .debug_abbrev  0x00000bf7      0x1e3 c:/altera/12.1sp1/nios2eds/bin/gnu/h-i686-mingw32/bin/../lib/gcc/nios2-elf/4.1.2\libgcc.a(_div_df.o)
 .debug_abbrev  0x00000dda      0x151 c:/altera/12.1sp1/nios2eds/bin/gnu/h-i686-mingw32/bin/../lib/gcc/nios2-elf/4.1.2\libgcc.a(_lt_df.o)
 .debug_abbrev  0x00000f2b      0x13f c:/altera/12.1sp1/nios2eds/bin/gnu/h-i686-mingw32/bin/../lib/gcc/nios2-elf/4.1.2\libgcc.a(_si_to_df.o)
 .debug_abbrev  0x0000106a      0x176 c:/altera/12.1sp1/nios2eds/bin/gnu/h-i686-mingw32/bin/../lib/gcc/nios2-elf/4.1.2\libgcc.a(_df_to_si.o)
 .debug_abbrev  0x000011e0       0xba c:/altera/12.1sp1/nios2eds/bin/gnu/h-i686-mingw32/bin/../lib/gcc/nios2-elf/4.1.2\libgcc.a(_thenan_df.o)
 .debug_abbrev  0x0000129a      0x155 c:/altera/12.1sp1/nios2eds/bin/gnu/h-i686-mingw32/bin/../lib/gcc/nios2-elf/4.1.2\libgcc.a(_usi_to_df.o)
 .debug_abbrev  0x000013ef       0xb9 c:/altera/12.1sp1/nios2eds/bin/gnu/h-i686-mingw32/bin/../lib/gcc/nios2-elf/4.1.2\libgcc.a(_clzsi2.o)
 .debug_abbrev  0x000014a8       0x5d c:/altera/12.1sp1/nios2eds/bin/gnu/h-i686-mingw32/bin/../lib/gcc/nios2-elf/4.1.2\libgcc.a(_fixunsdfsi.o)
 .debug_abbrev  0x00001505      0x1b1 c:/altera/12.1sp1/nios2eds/bin/gnu/h-i686-mingw32/bin/../lib/gcc/nios2-elf/4.1.2\libgcc.a(_pack_df.o)
 .debug_abbrev  0x000016b6      0x149 c:/altera/12.1sp1/nios2eds/bin/gnu/h-i686-mingw32/bin/../lib/gcc/nios2-elf/4.1.2\libgcc.a(_unpack_df.o)
 .debug_abbrev  0x000017ff      0x132 c:/altera/12.1sp1/nios2eds/bin/gnu/h-i686-mingw32/bin/../lib/gcc/nios2-elf/4.1.2\libgcc.a(_fpcmp_parts_df.o)
 .debug_abbrev  0x00001931      0x151 c:/altera/12.1sp1/nios2eds/bin/gnu/h-i686-mingw32/bin/../lib/gcc/nios2-elf/4.1.2\libgcc.a(_ge_df.o)
 .debug_abbrev  0x00001a82       0x61 c:/altera/12.1sp1/nios2eds/bin/gnu/h-i686-mingw32/bin/../lib/gcc/nios2-elf/4.1.2\libgcc.a(_clz.o)
 .debug_abbrev  0x00001ae3      0x15f c:/altera/12.1sp1/nios2eds/bin/gnu/h-i686-mingw32/bin/../lib/gcc/nios2-elf/4.1.2/../../../../nios2-elf/lib\libc.a(lib_a-errno.o)
 .debug_abbrev  0x00001c42      0x157 c:/altera/12.1sp1/nios2eds/bin/gnu/h-i686-mingw32/bin/../lib/gcc/nios2-elf/4.1.2/../../../../nios2-elf/lib\libc.a(lib_a-impure.o)
 .debug_abbrev  0x00001d99      0x191 c:/altera/12.1sp1/nios2eds/bin/gnu/h-i686-mingw32/bin/../lib/gcc/nios2-elf/4.1.2/../../../../nios2-elf/lib\libc.a(lib_a-printf.o)
 .debug_abbrev  0x00001f2a      0x1ac c:/altera/12.1sp1/nios2eds/bin/gnu/h-i686-mingw32/bin/../lib/gcc/nios2-elf/4.1.2/../../../../nios2-elf/lib\libc.a(lib_a-puts.o)
 .debug_abbrev  0x000020d6       0x8b c:/altera/12.1sp1/nios2eds/bin/gnu/h-i686-mingw32/bin/../lib/gcc/nios2-elf/4.1.2/../../../../nios2-elf/lib\libc.a(lib_a-strlen.o)
 .debug_abbrev  0x00002161      0x30a c:/altera/12.1sp1/nios2eds/bin/gnu/h-i686-mingw32/bin/../lib/gcc/nios2-elf/4.1.2/../../../../nios2-elf/lib\libc.a(lib_a-vfprintf.o)
 .debug_abbrev  0x0000246b      0x170 c:/altera/12.1sp1/nios2eds/bin/gnu/h-i686-mingw32/bin/../lib/gcc/nios2-elf/4.1.2/../../../../nios2-elf/lib\libc.a(lib_a-wsetup.o)
 .debug_abbrev  0x000025db      0x232 c:/altera/12.1sp1/nios2eds/bin/gnu/h-i686-mingw32/bin/../lib/gcc/nios2-elf/4.1.2/../../../../nios2-elf/lib\libc.a(lib_a-dtoa.o)
 .debug_abbrev  0x0000280d      0x1c6 c:/altera/12.1sp1/nios2eds/bin/gnu/h-i686-mingw32/bin/../lib/gcc/nios2-elf/4.1.2/../../../../nios2-elf/lib\libc.a(lib_a-fflush.o)
 .debug_abbrev  0x000029d3      0x24c c:/altera/12.1sp1/nios2eds/bin/gnu/h-i686-mingw32/bin/../lib/gcc/nios2-elf/4.1.2/../../../../nios2-elf/lib\libc.a(lib_a-findfp.o)
 .debug_abbrev  0x00002c1f      0x1d9 c:/altera/12.1sp1/nios2eds/bin/gnu/h-i686-mingw32/bin/../lib/gcc/nios2-elf/4.1.2/../../../../nios2-elf/lib\libc.a(lib_a-freer.o)
 .debug_abbrev  0x00002df8      0x1a3 c:/altera/12.1sp1/nios2eds/bin/gnu/h-i686-mingw32/bin/../lib/gcc/nios2-elf/4.1.2/../../../../nios2-elf/lib\libc.a(lib_a-fvwrite.o)
 .debug_abbrev  0x00002f9b      0x1e3 c:/altera/12.1sp1/nios2eds/bin/gnu/h-i686-mingw32/bin/../lib/gcc/nios2-elf/4.1.2/../../../../nios2-elf/lib\libc.a(lib_a-fwalk.o)
 .debug_abbrev  0x0000317e      0x1ed c:/altera/12.1sp1/nios2eds/bin/gnu/h-i686-mingw32/bin/../lib/gcc/nios2-elf/4.1.2/../../../../nios2-elf/lib\libc.a(lib_a-locale.o)
 .debug_abbrev  0x0000336b      0x197 c:/altera/12.1sp1/nios2eds/bin/gnu/h-i686-mingw32/bin/../lib/gcc/nios2-elf/4.1.2/../../../../nios2-elf/lib\libc.a(lib_a-makebuf.o)
 .debug_abbrev  0x00003502      0x216 c:/altera/12.1sp1/nios2eds/bin/gnu/h-i686-mingw32/bin/../lib/gcc/nios2-elf/4.1.2/../../../../nios2-elf/lib\libc.a(lib_a-mallocr.o)
 .debug_abbrev  0x00003718       0xb5 c:/altera/12.1sp1/nios2eds/bin/gnu/h-i686-mingw32/bin/../lib/gcc/nios2-elf/4.1.2/../../../../nios2-elf/lib\libc.a(lib_a-memchr.o)
 .debug_abbrev  0x000037cd       0xb5 c:/altera/12.1sp1/nios2eds/bin/gnu/h-i686-mingw32/bin/../lib/gcc/nios2-elf/4.1.2/../../../../nios2-elf/lib\libc.a(lib_a-memcpy.o)
 .debug_abbrev  0x00003882       0xb5 c:/altera/12.1sp1/nios2eds/bin/gnu/h-i686-mingw32/bin/../lib/gcc/nios2-elf/4.1.2/../../../../nios2-elf/lib\libc.a(lib_a-memmove.o)
 .debug_abbrev  0x00003937       0xb8 c:/altera/12.1sp1/nios2eds/bin/gnu/h-i686-mingw32/bin/../lib/gcc/nios2-elf/4.1.2/../../../../nios2-elf/lib\libc.a(lib_a-memset.o)
 .debug_abbrev  0x000039ef      0x297 c:/altera/12.1sp1/nios2eds/bin/gnu/h-i686-mingw32/bin/../lib/gcc/nios2-elf/4.1.2/../../../../nios2-elf/lib\libc.a(lib_a-mprec.o)
 .debug_abbrev  0x00003c86      0x1c3 c:/altera/12.1sp1/nios2eds/bin/gnu/h-i686-mingw32/bin/../lib/gcc/nios2-elf/4.1.2/../../../../nios2-elf/lib\libc.a(lib_a-reallocr.o)
 .debug_abbrev  0x00003e49       0x79 c:/altera/12.1sp1/nios2eds/bin/gnu/h-i686-mingw32/bin/../lib/gcc/nios2-elf/4.1.2/../../../../nios2-elf/lib\libc.a(lib_a-s_isinfd.o)
 .debug_abbrev  0x00003ec2      0x18c c:/altera/12.1sp1/nios2eds/bin/gnu/h-i686-mingw32/bin/../lib/gcc/nios2-elf/4.1.2/../../../../nios2-elf/lib\libc.a(lib_a-sbrkr.o)
 .debug_abbrev  0x0000404e      0x1c9 c:/altera/12.1sp1/nios2eds/bin/gnu/h-i686-mingw32/bin/../lib/gcc/nios2-elf/4.1.2/../../../../nios2-elf/lib\libc.a(lib_a-stdio.o)
 .debug_abbrev  0x00004217       0x80 c:/altera/12.1sp1/nios2eds/bin/gnu/h-i686-mingw32/bin/../lib/gcc/nios2-elf/4.1.2/../../../../nios2-elf/lib\libc.a(lib_a-strcmp.o)
 .debug_abbrev  0x00004297      0x184 c:/altera/12.1sp1/nios2eds/bin/gnu/h-i686-mingw32/bin/../lib/gcc/nios2-elf/4.1.2/../../../../nios2-elf/lib\libc.a(lib_a-writer.o)
 .debug_abbrev  0x0000441b      0x1b8 c:/altera/12.1sp1/nios2eds/bin/gnu/h-i686-mingw32/bin/../lib/gcc/nios2-elf/4.1.2/../../../../nios2-elf/lib\libc.a(lib_a-callocr.o)
 .debug_abbrev  0x000045d3      0x17f c:/altera/12.1sp1/nios2eds/bin/gnu/h-i686-mingw32/bin/../lib/gcc/nios2-elf/4.1.2/../../../../nios2-elf/lib\libc.a(lib_a-closer.o)
 .debug_abbrev  0x00004752      0x1a7 c:/altera/12.1sp1/nios2eds/bin/gnu/h-i686-mingw32/bin/../lib/gcc/nios2-elf/4.1.2/../../../../nios2-elf/lib\libc.a(lib_a-fclose.o)
 .debug_abbrev  0x000048f9      0x18e c:/altera/12.1sp1/nios2eds/bin/gnu/h-i686-mingw32/bin/../lib/gcc/nios2-elf/4.1.2/../../../../nios2-elf/lib\libc.a(lib_a-fstatr.o)
 .debug_abbrev  0x00004a87       0x3b c:/altera/12.1sp1/nios2eds/bin/gnu/h-i686-mingw32/bin/../lib/gcc/nios2-elf/4.1.2/../../../../nios2-elf/lib\libc.a(lib_a-int_errno.o)
 .debug_abbrev  0x00004ac2      0x17f c:/altera/12.1sp1/nios2eds/bin/gnu/h-i686-mingw32/bin/../lib/gcc/nios2-elf/4.1.2/../../../../nios2-elf/lib\libc.a(lib_a-isattyr.o)
 .debug_abbrev  0x00004c41      0x18e c:/altera/12.1sp1/nios2eds/bin/gnu/h-i686-mingw32/bin/../lib/gcc/nios2-elf/4.1.2/../../../../nios2-elf/lib\libc.a(lib_a-lseekr.o)
 .debug_abbrev  0x00004dcf      0x17f c:/altera/12.1sp1/nios2eds/bin/gnu/h-i686-mingw32/bin/../lib/gcc/nios2-elf/4.1.2/../../../../nios2-elf/lib\libc.a(lib_a-readr.o)
 .debug_abbrev  0x00004f4e      0x16b c:/altera/12.1sp1/nios2eds/bin/gnu/h-i686-mingw32/bin/../lib/gcc/nios2-elf/4.1.2\libgcc.a(_udivdi3.o)
 .debug_abbrev  0x000050b9      0x18e c:/altera/12.1sp1/nios2eds/bin/gnu/h-i686-mingw32/bin/../lib/gcc/nios2-elf/4.1.2\libgcc.a(_umoddi3.o)
 .debug_abbrev  0x00005247      0x151 c:/altera/12.1sp1/nios2eds/bin/gnu/h-i686-mingw32/bin/../lib/gcc/nios2-elf/4.1.2\libgcc.a(_eq_df.o)
 .debug_abbrev  0x00005398      0x151 c:/altera/12.1sp1/nios2eds/bin/gnu/h-i686-mingw32/bin/../lib/gcc/nios2-elf/4.1.2\libgcc.a(_ne_df.o)
 .debug_abbrev  0x000054e9      0x151 c:/altera/12.1sp1/nios2eds/bin/gnu/h-i686-mingw32/bin/../lib/gcc/nios2-elf/4.1.2\libgcc.a(_gt_df.o)
 .debug_abbrev  0x0000563a       0xe0 c:/altera/12.1sp1/nios2eds/bin/gnu/h-i686-mingw32/bin/../lib/gcc/nios2-elf/4.1.2\libgcc.a(lib2-divmod.o)
 .debug_abbrev  0x0000571a      0x102 C:/Users/jchang3/Documents/ECE492/test/software/accelerometer_pen50s_bsp/\libucosii_bsp.a(alt_close.o)
 .debug_abbrev  0x0000581c      0x10a C:/Users/jchang3/Documents/ECE492/test/software/accelerometer_pen50s_bsp/\libucosii_bsp.a(alt_dev.o)
 .debug_abbrev  0x00005926       0x5e C:/Users/jchang3/Documents/ECE492/test/software/accelerometer_pen50s_bsp/\libucosii_bsp.a(alt_errno.o)
 .debug_abbrev  0x00005984      0x102 C:/Users/jchang3/Documents/ECE492/test/software/accelerometer_pen50s_bsp/\libucosii_bsp.a(alt_fstat.o)
 .debug_abbrev  0x00005a86      0x102 C:/Users/jchang3/Documents/ECE492/test/software/accelerometer_pen50s_bsp/\libucosii_bsp.a(alt_isatty.o)
 .debug_abbrev  0x00005b88       0x88 C:/Users/jchang3/Documents/ECE492/test/software/accelerometer_pen50s_bsp/\libucosii_bsp.a(alt_load.o)
 .debug_abbrev  0x00005c10      0x102 C:/Users/jchang3/Documents/ECE492/test/software/accelerometer_pen50s_bsp/\libucosii_bsp.a(alt_lseek.o)
 .debug_abbrev  0x00005d12      0x120 C:/Users/jchang3/Documents/ECE492/test/software/accelerometer_pen50s_bsp/\libucosii_bsp.a(alt_main.o)
 .debug_abbrev  0x00005e32      0x102 C:/Users/jchang3/Documents/ECE492/test/software/accelerometer_pen50s_bsp/\libucosii_bsp.a(alt_read.o)
 .debug_abbrev  0x00005f34       0xd3 C:/Users/jchang3/Documents/ECE492/test/software/accelerometer_pen50s_bsp/\libucosii_bsp.a(alt_release_fd.o)
 .debug_abbrev  0x00006007      0x11c C:/Users/jchang3/Documents/ECE492/test/software/accelerometer_pen50s_bsp/\libucosii_bsp.a(alt_sbrk.o)
 .debug_abbrev  0x00006123      0x107 C:/Users/jchang3/Documents/ECE492/test/software/accelerometer_pen50s_bsp/\libucosii_bsp.a(alt_write.o)
 .debug_abbrev  0x0000622a      0x1b3 C:/Users/jchang3/Documents/ECE492/test/software/accelerometer_pen50s_bsp/\libucosii_bsp.a(alt_env_lock.o)
 .debug_abbrev  0x000063dd      0x234 C:/Users/jchang3/Documents/ECE492/test/software/accelerometer_pen50s_bsp/\libucosii_bsp.a(alt_malloc_lock.o)
 .debug_abbrev  0x00006611      0x2aa C:/Users/jchang3/Documents/ECE492/test/software/accelerometer_pen50s_bsp/\libucosii_bsp.a(os_core.o)
 .debug_abbrev  0x000068bb      0x114 C:/Users/jchang3/Documents/ECE492/test/software/accelerometer_pen50s_bsp/\libucosii_bsp.a(os_dbg.o)
 .debug_abbrev  0x000069cf      0x21b C:/Users/jchang3/Documents/ECE492/test/software/accelerometer_pen50s_bsp/\libucosii_bsp.a(os_flag.o)
 .debug_abbrev  0x00006bea      0x235 C:/Users/jchang3/Documents/ECE492/test/software/accelerometer_pen50s_bsp/\libucosii_bsp.a(os_mem.o)
 .debug_abbrev  0x00006e1f      0x20d C:/Users/jchang3/Documents/ECE492/test/software/accelerometer_pen50s_bsp/\libucosii_bsp.a(os_q.o)
 .debug_abbrev  0x0000702c      0x20d C:/Users/jchang3/Documents/ECE492/test/software/accelerometer_pen50s_bsp/\libucosii_bsp.a(os_sem.o)
 .debug_abbrev  0x00007239      0x20e C:/Users/jchang3/Documents/ECE492/test/software/accelerometer_pen50s_bsp/\libucosii_bsp.a(os_task.o)
 .debug_abbrev  0x00007447      0x1de C:/Users/jchang3/Documents/ECE492/test/software/accelerometer_pen50s_bsp/\libucosii_bsp.a(os_time.o)
 .debug_abbrev  0x00007625      0x1a3 C:/Users/jchang3/Documents/ECE492/test/software/accelerometer_pen50s_bsp/\libucosii_bsp.a(alt_sys_init.o)
 .debug_abbrev  0x000077c8      0x13c C:/Users/jchang3/Documents/ECE492/test/software/accelerometer_pen50s_bsp/\libucosii_bsp.a(altera_avalon_jtag_uart_fd.o)
 .debug_abbrev  0x00007904      0x21e C:/Users/jchang3/Documents/ECE492/test/software/accelerometer_pen50s_bsp/\libucosii_bsp.a(altera_avalon_jtag_uart_init.o)
 .debug_abbrev  0x00007b22      0x135 C:/Users/jchang3/Documents/ECE492/test/software/accelerometer_pen50s_bsp/\libucosii_bsp.a(altera_avalon_jtag_uart_ioctl.o)
 .debug_abbrev  0x00007c57      0x1ee C:/Users/jchang3/Documents/ECE492/test/software/accelerometer_pen50s_bsp/\libucosii_bsp.a(altera_avalon_jtag_uart_read.o)
 .debug_abbrev  0x00007e45      0x1ea C:/Users/jchang3/Documents/ECE492/test/software/accelerometer_pen50s_bsp/\libucosii_bsp.a(altera_avalon_jtag_uart_write.o)
 .debug_abbrev  0x0000802f      0x137 C:/Users/jchang3/Documents/ECE492/test/software/accelerometer_pen50s_bsp/\libucosii_bsp.a(altera_avalon_timer_sc.o)
 .debug_abbrev  0x00008166      0x127 C:/Users/jchang3/Documents/ECE492/test/software/accelerometer_pen50s_bsp/\libucosii_bsp.a(altera_up_avalon_character_lcd.o)
 .debug_abbrev  0x0000828d      0x127 C:/Users/jchang3/Documents/ECE492/test/software/accelerometer_pen50s_bsp/\libucosii_bsp.a(altera_up_avalon_rs232.o)
 .debug_abbrev  0x000083b4      0x1f9 C:/Users/jchang3/Documents/ECE492/test/software/accelerometer_pen50s_bsp/\libucosii_bsp.a(altera_up_sd_card_avalon_interface.o)
 .debug_abbrev  0x000085ad      0x172 C:/Users/jchang3/Documents/ECE492/test/software/accelerometer_pen50s_bsp/\libucosii_bsp.a(alt_alarm_start.o)
 .debug_abbrev  0x0000871f       0x3f C:/Users/jchang3/Documents/ECE492/test/software/accelerometer_pen50s_bsp/\libucosii_bsp.a(alt_dcache_flush_all.o)
 .debug_abbrev  0x0000875e       0xf6 C:/Users/jchang3/Documents/ECE492/test/software/accelerometer_pen50s_bsp/\libucosii_bsp.a(alt_dev_llist_insert.o)
 .debug_abbrev  0x00008854       0x76 C:/Users/jchang3/Documents/ECE492/test/software/accelerometer_pen50s_bsp/\libucosii_bsp.a(alt_do_ctors.o)
 .debug_abbrev  0x000088ca       0x76 C:/Users/jchang3/Documents/ECE492/test/software/accelerometer_pen50s_bsp/\libucosii_bsp.a(alt_do_dtors.o)
 .debug_abbrev  0x00008940       0xd6 C:/Users/jchang3/Documents/ECE492/test/software/accelerometer_pen50s_bsp/\libucosii_bsp.a(alt_find_dev.o)
 .debug_abbrev  0x00008a16       0x3f C:/Users/jchang3/Documents/ECE492/test/software/accelerometer_pen50s_bsp/\libucosii_bsp.a(alt_icache_flush_all.o)
 .debug_abbrev  0x00008a55       0xf7 C:/Users/jchang3/Documents/ECE492/test/software/accelerometer_pen50s_bsp/\libucosii_bsp.a(alt_io_redirect.o)
 .debug_abbrev  0x00008b4c      0x180 C:/Users/jchang3/Documents/ECE492/test/software/accelerometer_pen50s_bsp/\libucosii_bsp.a(alt_irq_register.o)
 .debug_abbrev  0x00008ccc       0x44 C:/Users/jchang3/Documents/ECE492/test/software/accelerometer_pen50s_bsp/\libucosii_bsp.a(alt_irq_vars.o)
 .debug_abbrev  0x00008d10      0x119 C:/Users/jchang3/Documents/ECE492/test/software/accelerometer_pen50s_bsp/\libucosii_bsp.a(alt_open.o)
 .debug_abbrev  0x00008e29      0x161 C:/Users/jchang3/Documents/ECE492/test/software/accelerometer_pen50s_bsp/\libucosii_bsp.a(alt_tick.o)
 .debug_abbrev  0x00008f8a       0x64 C:/Users/jchang3/Documents/ECE492/test/software/accelerometer_pen50s_bsp/\libucosii_bsp.a(altera_nios2_qsys_irq.o)
 .debug_abbrev  0x00008fee       0x14 C:/Users/jchang3/Documents/ECE492/test/software/accelerometer_pen50s_bsp/\libucosii_bsp.a(os_cpu_a.o)
 .debug_abbrev  0x00009002      0x1d0 C:/Users/jchang3/Documents/ECE492/test/software/accelerometer_pen50s_bsp/\libucosii_bsp.a(os_cpu_c.o)
 .debug_abbrev  0x000091d2       0xd6 C:/Users/jchang3/Documents/ECE492/test/software/accelerometer_pen50s_bsp/\libucosii_bsp.a(alt_find_file.o)
 .debug_abbrev  0x000092a8      0x173 C:/Users/jchang3/Documents/ECE492/test/software/accelerometer_pen50s_bsp/\libucosii_bsp.a(alt_get_fd.o)
 .debug_abbrev  0x0000941b       0x7a C:/Users/jchang3/Documents/ECE492/test/software/accelerometer_pen50s_bsp/\libucosii_bsp.a(alt_icache_flush.o)
 .debug_abbrev  0x00009495       0x12 C:/Users/jchang3/Documents/ECE492/test/software/accelerometer_pen50s_bsp/\libucosii_bsp.a(alt_irq_entry.o)
 .debug_abbrev  0x000094a7      0x124 C:/Users/jchang3/Documents/ECE492/test/software/accelerometer_pen50s_bsp/\libucosii_bsp.a(alt_irq_handler.o)
 .debug_abbrev  0x000095cb       0x12 C:/Users/jchang3/Documents/ECE492/test/software/accelerometer_pen50s_bsp/\libucosii_bsp.a(alt_exception_entry.o)
 .debug_abbrev  0x000095dd       0xb7 c:/altera/12.1sp1/nios2eds/bin/gnu/h-i686-mingw32/bin/../lib/gcc/nios2-elf/4.1.2/../../../../nios2-elf/lib\libc.a(lib_a-atexit.o)
 .debug_abbrev  0x00009694      0x16e c:/altera/12.1sp1/nios2eds/bin/gnu/h-i686-mingw32/bin/../lib/gcc/nios2-elf/4.1.2/../../../../nios2-elf/lib\libc.a(lib_a-exit.o)
 .debug_abbrev  0x00009802       0x7c c:/altera/12.1sp1/nios2eds/bin/gnu/h-i686-mingw32/bin/../lib/gcc/nios2-elf/4.1.2/../../../../nios2-elf/lib\libc.a(lib_a-memcmp.o)
 .debug_abbrev  0x0000987e      0x1ae c:/altera/12.1sp1/nios2eds/bin/gnu/h-i686-mingw32/bin/../lib/gcc/nios2-elf/4.1.2/../../../../nios2-elf/lib\libc.a(lib_a-__atexit.o)
 .debug_abbrev  0x00009a2c      0x1de c:/altera/12.1sp1/nios2eds/bin/gnu/h-i686-mingw32/bin/../lib/gcc/nios2-elf/4.1.2/../../../../nios2-elf/lib\libc.a(lib_a-__call_atexit.o)
 .debug_abbrev  0x00009c0a       0xaa C:/Users/jchang3/Documents/ECE492/test/software/accelerometer_pen50s_bsp/\libucosii_bsp.a(alt_exit.o)

.debug_line     0x00000000    0x1f0f0
 *(.debug_line)
 .debug_line    0x00000000       0x6c C:/Users/jchang3/Documents/ECE492/test/software/accelerometer_pen50s_bsp//obj/HAL/src/crt0.o
 .debug_line    0x0000006c      0x40b obj/default/dtw.o
 .debug_line    0x00000477      0xd96 obj/default/hello_ucosii.o
 .debug_line    0x0000120d      0x30d c:/altera/12.1sp1/nios2eds/bin/gnu/h-i686-mingw32/bin/../lib/gcc/nios2-elf/4.1.2/../../../../nios2-elf/lib\libm.a(lib_a-w_sqrt.o)
 .debug_line    0x0000151a      0x4e0 c:/altera/12.1sp1/nios2eds/bin/gnu/h-i686-mingw32/bin/../lib/gcc/nios2-elf/4.1.2/../../../../nios2-elf/lib\libm.a(lib_a-e_sqrt.o)
 .debug_line    0x000019fa      0x21a c:/altera/12.1sp1/nios2eds/bin/gnu/h-i686-mingw32/bin/../lib/gcc/nios2-elf/4.1.2/../../../../nios2-elf/lib\libm.a(lib_a-s_isnand.o)
 .debug_line    0x00001c14      0x1f9 c:/altera/12.1sp1/nios2eds/bin/gnu/h-i686-mingw32/bin/../lib/gcc/nios2-elf/4.1.2/../../../../nios2-elf/lib\libm.a(lib_a-s_lib_ver.o)
 .debug_line    0x00001e0d      0x20b c:/altera/12.1sp1/nios2eds/bin/gnu/h-i686-mingw32/bin/../lib/gcc/nios2-elf/4.1.2/../../../../nios2-elf/lib\libm.a(lib_a-s_matherr.o)
 .debug_line    0x00002018      0x11f c:/altera/12.1sp1/nios2eds/bin/gnu/h-i686-mingw32/bin/../lib/gcc/nios2-elf/4.1.2\libgcc.a(_muldi3.o)
 .debug_line    0x00002137      0x11f c:/altera/12.1sp1/nios2eds/bin/gnu/h-i686-mingw32/bin/../lib/gcc/nios2-elf/4.1.2\libgcc.a(_fixdfdi.o)
 .debug_line    0x00002256       0xef c:/altera/12.1sp1/nios2eds/bin/gnu/h-i686-mingw32/bin/../lib/gcc/nios2-elf/4.1.2\libgcc.a(_fixunsdfdi.o)
 .debug_line    0x00002345       0xdf c:/altera/12.1sp1/nios2eds/bin/gnu/h-i686-mingw32/bin/../lib/gcc/nios2-elf/4.1.2\libgcc.a(_floatdidf.o)
 .debug_line    0x00002424      0x430 c:/altera/12.1sp1/nios2eds/bin/gnu/h-i686-mingw32/bin/../lib/gcc/nios2-elf/4.1.2\libgcc.a(_addsub_df.o)
 .debug_line    0x00002854      0x3e5 c:/altera/12.1sp1/nios2eds/bin/gnu/h-i686-mingw32/bin/../lib/gcc/nios2-elf/4.1.2\libgcc.a(_mul_df.o)
 .debug_line    0x00002c39      0x301 c:/altera/12.1sp1/nios2eds/bin/gnu/h-i686-mingw32/bin/../lib/gcc/nios2-elf/4.1.2\libgcc.a(_div_df.o)
 .debug_line    0x00002f3a      0x129 c:/altera/12.1sp1/nios2eds/bin/gnu/h-i686-mingw32/bin/../lib/gcc/nios2-elf/4.1.2\libgcc.a(_lt_df.o)
 .debug_line    0x00003063      0x175 c:/altera/12.1sp1/nios2eds/bin/gnu/h-i686-mingw32/bin/../lib/gcc/nios2-elf/4.1.2\libgcc.a(_si_to_df.o)
 .debug_line    0x000031d8      0x149 c:/altera/12.1sp1/nios2eds/bin/gnu/h-i686-mingw32/bin/../lib/gcc/nios2-elf/4.1.2\libgcc.a(_df_to_si.o)
 .debug_line    0x00003321       0x94 c:/altera/12.1sp1/nios2eds/bin/gnu/h-i686-mingw32/bin/../lib/gcc/nios2-elf/4.1.2\libgcc.a(_thenan_df.o)
 .debug_line    0x000033b5      0x189 c:/altera/12.1sp1/nios2eds/bin/gnu/h-i686-mingw32/bin/../lib/gcc/nios2-elf/4.1.2\libgcc.a(_usi_to_df.o)
 .debug_line    0x0000353e      0x105 c:/altera/12.1sp1/nios2eds/bin/gnu/h-i686-mingw32/bin/../lib/gcc/nios2-elf/4.1.2\libgcc.a(_clzsi2.o)
 .debug_line    0x00003643       0xff c:/altera/12.1sp1/nios2eds/bin/gnu/h-i686-mingw32/bin/../lib/gcc/nios2-elf/4.1.2\libgcc.a(_fixunsdfsi.o)
 .debug_line    0x00003742      0x222 c:/altera/12.1sp1/nios2eds/bin/gnu/h-i686-mingw32/bin/../lib/gcc/nios2-elf/4.1.2\libgcc.a(_pack_df.o)
 .debug_line    0x00003964      0x1e4 c:/altera/12.1sp1/nios2eds/bin/gnu/h-i686-mingw32/bin/../lib/gcc/nios2-elf/4.1.2\libgcc.a(_unpack_df.o)
 .debug_line    0x00003b48      0x187 c:/altera/12.1sp1/nios2eds/bin/gnu/h-i686-mingw32/bin/../lib/gcc/nios2-elf/4.1.2\libgcc.a(_fpcmp_parts_df.o)
 .debug_line    0x00003ccf      0x129 c:/altera/12.1sp1/nios2eds/bin/gnu/h-i686-mingw32/bin/../lib/gcc/nios2-elf/4.1.2\libgcc.a(_ge_df.o)
 .debug_line    0x00003df8       0xaa c:/altera/12.1sp1/nios2eds/bin/gnu/h-i686-mingw32/bin/../lib/gcc/nios2-elf/4.1.2\libgcc.a(_clz.o)
 .debug_line    0x00003ea2      0x1ec c:/altera/12.1sp1/nios2eds/bin/gnu/h-i686-mingw32/bin/../lib/gcc/nios2-elf/4.1.2/../../../../nios2-elf/lib\libc.a(lib_a-errno.o)
 .debug_line    0x0000408e      0x22d c:/altera/12.1sp1/nios2eds/bin/gnu/h-i686-mingw32/bin/../lib/gcc/nios2-elf/4.1.2/../../../../nios2-elf/lib\libc.a(lib_a-impure.o)
 .debug_line    0x000042bb      0x29b c:/altera/12.1sp1/nios2eds/bin/gnu/h-i686-mingw32/bin/../lib/gcc/nios2-elf/4.1.2/../../../../nios2-elf/lib\libc.a(lib_a-printf.o)
 .debug_line    0x00004556      0x2f7 c:/altera/12.1sp1/nios2eds/bin/gnu/h-i686-mingw32/bin/../lib/gcc/nios2-elf/4.1.2/../../../../nios2-elf/lib\libc.a(lib_a-puts.o)
 .debug_line    0x0000484d      0x26d c:/altera/12.1sp1/nios2eds/bin/gnu/h-i686-mingw32/bin/../lib/gcc/nios2-elf/4.1.2/../../../../nios2-elf/lib\libc.a(lib_a-strlen.o)
 .debug_line    0x00004aba     0x110c c:/altera/12.1sp1/nios2eds/bin/gnu/h-i686-mingw32/bin/../lib/gcc/nios2-elf/4.1.2/../../../../nios2-elf/lib\libc.a(lib_a-vfprintf.o)
 .debug_line    0x00005bc6      0x2f0 c:/altera/12.1sp1/nios2eds/bin/gnu/h-i686-mingw32/bin/../lib/gcc/nios2-elf/4.1.2/../../../../nios2-elf/lib\libc.a(lib_a-wsetup.o)
 .debug_line    0x00005eb6     0x12c6 c:/altera/12.1sp1/nios2eds/bin/gnu/h-i686-mingw32/bin/../lib/gcc/nios2-elf/4.1.2/../../../../nios2-elf/lib\libc.a(lib_a-dtoa.o)
 .debug_line    0x0000717c      0x40d c:/altera/12.1sp1/nios2eds/bin/gnu/h-i686-mingw32/bin/../lib/gcc/nios2-elf/4.1.2/../../../../nios2-elf/lib\libc.a(lib_a-fflush.o)
 .debug_line    0x00007589      0x601 c:/altera/12.1sp1/nios2eds/bin/gnu/h-i686-mingw32/bin/../lib/gcc/nios2-elf/4.1.2/../../../../nios2-elf/lib\libc.a(lib_a-findfp.o)
 .debug_line    0x00007b8a      0x5eb c:/altera/12.1sp1/nios2eds/bin/gnu/h-i686-mingw32/bin/../lib/gcc/nios2-elf/4.1.2/../../../../nios2-elf/lib\libc.a(lib_a-freer.o)
 .debug_line    0x00008175      0x641 c:/altera/12.1sp1/nios2eds/bin/gnu/h-i686-mingw32/bin/../lib/gcc/nios2-elf/4.1.2/../../../../nios2-elf/lib\libc.a(lib_a-fvwrite.o)
 .debug_line    0x000087b6      0x34a c:/altera/12.1sp1/nios2eds/bin/gnu/h-i686-mingw32/bin/../lib/gcc/nios2-elf/4.1.2/../../../../nios2-elf/lib\libc.a(lib_a-fwalk.o)
 .debug_line    0x00008b00      0x2c8 c:/altera/12.1sp1/nios2eds/bin/gnu/h-i686-mingw32/bin/../lib/gcc/nios2-elf/4.1.2/../../../../nios2-elf/lib\libc.a(lib_a-locale.o)
 .debug_line    0x00008dc8      0x3c3 c:/altera/12.1sp1/nios2eds/bin/gnu/h-i686-mingw32/bin/../lib/gcc/nios2-elf/4.1.2/../../../../nios2-elf/lib\libc.a(lib_a-makebuf.o)
 .debug_line    0x0000918b      0x80a c:/altera/12.1sp1/nios2eds/bin/gnu/h-i686-mingw32/bin/../lib/gcc/nios2-elf/4.1.2/../../../../nios2-elf/lib\libc.a(lib_a-mallocr.o)
 .debug_line    0x00009995      0x303 c:/altera/12.1sp1/nios2eds/bin/gnu/h-i686-mingw32/bin/../lib/gcc/nios2-elf/4.1.2/../../../../nios2-elf/lib\libc.a(lib_a-memchr.o)
 .debug_line    0x00009c98      0x1ac c:/altera/12.1sp1/nios2eds/bin/gnu/h-i686-mingw32/bin/../lib/gcc/nios2-elf/4.1.2/../../../../nios2-elf/lib\libc.a(lib_a-memcpy.o)
 .debug_line    0x00009e44      0x30a c:/altera/12.1sp1/nios2eds/bin/gnu/h-i686-mingw32/bin/../lib/gcc/nios2-elf/4.1.2/../../../../nios2-elf/lib\libc.a(lib_a-memmove.o)
 .debug_line    0x0000a14e      0x301 c:/altera/12.1sp1/nios2eds/bin/gnu/h-i686-mingw32/bin/../lib/gcc/nios2-elf/4.1.2/../../../../nios2-elf/lib\libc.a(lib_a-memset.o)
 .debug_line    0x0000a44f     0x1243 c:/altera/12.1sp1/nios2eds/bin/gnu/h-i686-mingw32/bin/../lib/gcc/nios2-elf/4.1.2/../../../../nios2-elf/lib\libc.a(lib_a-mprec.o)
 .debug_line    0x0000b692      0x58a c:/altera/12.1sp1/nios2eds/bin/gnu/h-i686-mingw32/bin/../lib/gcc/nios2-elf/4.1.2/../../../../nios2-elf/lib\libc.a(lib_a-reallocr.o)
 .debug_line    0x0000bc1c      0x222 c:/altera/12.1sp1/nios2eds/bin/gnu/h-i686-mingw32/bin/../lib/gcc/nios2-elf/4.1.2/../../../../nios2-elf/lib\libc.a(lib_a-s_isinfd.o)
 .debug_line    0x0000be3e      0x299 c:/altera/12.1sp1/nios2eds/bin/gnu/h-i686-mingw32/bin/../lib/gcc/nios2-elf/4.1.2/../../../../nios2-elf/lib\libc.a(lib_a-sbrkr.o)
 .debug_line    0x0000c0d7      0x38c c:/altera/12.1sp1/nios2eds/bin/gnu/h-i686-mingw32/bin/../lib/gcc/nios2-elf/4.1.2/../../../../nios2-elf/lib\libc.a(lib_a-stdio.o)
 .debug_line    0x0000c463      0x2d5 c:/altera/12.1sp1/nios2eds/bin/gnu/h-i686-mingw32/bin/../lib/gcc/nios2-elf/4.1.2/../../../../nios2-elf/lib\libc.a(lib_a-strcmp.o)
 .debug_line    0x0000c738      0x29a c:/altera/12.1sp1/nios2eds/bin/gnu/h-i686-mingw32/bin/../lib/gcc/nios2-elf/4.1.2/../../../../nios2-elf/lib\libc.a(lib_a-writer.o)
 .debug_line    0x0000c9d2      0x25c c:/altera/12.1sp1/nios2eds/bin/gnu/h-i686-mingw32/bin/../lib/gcc/nios2-elf/4.1.2/../../../../nios2-elf/lib\libc.a(lib_a-callocr.o)
 .debug_line    0x0000cc2e      0x29a c:/altera/12.1sp1/nios2eds/bin/gnu/h-i686-mingw32/bin/../lib/gcc/nios2-elf/4.1.2/../../../../nios2-elf/lib\libc.a(lib_a-closer.o)
 .debug_line    0x0000cec8      0x2e8 c:/altera/12.1sp1/nios2eds/bin/gnu/h-i686-mingw32/bin/../lib/gcc/nios2-elf/4.1.2/../../../../nios2-elf/lib\libc.a(lib_a-fclose.o)
 .debug_line    0x0000d1b0      0x264 c:/altera/12.1sp1/nios2eds/bin/gnu/h-i686-mingw32/bin/../lib/gcc/nios2-elf/4.1.2/../../../../nios2-elf/lib\libc.a(lib_a-fstatr.o)
 .debug_line    0x0000d414      0x1df c:/altera/12.1sp1/nios2eds/bin/gnu/h-i686-mingw32/bin/../lib/gcc/nios2-elf/4.1.2/../../../../nios2-elf/lib\libc.a(lib_a-int_errno.o)
 .debug_line    0x0000d5f3      0x29b c:/altera/12.1sp1/nios2eds/bin/gnu/h-i686-mingw32/bin/../lib/gcc/nios2-elf/4.1.2/../../../../nios2-elf/lib\libc.a(lib_a-isattyr.o)
 .debug_line    0x0000d88e      0x29a c:/altera/12.1sp1/nios2eds/bin/gnu/h-i686-mingw32/bin/../lib/gcc/nios2-elf/4.1.2/../../../../nios2-elf/lib\libc.a(lib_a-lseekr.o)
 .debug_line    0x0000db28      0x299 c:/altera/12.1sp1/nios2eds/bin/gnu/h-i686-mingw32/bin/../lib/gcc/nios2-elf/4.1.2/../../../../nios2-elf/lib\libc.a(lib_a-readr.o)
 .debug_line    0x0000ddc1      0x2f2 c:/altera/12.1sp1/nios2eds/bin/gnu/h-i686-mingw32/bin/../lib/gcc/nios2-elf/4.1.2\libgcc.a(_udivdi3.o)
 .debug_line    0x0000e0b3      0x37d c:/altera/12.1sp1/nios2eds/bin/gnu/h-i686-mingw32/bin/../lib/gcc/nios2-elf/4.1.2\libgcc.a(_umoddi3.o)
 .debug_line    0x0000e430      0x129 c:/altera/12.1sp1/nios2eds/bin/gnu/h-i686-mingw32/bin/../lib/gcc/nios2-elf/4.1.2\libgcc.a(_eq_df.o)
 .debug_line    0x0000e559      0x129 c:/altera/12.1sp1/nios2eds/bin/gnu/h-i686-mingw32/bin/../lib/gcc/nios2-elf/4.1.2\libgcc.a(_ne_df.o)
 .debug_line    0x0000e682      0x129 c:/altera/12.1sp1/nios2eds/bin/gnu/h-i686-mingw32/bin/../lib/gcc/nios2-elf/4.1.2\libgcc.a(_gt_df.o)
 .debug_line    0x0000e7ab      0x24f c:/altera/12.1sp1/nios2eds/bin/gnu/h-i686-mingw32/bin/../lib/gcc/nios2-elf/4.1.2\libgcc.a(lib2-divmod.o)
 .debug_line    0x0000e9fa      0x30d C:/Users/jchang3/Documents/ECE492/test/software/accelerometer_pen50s_bsp/\libucosii_bsp.a(alt_close.o)
 .debug_line    0x0000ed07      0x2d1 C:/Users/jchang3/Documents/ECE492/test/software/accelerometer_pen50s_bsp/\libucosii_bsp.a(alt_dev.o)
 .debug_line    0x0000efd8      0x1aa C:/Users/jchang3/Documents/ECE492/test/software/accelerometer_pen50s_bsp/\libucosii_bsp.a(alt_errno.o)
 .debug_line    0x0000f182      0x315 C:/Users/jchang3/Documents/ECE492/test/software/accelerometer_pen50s_bsp/\libucosii_bsp.a(alt_fstat.o)
 .debug_line    0x0000f497      0x316 C:/Users/jchang3/Documents/ECE492/test/software/accelerometer_pen50s_bsp/\libucosii_bsp.a(alt_isatty.o)
 .debug_line    0x0000f7ad      0x217 C:/Users/jchang3/Documents/ECE492/test/software/accelerometer_pen50s_bsp/\libucosii_bsp.a(alt_load.o)
 .debug_line    0x0000f9c4      0x315 C:/Users/jchang3/Documents/ECE492/test/software/accelerometer_pen50s_bsp/\libucosii_bsp.a(alt_lseek.o)
 .debug_line    0x0000fcd9      0x35d C:/Users/jchang3/Documents/ECE492/test/software/accelerometer_pen50s_bsp/\libucosii_bsp.a(alt_main.o)
 .debug_line    0x00010036      0x33c C:/Users/jchang3/Documents/ECE492/test/software/accelerometer_pen50s_bsp/\libucosii_bsp.a(alt_read.o)
 .debug_line    0x00010372      0x28d C:/Users/jchang3/Documents/ECE492/test/software/accelerometer_pen50s_bsp/\libucosii_bsp.a(alt_release_fd.o)
 .debug_line    0x000105ff      0x27a C:/Users/jchang3/Documents/ECE492/test/software/accelerometer_pen50s_bsp/\libucosii_bsp.a(alt_sbrk.o)
 .debug_line    0x00010879      0x33d C:/Users/jchang3/Documents/ECE492/test/software/accelerometer_pen50s_bsp/\libucosii_bsp.a(alt_write.o)
 .debug_line    0x00010bb6      0x2d8 C:/Users/jchang3/Documents/ECE492/test/software/accelerometer_pen50s_bsp/\libucosii_bsp.a(alt_env_lock.o)
 .debug_line    0x00010e8e      0x394 C:/Users/jchang3/Documents/ECE492/test/software/accelerometer_pen50s_bsp/\libucosii_bsp.a(alt_malloc_lock.o)
 .debug_line    0x00011222     0x167c C:/Users/jchang3/Documents/ECE492/test/software/accelerometer_pen50s_bsp/\libucosii_bsp.a(os_core.o)
 .debug_line    0x0001289e      0x3a1 C:/Users/jchang3/Documents/ECE492/test/software/accelerometer_pen50s_bsp/\libucosii_bsp.a(os_dbg.o)
 .debug_line    0x00012c3f     0x1200 C:/Users/jchang3/Documents/ECE492/test/software/accelerometer_pen50s_bsp/\libucosii_bsp.a(os_flag.o)
 .debug_line    0x00013e3f      0x7a3 C:/Users/jchang3/Documents/ECE492/test/software/accelerometer_pen50s_bsp/\libucosii_bsp.a(os_mem.o)
 .debug_line    0x000145e2      0xe84 C:/Users/jchang3/Documents/ECE492/test/software/accelerometer_pen50s_bsp/\libucosii_bsp.a(os_q.o)
 .debug_line    0x00015466      0xa3c C:/Users/jchang3/Documents/ECE492/test/software/accelerometer_pen50s_bsp/\libucosii_bsp.a(os_sem.o)
 .debug_line    0x00015ea2     0x1145 C:/Users/jchang3/Documents/ECE492/test/software/accelerometer_pen50s_bsp/\libucosii_bsp.a(os_task.o)
 .debug_line    0x00016fe7      0x548 C:/Users/jchang3/Documents/ECE492/test/software/accelerometer_pen50s_bsp/\libucosii_bsp.a(os_time.o)
 .debug_line    0x0001752f      0x390 C:/Users/jchang3/Documents/ECE492/test/software/accelerometer_pen50s_bsp/\libucosii_bsp.a(alt_sys_init.o)
 .debug_line    0x000178bf      0x330 C:/Users/jchang3/Documents/ECE492/test/software/accelerometer_pen50s_bsp/\libucosii_bsp.a(altera_avalon_jtag_uart_fd.o)
 .debug_line    0x00017bef      0x5af C:/Users/jchang3/Documents/ECE492/test/software/accelerometer_pen50s_bsp/\libucosii_bsp.a(altera_avalon_jtag_uart_init.o)
 .debug_line    0x0001819e      0x36d C:/Users/jchang3/Documents/ECE492/test/software/accelerometer_pen50s_bsp/\libucosii_bsp.a(altera_avalon_jtag_uart_ioctl.o)
 .debug_line    0x0001850b      0x4ab C:/Users/jchang3/Documents/ECE492/test/software/accelerometer_pen50s_bsp/\libucosii_bsp.a(altera_avalon_jtag_uart_read.o)
 .debug_line    0x000189b6      0x4b9 C:/Users/jchang3/Documents/ECE492/test/software/accelerometer_pen50s_bsp/\libucosii_bsp.a(altera_avalon_jtag_uart_write.o)
 .debug_line    0x00018e6f      0x2ca C:/Users/jchang3/Documents/ECE492/test/software/accelerometer_pen50s_bsp/\libucosii_bsp.a(altera_avalon_timer_sc.o)
 .debug_line    0x00019139      0x4d9 C:/Users/jchang3/Documents/ECE492/test/software/accelerometer_pen50s_bsp/\libucosii_bsp.a(altera_up_avalon_character_lcd.o)
 .debug_line    0x00019612      0x461 C:/Users/jchang3/Documents/ECE492/test/software/accelerometer_pen50s_bsp/\libucosii_bsp.a(altera_up_avalon_rs232.o)
 .debug_line    0x00019a73     0x1a68 C:/Users/jchang3/Documents/ECE492/test/software/accelerometer_pen50s_bsp/\libucosii_bsp.a(altera_up_sd_card_avalon_interface.o)
 .debug_line    0x0001b4db      0x2f5 C:/Users/jchang3/Documents/ECE492/test/software/accelerometer_pen50s_bsp/\libucosii_bsp.a(alt_alarm_start.o)
 .debug_line    0x0001b7d0      0x1b5 C:/Users/jchang3/Documents/ECE492/test/software/accelerometer_pen50s_bsp/\libucosii_bsp.a(alt_dcache_flush_all.o)
 .debug_line    0x0001b985      0x25a C:/Users/jchang3/Documents/ECE492/test/software/accelerometer_pen50s_bsp/\libucosii_bsp.a(alt_dev_llist_insert.o)
 .debug_line    0x0001bbdf       0x83 C:/Users/jchang3/Documents/ECE492/test/software/accelerometer_pen50s_bsp/\libucosii_bsp.a(alt_do_ctors.o)
 .debug_line    0x0001bc62       0x83 C:/Users/jchang3/Documents/ECE492/test/software/accelerometer_pen50s_bsp/\libucosii_bsp.a(alt_do_dtors.o)
 .debug_line    0x0001bce5      0x2ee C:/Users/jchang3/Documents/ECE492/test/software/accelerometer_pen50s_bsp/\libucosii_bsp.a(alt_find_dev.o)
 .debug_line    0x0001bfd3      0x1bd C:/Users/jchang3/Documents/ECE492/test/software/accelerometer_pen50s_bsp/\libucosii_bsp.a(alt_icache_flush_all.o)
 .debug_line    0x0001c190      0x337 C:/Users/jchang3/Documents/ECE492/test/software/accelerometer_pen50s_bsp/\libucosii_bsp.a(alt_io_redirect.o)
 .debug_line    0x0001c4c7      0x36d C:/Users/jchang3/Documents/ECE492/test/software/accelerometer_pen50s_bsp/\libucosii_bsp.a(alt_irq_register.o)
 .debug_line    0x0001c834       0x72 C:/Users/jchang3/Documents/ECE492/test/software/accelerometer_pen50s_bsp/\libucosii_bsp.a(alt_irq_vars.o)
 .debug_line    0x0001c8a6      0x373 C:/Users/jchang3/Documents/ECE492/test/software/accelerometer_pen50s_bsp/\libucosii_bsp.a(alt_open.o)
 .debug_line    0x0001cc19      0x32f C:/Users/jchang3/Documents/ECE492/test/software/accelerometer_pen50s_bsp/\libucosii_bsp.a(alt_tick.o)
 .debug_line    0x0001cf48      0x1e7 C:/Users/jchang3/Documents/ECE492/test/software/accelerometer_pen50s_bsp/\libucosii_bsp.a(altera_nios2_qsys_irq.o)
 .debug_line    0x0001d12f       0x86 C:/Users/jchang3/Documents/ECE492/test/software/accelerometer_pen50s_bsp/\libucosii_bsp.a(os_cpu_a.o)
 .debug_line    0x0001d1b5      0x341 C:/Users/jchang3/Documents/ECE492/test/software/accelerometer_pen50s_bsp/\libucosii_bsp.a(os_cpu_c.o)
 .debug_line    0x0001d4f6      0x2ff C:/Users/jchang3/Documents/ECE492/test/software/accelerometer_pen50s_bsp/\libucosii_bsp.a(alt_find_file.o)
 .debug_line    0x0001d7f5      0x32f C:/Users/jchang3/Documents/ECE492/test/software/accelerometer_pen50s_bsp/\libucosii_bsp.a(alt_get_fd.o)
 .debug_line    0x0001db24      0x1f9 C:/Users/jchang3/Documents/ECE492/test/software/accelerometer_pen50s_bsp/\libucosii_bsp.a(alt_icache_flush.o)
 .debug_line    0x0001dd1d       0x6b C:/Users/jchang3/Documents/ECE492/test/software/accelerometer_pen50s_bsp/\libucosii_bsp.a(alt_irq_entry.o)
 .debug_line    0x0001dd88      0x2dd C:/Users/jchang3/Documents/ECE492/test/software/accelerometer_pen50s_bsp/\libucosii_bsp.a(alt_irq_handler.o)
 .debug_line    0x0001e065       0xab C:/Users/jchang3/Documents/ECE492/test/software/accelerometer_pen50s_bsp/\libucosii_bsp.a(alt_exception_entry.o)
 .debug_line    0x0001e110      0x200 c:/altera/12.1sp1/nios2eds/bin/gnu/h-i686-mingw32/bin/../lib/gcc/nios2-elf/4.1.2/../../../../nios2-elf/lib\libc.a(lib_a-atexit.o)
 .debug_line    0x0001e310      0x238 c:/altera/12.1sp1/nios2eds/bin/gnu/h-i686-mingw32/bin/../lib/gcc/nios2-elf/4.1.2/../../../../nios2-elf/lib\libc.a(lib_a-exit.o)
 .debug_line    0x0001e548      0x29f c:/altera/12.1sp1/nios2eds/bin/gnu/h-i686-mingw32/bin/../lib/gcc/nios2-elf/4.1.2/../../../../nios2-elf/lib\libc.a(lib_a-memcmp.o)
 .debug_line    0x0001e7e7      0x313 c:/altera/12.1sp1/nios2eds/bin/gnu/h-i686-mingw32/bin/../lib/gcc/nios2-elf/4.1.2/../../../../nios2-elf/lib\libc.a(lib_a-__atexit.o)
 .debug_line    0x0001eafa      0x367 c:/altera/12.1sp1/nios2eds/bin/gnu/h-i686-mingw32/bin/../lib/gcc/nios2-elf/4.1.2/../../../../nios2-elf/lib\libc.a(lib_a-__call_atexit.o)
 .debug_line    0x0001ee61      0x28f C:/Users/jchang3/Documents/ECE492/test/software/accelerometer_pen50s_bsp/\libucosii_bsp.a(alt_exit.o)

.debug_frame    0x00000000     0x2cd8
 *(.debug_frame)
 .debug_frame   0x00000000       0xa0 obj/default/dtw.o
 .debug_frame   0x000000a0      0x118 obj/default/hello_ucosii.o
 .debug_frame   0x000001b8       0x34 c:/altera/12.1sp1/nios2eds/bin/gnu/h-i686-mingw32/bin/../lib/gcc/nios2-elf/4.1.2/../../../../nios2-elf/lib\libm.a(lib_a-w_sqrt.o)
 .debug_frame   0x000001ec       0x2c c:/altera/12.1sp1/nios2eds/bin/gnu/h-i686-mingw32/bin/../lib/gcc/nios2-elf/4.1.2/../../../../nios2-elf/lib\libm.a(lib_a-e_sqrt.o)
 .debug_frame   0x00000218       0x20 c:/altera/12.1sp1/nios2eds/bin/gnu/h-i686-mingw32/bin/../lib/gcc/nios2-elf/4.1.2/../../../../nios2-elf/lib\libm.a(lib_a-s_isnand.o)
 .debug_frame   0x00000238       0x20 c:/altera/12.1sp1/nios2eds/bin/gnu/h-i686-mingw32/bin/../lib/gcc/nios2-elf/4.1.2/../../../../nios2-elf/lib\libm.a(lib_a-s_matherr.o)
 .debug_frame   0x00000258       0x2c c:/altera/12.1sp1/nios2eds/bin/gnu/h-i686-mingw32/bin/../lib/gcc/nios2-elf/4.1.2\libgcc.a(_muldi3.o)
 .debug_frame   0x00000284       0x2c c:/altera/12.1sp1/nios2eds/bin/gnu/h-i686-mingw32/bin/../lib/gcc/nios2-elf/4.1.2\libgcc.a(_fixdfdi.o)
 .debug_frame   0x000002b0       0x30 c:/altera/12.1sp1/nios2eds/bin/gnu/h-i686-mingw32/bin/../lib/gcc/nios2-elf/4.1.2\libgcc.a(_fixunsdfdi.o)
 .debug_frame   0x000002e0       0x30 c:/altera/12.1sp1/nios2eds/bin/gnu/h-i686-mingw32/bin/../lib/gcc/nios2-elf/4.1.2\libgcc.a(_floatdidf.o)
 .debug_frame   0x00000310       0x70 c:/altera/12.1sp1/nios2eds/bin/gnu/h-i686-mingw32/bin/../lib/gcc/nios2-elf/4.1.2\libgcc.a(_addsub_df.o)
 .debug_frame   0x00000380       0x3c c:/altera/12.1sp1/nios2eds/bin/gnu/h-i686-mingw32/bin/../lib/gcc/nios2-elf/4.1.2\libgcc.a(_mul_df.o)
 .debug_frame   0x000003bc       0x30 c:/altera/12.1sp1/nios2eds/bin/gnu/h-i686-mingw32/bin/../lib/gcc/nios2-elf/4.1.2\libgcc.a(_div_df.o)
 .debug_frame   0x000003ec       0x2c c:/altera/12.1sp1/nios2eds/bin/gnu/h-i686-mingw32/bin/../lib/gcc/nios2-elf/4.1.2\libgcc.a(_lt_df.o)
 .debug_frame   0x00000418       0x30 c:/altera/12.1sp1/nios2eds/bin/gnu/h-i686-mingw32/bin/../lib/gcc/nios2-elf/4.1.2\libgcc.a(_si_to_df.o)
 .debug_frame   0x00000448       0x28 c:/altera/12.1sp1/nios2eds/bin/gnu/h-i686-mingw32/bin/../lib/gcc/nios2-elf/4.1.2\libgcc.a(_df_to_si.o)
 .debug_frame   0x00000470       0x38 c:/altera/12.1sp1/nios2eds/bin/gnu/h-i686-mingw32/bin/../lib/gcc/nios2-elf/4.1.2\libgcc.a(_usi_to_df.o)
 .debug_frame   0x000004a8       0x20 c:/altera/12.1sp1/nios2eds/bin/gnu/h-i686-mingw32/bin/../lib/gcc/nios2-elf/4.1.2\libgcc.a(_clzsi2.o)
 .debug_frame   0x000004c8       0x30 c:/altera/12.1sp1/nios2eds/bin/gnu/h-i686-mingw32/bin/../lib/gcc/nios2-elf/4.1.2\libgcc.a(_fixunsdfsi.o)
 .debug_frame   0x000004f8       0x2c c:/altera/12.1sp1/nios2eds/bin/gnu/h-i686-mingw32/bin/../lib/gcc/nios2-elf/4.1.2\libgcc.a(_pack_df.o)
 .debug_frame   0x00000524       0x20 c:/altera/12.1sp1/nios2eds/bin/gnu/h-i686-mingw32/bin/../lib/gcc/nios2-elf/4.1.2\libgcc.a(_unpack_df.o)
 .debug_frame   0x00000544       0x20 c:/altera/12.1sp1/nios2eds/bin/gnu/h-i686-mingw32/bin/../lib/gcc/nios2-elf/4.1.2\libgcc.a(_fpcmp_parts_df.o)
 .debug_frame   0x00000564       0x2c c:/altera/12.1sp1/nios2eds/bin/gnu/h-i686-mingw32/bin/../lib/gcc/nios2-elf/4.1.2\libgcc.a(_ge_df.o)
 .debug_frame   0x00000590       0x20 c:/altera/12.1sp1/nios2eds/bin/gnu/h-i686-mingw32/bin/../lib/gcc/nios2-elf/4.1.2/../../../../nios2-elf/lib\libc.a(lib_a-errno.o)
 .debug_frame   0x000005b0       0x40 c:/altera/12.1sp1/nios2eds/bin/gnu/h-i686-mingw32/bin/../lib/gcc/nios2-elf/4.1.2/../../../../nios2-elf/lib\libc.a(lib_a-printf.o)
 .debug_frame   0x000005f0       0x3c c:/altera/12.1sp1/nios2eds/bin/gnu/h-i686-mingw32/bin/../lib/gcc/nios2-elf/4.1.2/../../../../nios2-elf/lib\libc.a(lib_a-puts.o)
 .debug_frame   0x0000062c       0x20 c:/altera/12.1sp1/nios2eds/bin/gnu/h-i686-mingw32/bin/../lib/gcc/nios2-elf/4.1.2/../../../../nios2-elf/lib\libc.a(lib_a-strlen.o)
 .debug_frame   0x0000064c       0x64 c:/altera/12.1sp1/nios2eds/bin/gnu/h-i686-mingw32/bin/../lib/gcc/nios2-elf/4.1.2/../../../../nios2-elf/lib\libc.a(lib_a-vfprintf.o)
 .debug_frame   0x000006b0       0x2c c:/altera/12.1sp1/nios2eds/bin/gnu/h-i686-mingw32/bin/../lib/gcc/nios2-elf/4.1.2/../../../../nios2-elf/lib\libc.a(lib_a-wsetup.o)
 .debug_frame   0x000006dc       0x64 c:/altera/12.1sp1/nios2eds/bin/gnu/h-i686-mingw32/bin/../lib/gcc/nios2-elf/4.1.2/../../../../nios2-elf/lib\libc.a(lib_a-dtoa.o)
 .debug_frame   0x00000740       0x40 c:/altera/12.1sp1/nios2eds/bin/gnu/h-i686-mingw32/bin/../lib/gcc/nios2-elf/4.1.2/../../../../nios2-elf/lib\libc.a(lib_a-fflush.o)
 .debug_frame   0x00000780      0x118 c:/altera/12.1sp1/nios2eds/bin/gnu/h-i686-mingw32/bin/../lib/gcc/nios2-elf/4.1.2/../../../../nios2-elf/lib\libc.a(lib_a-findfp.o)
 .debug_frame   0x00000898       0x4c c:/altera/12.1sp1/nios2eds/bin/gnu/h-i686-mingw32/bin/../lib/gcc/nios2-elf/4.1.2/../../../../nios2-elf/lib\libc.a(lib_a-freer.o)
 .debug_frame   0x000008e4       0x38 c:/altera/12.1sp1/nios2eds/bin/gnu/h-i686-mingw32/bin/../lib/gcc/nios2-elf/4.1.2/../../../../nios2-elf/lib\libc.a(lib_a-fvwrite.o)
 .debug_frame   0x0000091c       0x60 c:/altera/12.1sp1/nios2eds/bin/gnu/h-i686-mingw32/bin/../lib/gcc/nios2-elf/4.1.2/../../../../nios2-elf/lib\libc.a(lib_a-fwalk.o)
 .debug_frame   0x0000097c       0x70 c:/altera/12.1sp1/nios2eds/bin/gnu/h-i686-mingw32/bin/../lib/gcc/nios2-elf/4.1.2/../../../../nios2-elf/lib\libc.a(lib_a-locale.o)
 .debug_frame   0x000009ec       0x2c c:/altera/12.1sp1/nios2eds/bin/gnu/h-i686-mingw32/bin/../lib/gcc/nios2-elf/4.1.2/../../../../nios2-elf/lib\libc.a(lib_a-makebuf.o)
 .debug_frame   0x00000a18       0x38 c:/altera/12.1sp1/nios2eds/bin/gnu/h-i686-mingw32/bin/../lib/gcc/nios2-elf/4.1.2/../../../../nios2-elf/lib\libc.a(lib_a-mallocr.o)
 .debug_frame   0x00000a50       0x20 c:/altera/12.1sp1/nios2eds/bin/gnu/h-i686-mingw32/bin/../lib/gcc/nios2-elf/4.1.2/../../../../nios2-elf/lib\libc.a(lib_a-memchr.o)
 .debug_frame   0x00000a70       0x20 c:/altera/12.1sp1/nios2eds/bin/gnu/h-i686-mingw32/bin/../lib/gcc/nios2-elf/4.1.2/../../../../nios2-elf/lib\libc.a(lib_a-memcpy.o)
 .debug_frame   0x00000a90       0x20 c:/altera/12.1sp1/nios2eds/bin/gnu/h-i686-mingw32/bin/../lib/gcc/nios2-elf/4.1.2/../../../../nios2-elf/lib\libc.a(lib_a-memmove.o)
 .debug_frame   0x00000ab0       0x20 c:/altera/12.1sp1/nios2eds/bin/gnu/h-i686-mingw32/bin/../lib/gcc/nios2-elf/4.1.2/../../../../nios2-elf/lib\libc.a(lib_a-memset.o)
 .debug_frame   0x00000ad0      0x218 c:/altera/12.1sp1/nios2eds/bin/gnu/h-i686-mingw32/bin/../lib/gcc/nios2-elf/4.1.2/../../../../nios2-elf/lib\libc.a(lib_a-mprec.o)
 .debug_frame   0x00000ce8       0x38 c:/altera/12.1sp1/nios2eds/bin/gnu/h-i686-mingw32/bin/../lib/gcc/nios2-elf/4.1.2/../../../../nios2-elf/lib\libc.a(lib_a-reallocr.o)
 .debug_frame   0x00000d20       0x20 c:/altera/12.1sp1/nios2eds/bin/gnu/h-i686-mingw32/bin/../lib/gcc/nios2-elf/4.1.2/../../../../nios2-elf/lib\libc.a(lib_a-s_isinfd.o)
 .debug_frame   0x00000d40       0x2c c:/altera/12.1sp1/nios2eds/bin/gnu/h-i686-mingw32/bin/../lib/gcc/nios2-elf/4.1.2/../../../../nios2-elf/lib\libc.a(lib_a-sbrkr.o)
 .debug_frame   0x00000d6c       0x78 c:/altera/12.1sp1/nios2eds/bin/gnu/h-i686-mingw32/bin/../lib/gcc/nios2-elf/4.1.2/../../../../nios2-elf/lib\libc.a(lib_a-stdio.o)
 .debug_frame   0x00000de4       0x20 c:/altera/12.1sp1/nios2eds/bin/gnu/h-i686-mingw32/bin/../lib/gcc/nios2-elf/4.1.2/../../../../nios2-elf/lib\libc.a(lib_a-strcmp.o)
 .debug_frame   0x00000e04       0x2c c:/altera/12.1sp1/nios2eds/bin/gnu/h-i686-mingw32/bin/../lib/gcc/nios2-elf/4.1.2/../../../../nios2-elf/lib\libc.a(lib_a-writer.o)
 .debug_frame   0x00000e30       0x28 c:/altera/12.1sp1/nios2eds/bin/gnu/h-i686-mingw32/bin/../lib/gcc/nios2-elf/4.1.2/../../../../nios2-elf/lib\libc.a(lib_a-callocr.o)
 .debug_frame   0x00000e58       0x2c c:/altera/12.1sp1/nios2eds/bin/gnu/h-i686-mingw32/bin/../lib/gcc/nios2-elf/4.1.2/../../../../nios2-elf/lib\libc.a(lib_a-closer.o)
 .debug_frame   0x00000e84       0x3c c:/altera/12.1sp1/nios2eds/bin/gnu/h-i686-mingw32/bin/../lib/gcc/nios2-elf/4.1.2/../../../../nios2-elf/lib\libc.a(lib_a-fclose.o)
 .debug_frame   0x00000ec0       0x2c c:/altera/12.1sp1/nios2eds/bin/gnu/h-i686-mingw32/bin/../lib/gcc/nios2-elf/4.1.2/../../../../nios2-elf/lib\libc.a(lib_a-fstatr.o)
 .debug_frame   0x00000eec       0x2c c:/altera/12.1sp1/nios2eds/bin/gnu/h-i686-mingw32/bin/../lib/gcc/nios2-elf/4.1.2/../../../../nios2-elf/lib\libc.a(lib_a-isattyr.o)
 .debug_frame   0x00000f18       0x2c c:/altera/12.1sp1/nios2eds/bin/gnu/h-i686-mingw32/bin/../lib/gcc/nios2-elf/4.1.2/../../../../nios2-elf/lib\libc.a(lib_a-lseekr.o)
 .debug_frame   0x00000f44       0x2c c:/altera/12.1sp1/nios2eds/bin/gnu/h-i686-mingw32/bin/../lib/gcc/nios2-elf/4.1.2/../../../../nios2-elf/lib\libc.a(lib_a-readr.o)
 .debug_frame   0x00000f70       0x38 c:/altera/12.1sp1/nios2eds/bin/gnu/h-i686-mingw32/bin/../lib/gcc/nios2-elf/4.1.2\libgcc.a(_udivdi3.o)
 .debug_frame   0x00000fa8       0x38 c:/altera/12.1sp1/nios2eds/bin/gnu/h-i686-mingw32/bin/../lib/gcc/nios2-elf/4.1.2\libgcc.a(_umoddi3.o)
 .debug_frame   0x00000fe0       0x2c c:/altera/12.1sp1/nios2eds/bin/gnu/h-i686-mingw32/bin/../lib/gcc/nios2-elf/4.1.2\libgcc.a(_eq_df.o)
 .debug_frame   0x0000100c       0x2c c:/altera/12.1sp1/nios2eds/bin/gnu/h-i686-mingw32/bin/../lib/gcc/nios2-elf/4.1.2\libgcc.a(_ne_df.o)
 .debug_frame   0x00001038       0x2c c:/altera/12.1sp1/nios2eds/bin/gnu/h-i686-mingw32/bin/../lib/gcc/nios2-elf/4.1.2\libgcc.a(_gt_df.o)
 .debug_frame   0x00001064       0x70 c:/altera/12.1sp1/nios2eds/bin/gnu/h-i686-mingw32/bin/../lib/gcc/nios2-elf/4.1.2\libgcc.a(lib2-divmod.o)
 .debug_frame   0x000010d4       0x48 C:/Users/jchang3/Documents/ECE492/test/software/accelerometer_pen50s_bsp/\libucosii_bsp.a(alt_close.o)
 .debug_frame   0x0000111c       0x2c C:/Users/jchang3/Documents/ECE492/test/software/accelerometer_pen50s_bsp/\libucosii_bsp.a(alt_dev.o)
 .debug_frame   0x00001148       0x48 C:/Users/jchang3/Documents/ECE492/test/software/accelerometer_pen50s_bsp/\libucosii_bsp.a(alt_fstat.o)
 .debug_frame   0x00001190       0x48 C:/Users/jchang3/Documents/ECE492/test/software/accelerometer_pen50s_bsp/\libucosii_bsp.a(alt_isatty.o)
 .debug_frame   0x000011d8       0x48 C:/Users/jchang3/Documents/ECE492/test/software/accelerometer_pen50s_bsp/\libucosii_bsp.a(alt_load.o)
 .debug_frame   0x00001220       0x48 C:/Users/jchang3/Documents/ECE492/test/software/accelerometer_pen50s_bsp/\libucosii_bsp.a(alt_lseek.o)
 .debug_frame   0x00001268       0x2c C:/Users/jchang3/Documents/ECE492/test/software/accelerometer_pen50s_bsp/\libucosii_bsp.a(alt_main.o)
 .debug_frame   0x00001294       0x48 C:/Users/jchang3/Documents/ECE492/test/software/accelerometer_pen50s_bsp/\libucosii_bsp.a(alt_read.o)
 .debug_frame   0x000012dc       0x2c C:/Users/jchang3/Documents/ECE492/test/software/accelerometer_pen50s_bsp/\libucosii_bsp.a(alt_release_fd.o)
 .debug_frame   0x00001308       0x2c C:/Users/jchang3/Documents/ECE492/test/software/accelerometer_pen50s_bsp/\libucosii_bsp.a(alt_sbrk.o)
 .debug_frame   0x00001334       0x48 C:/Users/jchang3/Documents/ECE492/test/software/accelerometer_pen50s_bsp/\libucosii_bsp.a(alt_write.o)
 .debug_frame   0x0000137c       0x4c C:/Users/jchang3/Documents/ECE492/test/software/accelerometer_pen50s_bsp/\libucosii_bsp.a(alt_env_lock.o)
 .debug_frame   0x000013c8       0x4c C:/Users/jchang3/Documents/ECE492/test/software/accelerometer_pen50s_bsp/\libucosii_bsp.a(alt_malloc_lock.o)
 .debug_frame   0x00001414      0x3e4 C:/Users/jchang3/Documents/ECE492/test/software/accelerometer_pen50s_bsp/\libucosii_bsp.a(os_core.o)
 .debug_frame   0x000017f8       0x2c C:/Users/jchang3/Documents/ECE492/test/software/accelerometer_pen50s_bsp/\libucosii_bsp.a(os_dbg.o)
 .debug_frame   0x00001824      0x180 C:/Users/jchang3/Documents/ECE492/test/software/accelerometer_pen50s_bsp/\libucosii_bsp.a(os_flag.o)
 .debug_frame   0x000019a4       0xd4 C:/Users/jchang3/Documents/ECE492/test/software/accelerometer_pen50s_bsp/\libucosii_bsp.a(os_mem.o)
 .debug_frame   0x00001a78      0x144 C:/Users/jchang3/Documents/ECE492/test/software/accelerometer_pen50s_bsp/\libucosii_bsp.a(os_q.o)
 .debug_frame   0x00001bbc       0xf0 C:/Users/jchang3/Documents/ECE492/test/software/accelerometer_pen50s_bsp/\libucosii_bsp.a(os_sem.o)
 .debug_frame   0x00001cac      0x160 C:/Users/jchang3/Documents/ECE492/test/software/accelerometer_pen50s_bsp/\libucosii_bsp.a(os_task.o)
 .debug_frame   0x00001e0c       0xa0 C:/Users/jchang3/Documents/ECE492/test/software/accelerometer_pen50s_bsp/\libucosii_bsp.a(os_time.o)
 .debug_frame   0x00001eac       0x64 C:/Users/jchang3/Documents/ECE492/test/software/accelerometer_pen50s_bsp/\libucosii_bsp.a(alt_sys_init.o)
 .debug_frame   0x00001f10       0x80 C:/Users/jchang3/Documents/ECE492/test/software/accelerometer_pen50s_bsp/\libucosii_bsp.a(altera_avalon_jtag_uart_fd.o)
 .debug_frame   0x00001f90       0x80 C:/Users/jchang3/Documents/ECE492/test/software/accelerometer_pen50s_bsp/\libucosii_bsp.a(altera_avalon_jtag_uart_init.o)
 .debug_frame   0x00002010       0x2c C:/Users/jchang3/Documents/ECE492/test/software/accelerometer_pen50s_bsp/\libucosii_bsp.a(altera_avalon_jtag_uart_ioctl.o)
 .debug_frame   0x0000203c       0x2c C:/Users/jchang3/Documents/ECE492/test/software/accelerometer_pen50s_bsp/\libucosii_bsp.a(altera_avalon_jtag_uart_read.o)
 .debug_frame   0x00002068       0x2c C:/Users/jchang3/Documents/ECE492/test/software/accelerometer_pen50s_bsp/\libucosii_bsp.a(altera_avalon_jtag_uart_write.o)
 .debug_frame   0x00002094       0x48 C:/Users/jchang3/Documents/ECE492/test/software/accelerometer_pen50s_bsp/\libucosii_bsp.a(altera_avalon_timer_sc.o)
 .debug_frame   0x000020dc      0x17c C:/Users/jchang3/Documents/ECE492/test/software/accelerometer_pen50s_bsp/\libucosii_bsp.a(altera_up_avalon_character_lcd.o)
 .debug_frame   0x00002258      0x128 C:/Users/jchang3/Documents/ECE492/test/software/accelerometer_pen50s_bsp/\libucosii_bsp.a(altera_up_avalon_rs232.o)
 .debug_frame   0x00002380      0x3b4 C:/Users/jchang3/Documents/ECE492/test/software/accelerometer_pen50s_bsp/\libucosii_bsp.a(altera_up_sd_card_avalon_interface.o)
 .debug_frame   0x00002734       0x2c C:/Users/jchang3/Documents/ECE492/test/software/accelerometer_pen50s_bsp/\libucosii_bsp.a(alt_alarm_start.o)
 .debug_frame   0x00002760       0x2c C:/Users/jchang3/Documents/ECE492/test/software/accelerometer_pen50s_bsp/\libucosii_bsp.a(alt_dcache_flush_all.o)
 .debug_frame   0x0000278c       0x48 C:/Users/jchang3/Documents/ECE492/test/software/accelerometer_pen50s_bsp/\libucosii_bsp.a(alt_dev_llist_insert.o)
 .debug_frame   0x000027d4       0x2c C:/Users/jchang3/Documents/ECE492/test/software/accelerometer_pen50s_bsp/\libucosii_bsp.a(alt_do_ctors.o)
 .debug_frame   0x00002800       0x2c C:/Users/jchang3/Documents/ECE492/test/software/accelerometer_pen50s_bsp/\libucosii_bsp.a(alt_do_dtors.o)
 .debug_frame   0x0000282c       0x2c C:/Users/jchang3/Documents/ECE492/test/software/accelerometer_pen50s_bsp/\libucosii_bsp.a(alt_find_dev.o)
 .debug_frame   0x00002858       0x2c C:/Users/jchang3/Documents/ECE492/test/software/accelerometer_pen50s_bsp/\libucosii_bsp.a(alt_icache_flush_all.o)
 .debug_frame   0x00002884       0x48 C:/Users/jchang3/Documents/ECE492/test/software/accelerometer_pen50s_bsp/\libucosii_bsp.a(alt_io_redirect.o)
 .debug_frame   0x000028cc       0x2c C:/Users/jchang3/Documents/ECE492/test/software/accelerometer_pen50s_bsp/\libucosii_bsp.a(alt_irq_register.o)
 .debug_frame   0x000028f8       0x64 C:/Users/jchang3/Documents/ECE492/test/software/accelerometer_pen50s_bsp/\libucosii_bsp.a(alt_open.o)
 .debug_frame   0x0000295c       0x48 C:/Users/jchang3/Documents/ECE492/test/software/accelerometer_pen50s_bsp/\libucosii_bsp.a(alt_tick.o)
 .debug_frame   0x000029a4       0x2c C:/Users/jchang3/Documents/ECE492/test/software/accelerometer_pen50s_bsp/\libucosii_bsp.a(altera_nios2_qsys_irq.o)
 .debug_frame   0x000029d0      0x128 C:/Users/jchang3/Documents/ECE492/test/software/accelerometer_pen50s_bsp/\libucosii_bsp.a(os_cpu_c.o)
 .debug_frame   0x00002af8       0x2c C:/Users/jchang3/Documents/ECE492/test/software/accelerometer_pen50s_bsp/\libucosii_bsp.a(alt_find_file.o)
 .debug_frame   0x00002b24       0x2c C:/Users/jchang3/Documents/ECE492/test/software/accelerometer_pen50s_bsp/\libucosii_bsp.a(alt_get_fd.o)
 .debug_frame   0x00002b50       0x2c C:/Users/jchang3/Documents/ECE492/test/software/accelerometer_pen50s_bsp/\libucosii_bsp.a(alt_icache_flush.o)
 .debug_frame   0x00002b7c       0x2c C:/Users/jchang3/Documents/ECE492/test/software/accelerometer_pen50s_bsp/\libucosii_bsp.a(alt_irq_handler.o)
 .debug_frame   0x00002ba8       0x20 c:/altera/12.1sp1/nios2eds/bin/gnu/h-i686-mingw32/bin/../lib/gcc/nios2-elf/4.1.2/../../../../nios2-elf/lib\libc.a(lib_a-atexit.o)
 .debug_frame   0x00002bc8       0x28 c:/altera/12.1sp1/nios2eds/bin/gnu/h-i686-mingw32/bin/../lib/gcc/nios2-elf/4.1.2/../../../../nios2-elf/lib\libc.a(lib_a-exit.o)
 .debug_frame   0x00002bf0       0x20 c:/altera/12.1sp1/nios2eds/bin/gnu/h-i686-mingw32/bin/../lib/gcc/nios2-elf/4.1.2/../../../../nios2-elf/lib\libc.a(lib_a-memcmp.o)
 .debug_frame   0x00002c10       0x34 c:/altera/12.1sp1/nios2eds/bin/gnu/h-i686-mingw32/bin/../lib/gcc/nios2-elf/4.1.2/../../../../nios2-elf/lib\libc.a(lib_a-__atexit.o)
 .debug_frame   0x00002c44       0x4c c:/altera/12.1sp1/nios2eds/bin/gnu/h-i686-mingw32/bin/../lib/gcc/nios2-elf/4.1.2/../../../../nios2-elf/lib\libc.a(lib_a-__call_atexit.o)
 .debug_frame   0x00002c90       0x48 C:/Users/jchang3/Documents/ECE492/test/software/accelerometer_pen50s_bsp/\libucosii_bsp.a(alt_exit.o)

.debug_str      0x00000000     0x29a8
 *(.debug_str)
 .debug_str     0x00000000       0x12 obj/default/dtw.o
 .debug_str     0x00000012       0x7a obj/default/hello_ucosii.o
 .debug_str     0x0000008c      0x1a6 c:/altera/12.1sp1/nios2eds/bin/gnu/h-i686-mingw32/bin/../lib/gcc/nios2-elf/4.1.2/../../../../nios2-elf/lib\libm.a(lib_a-w_sqrt.o)
                                0x1f6 (size before relaxing)
 .debug_str     0x00000232       0x83 c:/altera/12.1sp1/nios2eds/bin/gnu/h-i686-mingw32/bin/../lib/gcc/nios2-elf/4.1.2/../../../../nios2-elf/lib\libm.a(lib_a-e_sqrt.o)
                                0x1cc (size before relaxing)
 .debug_str     0x000002b5       0xd2 c:/altera/12.1sp1/nios2eds/bin/gnu/h-i686-mingw32/bin/../lib/gcc/nios2-elf/4.1.2/../../../../nios2-elf/lib\libm.a(lib_a-s_isnand.o)
                                0x18a (size before relaxing)
 .debug_str     0x00000387       0x3e c:/altera/12.1sp1/nios2eds/bin/gnu/h-i686-mingw32/bin/../lib/gcc/nios2-elf/4.1.2/../../../../nios2-elf/lib\libm.a(lib_a-s_lib_ver.o)
                                0x1d3 (size before relaxing)
 .debug_str     0x000003c5       0x46 c:/altera/12.1sp1/nios2eds/bin/gnu/h-i686-mingw32/bin/../lib/gcc/nios2-elf/4.1.2/../../../../nios2-elf/lib\libm.a(lib_a-s_matherr.o)
                                0x1a5 (size before relaxing)
 .debug_str     0x0000040b       0xfc c:/altera/12.1sp1/nios2eds/bin/gnu/h-i686-mingw32/bin/../lib/gcc/nios2-elf/4.1.2\libgcc.a(_muldi3.o)
                                0x1ac (size before relaxing)
 .debug_str     0x00000507       0x11 c:/altera/12.1sp1/nios2eds/bin/gnu/h-i686-mingw32/bin/../lib/gcc/nios2-elf/4.1.2\libgcc.a(_fixdfdi.o)
                                0x167 (size before relaxing)
 .debug_str     0x00000518        0xd c:/altera/12.1sp1/nios2eds/bin/gnu/h-i686-mingw32/bin/../lib/gcc/nios2-elf/4.1.2\libgcc.a(_fixunsdfdi.o)
                                0x172 (size before relaxing)
 .debug_str     0x00000525        0xc c:/altera/12.1sp1/nios2eds/bin/gnu/h-i686-mingw32/bin/../lib/gcc/nios2-elf/4.1.2\libgcc.a(_floatdidf.o)
                                0x169 (size before relaxing)
 .debug_str     0x00000531      0x138 c:/altera/12.1sp1/nios2eds/bin/gnu/h-i686-mingw32/bin/../lib/gcc/nios2-elf/4.1.2\libgcc.a(_addsub_df.o)
                                0x26f (size before relaxing)
 .debug_str     0x00000669       0x40 c:/altera/12.1sp1/nios2eds/bin/gnu/h-i686-mingw32/bin/../lib/gcc/nios2-elf/4.1.2\libgcc.a(_mul_df.o)
                                0x241 (size before relaxing)
 .debug_str     0x000006a9       0x35 c:/altera/12.1sp1/nios2eds/bin/gnu/h-i686-mingw32/bin/../lib/gcc/nios2-elf/4.1.2\libgcc.a(_div_df.o)
                                0x231 (size before relaxing)
 .debug_str     0x000006de        0x8 c:/altera/12.1sp1/nios2eds/bin/gnu/h-i686-mingw32/bin/../lib/gcc/nios2-elf/4.1.2\libgcc.a(_lt_df.o)
                                0x1fe (size before relaxing)
 .debug_str     0x000006e6       0x18 c:/altera/12.1sp1/nios2eds/bin/gnu/h-i686-mingw32/bin/../lib/gcc/nios2-elf/4.1.2\libgcc.a(_si_to_df.o)
                                0x1de (size before relaxing)
 .debug_str     0x000006fe        0xa c:/altera/12.1sp1/nios2eds/bin/gnu/h-i686-mingw32/bin/../lib/gcc/nios2-elf/4.1.2\libgcc.a(_df_to_si.o)
                                0x207 (size before relaxing)
 .debug_str     0x00000000      0x1a3 c:/altera/12.1sp1/nios2eds/bin/gnu/h-i686-mingw32/bin/../lib/gcc/nios2-elf/4.1.2\libgcc.a(_thenan_df.o)
 .debug_str     0x00000708       0x14 c:/altera/12.1sp1/nios2eds/bin/gnu/h-i686-mingw32/bin/../lib/gcc/nios2-elf/4.1.2\libgcc.a(_usi_to_df.o)
                                0x1da (size before relaxing)
 .debug_str     0x0000071c       0x20 c:/altera/12.1sp1/nios2eds/bin/gnu/h-i686-mingw32/bin/../lib/gcc/nios2-elf/4.1.2\libgcc.a(_clzsi2.o)
                                0x17e (size before relaxing)
 .debug_str     0x0000073c        0xd c:/altera/12.1sp1/nios2eds/bin/gnu/h-i686-mingw32/bin/../lib/gcc/nios2-elf/4.1.2\libgcc.a(_fixunsdfsi.o)
                                0x16b (size before relaxing)
 .debug_str     0x00000749       0x10 c:/altera/12.1sp1/nios2eds/bin/gnu/h-i686-mingw32/bin/../lib/gcc/nios2-elf/4.1.2\libgcc.a(_pack_df.o)
                                0x206 (size before relaxing)
 .debug_str     0x00000759        0xb c:/altera/12.1sp1/nios2eds/bin/gnu/h-i686-mingw32/bin/../lib/gcc/nios2-elf/4.1.2\libgcc.a(_unpack_df.o)
                                0x1e8 (size before relaxing)
 .debug_str     0x00000764       0x10 c:/altera/12.1sp1/nios2eds/bin/gnu/h-i686-mingw32/bin/../lib/gcc/nios2-elf/4.1.2\libgcc.a(_fpcmp_parts_df.o)
                                0x1c6 (size before relaxing)
 .debug_str     0x00000774        0x8 c:/altera/12.1sp1/nios2eds/bin/gnu/h-i686-mingw32/bin/../lib/gcc/nios2-elf/4.1.2\libgcc.a(_ge_df.o)
                                0x1fe (size before relaxing)
 .debug_str     0x00000000      0x161 c:/altera/12.1sp1/nios2eds/bin/gnu/h-i686-mingw32/bin/../lib/gcc/nios2-elf/4.1.2\libgcc.a(_clz.o)
 .debug_str     0x0000077c      0x426 c:/altera/12.1sp1/nios2eds/bin/gnu/h-i686-mingw32/bin/../lib/gcc/nios2-elf/4.1.2/../../../../nios2-elf/lib\libc.a(lib_a-errno.o)
                                0x502 (size before relaxing)
 .debug_str     0x00000ba2       0xe4 c:/altera/12.1sp1/nios2eds/bin/gnu/h-i686-mingw32/bin/../lib/gcc/nios2-elf/4.1.2/../../../../nios2-elf/lib\libc.a(lib_a-impure.o)
                                0x51a (size before relaxing)
 .debug_str     0x00000c86       0xde c:/altera/12.1sp1/nios2eds/bin/gnu/h-i686-mingw32/bin/../lib/gcc/nios2-elf/4.1.2/../../../../nios2-elf/lib\libc.a(lib_a-printf.o)
                                0x523 (size before relaxing)
 .debug_str     0x00000d64       0x81 c:/altera/12.1sp1/nios2eds/bin/gnu/h-i686-mingw32/bin/../lib/gcc/nios2-elf/4.1.2/../../../../nios2-elf/lib\libc.a(lib_a-puts.o)
                                0x549 (size before relaxing)
 .debug_str     0x00000de5       0xdb c:/altera/12.1sp1/nios2eds/bin/gnu/h-i686-mingw32/bin/../lib/gcc/nios2-elf/4.1.2/../../../../nios2-elf/lib\libc.a(lib_a-strlen.o)
                                0x17d (size before relaxing)
 .debug_str     0x00000ec0      0x16e c:/altera/12.1sp1/nios2eds/bin/gnu/h-i686-mingw32/bin/../lib/gcc/nios2-elf/4.1.2/../../../../nios2-elf/lib\libc.a(lib_a-vfprintf.o)
                                0x6f8 (size before relaxing)
 .debug_str     0x0000102e       0x46 c:/altera/12.1sp1/nios2eds/bin/gnu/h-i686-mingw32/bin/../lib/gcc/nios2-elf/4.1.2/../../../../nios2-elf/lib\libc.a(lib_a-wsetup.o)
                                0x50c (size before relaxing)
 .debug_str     0x00001074      0x18e c:/altera/12.1sp1/nios2eds/bin/gnu/h-i686-mingw32/bin/../lib/gcc/nios2-elf/4.1.2/../../../../nios2-elf/lib\libc.a(lib_a-dtoa.o)
                                0x601 (size before relaxing)
 .debug_str     0x00001202       0x52 c:/altera/12.1sp1/nios2eds/bin/gnu/h-i686-mingw32/bin/../lib/gcc/nios2-elf/4.1.2/../../../../nios2-elf/lib\libc.a(lib_a-fflush.o)
                                0x532 (size before relaxing)
 .debug_str     0x00001254      0x102 c:/altera/12.1sp1/nios2eds/bin/gnu/h-i686-mingw32/bin/../lib/gcc/nios2-elf/4.1.2/../../../../nios2-elf/lib\libc.a(lib_a-findfp.o)
                                0x5f4 (size before relaxing)
 .debug_str     0x00001356      0x15b c:/altera/12.1sp1/nios2eds/bin/gnu/h-i686-mingw32/bin/../lib/gcc/nios2-elf/4.1.2/../../../../nios2-elf/lib\libc.a(lib_a-freer.o)
                                0x643 (size before relaxing)
 .debug_str     0x000014b1       0x66 c:/altera/12.1sp1/nios2eds/bin/gnu/h-i686-mingw32/bin/../lib/gcc/nios2-elf/4.1.2/../../../../nios2-elf/lib\libc.a(lib_a-fvwrite.o)
                                0x563 (size before relaxing)
 .debug_str     0x00001517       0x5e c:/altera/12.1sp1/nios2eds/bin/gnu/h-i686-mingw32/bin/../lib/gcc/nios2-elf/4.1.2/../../../../nios2-elf/lib\libc.a(lib_a-fwalk.o)
                                0x535 (size before relaxing)
 .debug_str     0x00001575      0x225 c:/altera/12.1sp1/nios2eds/bin/gnu/h-i686-mingw32/bin/../lib/gcc/nios2-elf/4.1.2/../../../../nios2-elf/lib\libc.a(lib_a-locale.o)
                                0x6a9 (size before relaxing)
 .debug_str     0x0000179a      0x123 c:/altera/12.1sp1/nios2eds/bin/gnu/h-i686-mingw32/bin/../lib/gcc/nios2-elf/4.1.2/../../../../nios2-elf/lib\libc.a(lib_a-makebuf.o)
                                0x606 (size before relaxing)
 .debug_str     0x000018bd       0xef c:/altera/12.1sp1/nios2eds/bin/gnu/h-i686-mingw32/bin/../lib/gcc/nios2-elf/4.1.2/../../../../nios2-elf/lib\libc.a(lib_a-mallocr.o)
                                0x6f1 (size before relaxing)
 .debug_str     0x000019ac       0x5c c:/altera/12.1sp1/nios2eds/bin/gnu/h-i686-mingw32/bin/../lib/gcc/nios2-elf/4.1.2/../../../../nios2-elf/lib\libc.a(lib_a-memchr.o)
                                0x18b (size before relaxing)
 .debug_str     0x00001a08       0x69 c:/altera/12.1sp1/nios2eds/bin/gnu/h-i686-mingw32/bin/../lib/gcc/nios2-elf/4.1.2/../../../../nios2-elf/lib\libc.a(lib_a-memcpy.o)
                                0x128 (size before relaxing)
 .debug_str     0x00001a71       0x4d c:/altera/12.1sp1/nios2eds/bin/gnu/h-i686-mingw32/bin/../lib/gcc/nios2-elf/4.1.2/../../../../nios2-elf/lib\libc.a(lib_a-memmove.o)
                                0x19d (size before relaxing)
 .debug_str     0x00001abe       0x42 c:/altera/12.1sp1/nios2eds/bin/gnu/h-i686-mingw32/bin/../lib/gcc/nios2-elf/4.1.2/../../../../nios2-elf/lib\libc.a(lib_a-memset.o)
                                0x17e (size before relaxing)
 .debug_str     0x00001b00       0xf8 c:/altera/12.1sp1/nios2eds/bin/gnu/h-i686-mingw32/bin/../lib/gcc/nios2-elf/4.1.2/../../../../nios2-elf/lib\libc.a(lib_a-mprec.o)
                                0x60e (size before relaxing)
 .debug_str     0x00001bf8       0x59 c:/altera/12.1sp1/nios2eds/bin/gnu/h-i686-mingw32/bin/../lib/gcc/nios2-elf/4.1.2/../../../../nios2-elf/lib\libc.a(lib_a-reallocr.o)
                                0x5c3 (size before relaxing)
 .debug_str     0x00001c51       0x46 c:/altera/12.1sp1/nios2eds/bin/gnu/h-i686-mingw32/bin/../lib/gcc/nios2-elf/4.1.2/../../../../nios2-elf/lib\libc.a(lib_a-s_isinfd.o)
                                0x18a (size before relaxing)
 .debug_str     0x00001c97       0x50 c:/altera/12.1sp1/nios2eds/bin/gnu/h-i686-mingw32/bin/../lib/gcc/nios2-elf/4.1.2/../../../../nios2-elf/lib\libc.a(lib_a-sbrkr.o)
                                0x50b (size before relaxing)
 .debug_str     0x00001ce7       0x62 c:/altera/12.1sp1/nios2eds/bin/gnu/h-i686-mingw32/bin/../lib/gcc/nios2-elf/4.1.2/../../../../nios2-elf/lib\libc.a(lib_a-stdio.o)
                                0x531 (size before relaxing)
 .debug_str     0x00001d49       0x42 c:/altera/12.1sp1/nios2eds/bin/gnu/h-i686-mingw32/bin/../lib/gcc/nios2-elf/4.1.2/../../../../nios2-elf/lib\libc.a(lib_a-strcmp.o)
                                0x163 (size before relaxing)
 .debug_str     0x00001d8b       0x4c c:/altera/12.1sp1/nios2eds/bin/gnu/h-i686-mingw32/bin/../lib/gcc/nios2-elf/4.1.2/../../../../nios2-elf/lib\libc.a(lib_a-writer.o)
                                0x50e (size before relaxing)
 .debug_str     0x00001dd7       0x19 c:/altera/12.1sp1/nios2eds/bin/gnu/h-i686-mingw32/bin/../lib/gcc/nios2-elf/4.1.2/../../../../nios2-elf/lib\libc.a(lib_a-callocr.o)
                                0x542 (size before relaxing)
 .debug_str     0x00001df0       0x43 c:/altera/12.1sp1/nios2eds/bin/gnu/h-i686-mingw32/bin/../lib/gcc/nios2-elf/4.1.2/../../../../nios2-elf/lib\libc.a(lib_a-closer.o)
                                0x4fe (size before relaxing)
 .debug_str     0x00001e33       0x4b c:/altera/12.1sp1/nios2eds/bin/gnu/h-i686-mingw32/bin/../lib/gcc/nios2-elf/4.1.2/../../../../nios2-elf/lib\libc.a(lib_a-fclose.o)
                                0x516 (size before relaxing)
 .debug_str     0x00001e7e       0x49 c:/altera/12.1sp1/nios2eds/bin/gnu/h-i686-mingw32/bin/../lib/gcc/nios2-elf/4.1.2/../../../../nios2-elf/lib\libc.a(lib_a-fstatr.o)
                                0x5f1 (size before relaxing)
 .debug_str     0x00001ec7       0x3d c:/altera/12.1sp1/nios2eds/bin/gnu/h-i686-mingw32/bin/../lib/gcc/nios2-elf/4.1.2/../../../../nios2-elf/lib\libc.a(lib_a-int_errno.o)
                                0x163 (size before relaxing)
 .debug_str     0x00001f04       0x45 c:/altera/12.1sp1/nios2eds/bin/gnu/h-i686-mingw32/bin/../lib/gcc/nios2-elf/4.1.2/../../../../nios2-elf/lib\libc.a(lib_a-isattyr.o)
                                0x500 (size before relaxing)
 .debug_str     0x00001f49       0x43 c:/altera/12.1sp1/nios2eds/bin/gnu/h-i686-mingw32/bin/../lib/gcc/nios2-elf/4.1.2/../../../../nios2-elf/lib\libc.a(lib_a-lseekr.o)
                                0x50c (size before relaxing)
 .debug_str     0x00001f8c       0x41 c:/altera/12.1sp1/nios2eds/bin/gnu/h-i686-mingw32/bin/../lib/gcc/nios2-elf/4.1.2/../../../../nios2-elf/lib\libc.a(lib_a-readr.o)
                                0x50c (size before relaxing)
 .debug_str     0x00001fcd       0x35 c:/altera/12.1sp1/nios2eds/bin/gnu/h-i686-mingw32/bin/../lib/gcc/nios2-elf/4.1.2\libgcc.a(_udivdi3.o)
                                0x1f7 (size before relaxing)
 .debug_str     0x00002002        0xa c:/altera/12.1sp1/nios2eds/bin/gnu/h-i686-mingw32/bin/../lib/gcc/nios2-elf/4.1.2\libgcc.a(_umoddi3.o)
                                0x1f7 (size before relaxing)
 .debug_str     0x0000200c        0x8 c:/altera/12.1sp1/nios2eds/bin/gnu/h-i686-mingw32/bin/../lib/gcc/nios2-elf/4.1.2\libgcc.a(_eq_df.o)
                                0x1fe (size before relaxing)
 .debug_str     0x00002014        0x8 c:/altera/12.1sp1/nios2eds/bin/gnu/h-i686-mingw32/bin/../lib/gcc/nios2-elf/4.1.2\libgcc.a(_ne_df.o)
                                0x1fe (size before relaxing)
 .debug_str     0x0000201c        0x8 c:/altera/12.1sp1/nios2eds/bin/gnu/h-i686-mingw32/bin/../lib/gcc/nios2-elf/4.1.2\libgcc.a(_gt_df.o)
                                0x1fe (size before relaxing)
 .debug_str     0x00002024       0x76 c:/altera/12.1sp1/nios2eds/bin/gnu/h-i686-mingw32/bin/../lib/gcc/nios2-elf/4.1.2\libgcc.a(lib2-divmod.o)
                                0x1b4 (size before relaxing)
 .debug_str     0x0000209a       0x12 C:/Users/jchang3/Documents/ECE492/test/software/accelerometer_pen50s_bsp/\libucosii_bsp.a(alt_close.o)
 .debug_str     0x000020ac       0x12 C:/Users/jchang3/Documents/ECE492/test/software/accelerometer_pen50s_bsp/\libucosii_bsp.a(alt_dev.o)
 .debug_str     0x000020be       0x12 C:/Users/jchang3/Documents/ECE492/test/software/accelerometer_pen50s_bsp/\libucosii_bsp.a(alt_errno.o)
 .debug_str     0x000020d0       0x12 C:/Users/jchang3/Documents/ECE492/test/software/accelerometer_pen50s_bsp/\libucosii_bsp.a(alt_fstat.o)
 .debug_str     0x000020e2       0x12 C:/Users/jchang3/Documents/ECE492/test/software/accelerometer_pen50s_bsp/\libucosii_bsp.a(alt_isatty.o)
 .debug_str     0x000020f4       0x12 C:/Users/jchang3/Documents/ECE492/test/software/accelerometer_pen50s_bsp/\libucosii_bsp.a(alt_load.o)
 .debug_str     0x00002106       0x12 C:/Users/jchang3/Documents/ECE492/test/software/accelerometer_pen50s_bsp/\libucosii_bsp.a(alt_lseek.o)
 .debug_str     0x00002118       0x12 C:/Users/jchang3/Documents/ECE492/test/software/accelerometer_pen50s_bsp/\libucosii_bsp.a(alt_main.o)
 .debug_str     0x0000212a       0x12 C:/Users/jchang3/Documents/ECE492/test/software/accelerometer_pen50s_bsp/\libucosii_bsp.a(alt_read.o)
 .debug_str     0x0000213c       0x12 C:/Users/jchang3/Documents/ECE492/test/software/accelerometer_pen50s_bsp/\libucosii_bsp.a(alt_release_fd.o)
 .debug_str     0x0000214e       0x1a C:/Users/jchang3/Documents/ECE492/test/software/accelerometer_pen50s_bsp/\libucosii_bsp.a(alt_sbrk.o)
 .debug_str     0x00002168       0x12 C:/Users/jchang3/Documents/ECE492/test/software/accelerometer_pen50s_bsp/\libucosii_bsp.a(alt_write.o)
 .debug_str     0x0000217a       0x36 C:/Users/jchang3/Documents/ECE492/test/software/accelerometer_pen50s_bsp/\libucosii_bsp.a(alt_env_lock.o)
 .debug_str     0x000021b0       0x36 C:/Users/jchang3/Documents/ECE492/test/software/accelerometer_pen50s_bsp/\libucosii_bsp.a(alt_malloc_lock.o)
 .debug_str     0x000021e6       0x46 C:/Users/jchang3/Documents/ECE492/test/software/accelerometer_pen50s_bsp/\libucosii_bsp.a(os_core.o)
 .debug_str     0x0000222c       0x2b C:/Users/jchang3/Documents/ECE492/test/software/accelerometer_pen50s_bsp/\libucosii_bsp.a(os_dbg.o)
 .debug_str     0x00002257       0x4e C:/Users/jchang3/Documents/ECE492/test/software/accelerometer_pen50s_bsp/\libucosii_bsp.a(os_flag.o)
 .debug_str     0x000022a5       0x2c C:/Users/jchang3/Documents/ECE492/test/software/accelerometer_pen50s_bsp/\libucosii_bsp.a(os_mem.o)
 .debug_str     0x000022d1       0x36 C:/Users/jchang3/Documents/ECE492/test/software/accelerometer_pen50s_bsp/\libucosii_bsp.a(os_q.o)
 .debug_str     0x00002307       0x36 C:/Users/jchang3/Documents/ECE492/test/software/accelerometer_pen50s_bsp/\libucosii_bsp.a(os_sem.o)
 .debug_str     0x0000233d       0x23 C:/Users/jchang3/Documents/ECE492/test/software/accelerometer_pen50s_bsp/\libucosii_bsp.a(os_task.o)
 .debug_str     0x00002360       0x1f C:/Users/jchang3/Documents/ECE492/test/software/accelerometer_pen50s_bsp/\libucosii_bsp.a(os_time.o)
 .debug_str     0x0000237f       0x4f C:/Users/jchang3/Documents/ECE492/test/software/accelerometer_pen50s_bsp/\libucosii_bsp.a(alt_sys_init.o)
 .debug_str     0x000023ce       0x12 C:/Users/jchang3/Documents/ECE492/test/software/accelerometer_pen50s_bsp/\libucosii_bsp.a(altera_avalon_jtag_uart_fd.o)
 .debug_str     0x000023e0       0x1a C:/Users/jchang3/Documents/ECE492/test/software/accelerometer_pen50s_bsp/\libucosii_bsp.a(altera_avalon_jtag_uart_init.o)
 .debug_str     0x000023fa       0x12 C:/Users/jchang3/Documents/ECE492/test/software/accelerometer_pen50s_bsp/\libucosii_bsp.a(altera_avalon_jtag_uart_ioctl.o)
 .debug_str     0x0000240c       0x22 C:/Users/jchang3/Documents/ECE492/test/software/accelerometer_pen50s_bsp/\libucosii_bsp.a(altera_avalon_jtag_uart_read.o)
 .debug_str     0x0000242e       0x22 C:/Users/jchang3/Documents/ECE492/test/software/accelerometer_pen50s_bsp/\libucosii_bsp.a(altera_avalon_jtag_uart_write.o)
 .debug_str     0x00002450       0x12 C:/Users/jchang3/Documents/ECE492/test/software/accelerometer_pen50s_bsp/\libucosii_bsp.a(altera_avalon_timer_sc.o)
 .debug_str     0x00002462       0x55 C:/Users/jchang3/Documents/ECE492/test/software/accelerometer_pen50s_bsp/\libucosii_bsp.a(altera_up_avalon_character_lcd.o)
 .debug_str     0x000024b7       0x48 C:/Users/jchang3/Documents/ECE492/test/software/accelerometer_pen50s_bsp/\libucosii_bsp.a(altera_up_avalon_rs232.o)
 .debug_str     0x000024ff      0x1c2 C:/Users/jchang3/Documents/ECE492/test/software/accelerometer_pen50s_bsp/\libucosii_bsp.a(altera_up_sd_card_avalon_interface.o)
 .debug_str     0x000026c1       0x23 C:/Users/jchang3/Documents/ECE492/test/software/accelerometer_pen50s_bsp/\libucosii_bsp.a(alt_alarm_start.o)
 .debug_str     0x000026e4       0x12 C:/Users/jchang3/Documents/ECE492/test/software/accelerometer_pen50s_bsp/\libucosii_bsp.a(alt_dcache_flush_all.o)
 .debug_str     0x000026f6       0x12 C:/Users/jchang3/Documents/ECE492/test/software/accelerometer_pen50s_bsp/\libucosii_bsp.a(alt_dev_llist_insert.o)
 .debug_str     0x00002708       0x12 C:/Users/jchang3/Documents/ECE492/test/software/accelerometer_pen50s_bsp/\libucosii_bsp.a(alt_find_dev.o)
 .debug_str     0x0000271a       0x12 C:/Users/jchang3/Documents/ECE492/test/software/accelerometer_pen50s_bsp/\libucosii_bsp.a(alt_icache_flush_all.o)
 .debug_str     0x0000272c       0x12 C:/Users/jchang3/Documents/ECE492/test/software/accelerometer_pen50s_bsp/\libucosii_bsp.a(alt_io_redirect.o)
 .debug_str     0x0000273e       0x21 C:/Users/jchang3/Documents/ECE492/test/software/accelerometer_pen50s_bsp/\libucosii_bsp.a(alt_irq_register.o)
 .debug_str     0x0000275f       0x12 C:/Users/jchang3/Documents/ECE492/test/software/accelerometer_pen50s_bsp/\libucosii_bsp.a(alt_open.o)
 .debug_str     0x00002771       0x1a C:/Users/jchang3/Documents/ECE492/test/software/accelerometer_pen50s_bsp/\libucosii_bsp.a(alt_tick.o)
 .debug_str     0x0000278b       0x12 C:/Users/jchang3/Documents/ECE492/test/software/accelerometer_pen50s_bsp/\libucosii_bsp.a(altera_nios2_qsys_irq.o)
 .debug_str     0x0000279d       0x20 C:/Users/jchang3/Documents/ECE492/test/software/accelerometer_pen50s_bsp/\libucosii_bsp.a(os_cpu_c.o)
 .debug_str     0x000027bd       0x12 C:/Users/jchang3/Documents/ECE492/test/software/accelerometer_pen50s_bsp/\libucosii_bsp.a(alt_find_file.o)
 .debug_str     0x000027cf       0x12 C:/Users/jchang3/Documents/ECE492/test/software/accelerometer_pen50s_bsp/\libucosii_bsp.a(alt_get_fd.o)
 .debug_str     0x000027e1       0x12 C:/Users/jchang3/Documents/ECE492/test/software/accelerometer_pen50s_bsp/\libucosii_bsp.a(alt_icache_flush.o)
 .debug_str     0x000027f3       0x12 C:/Users/jchang3/Documents/ECE492/test/software/accelerometer_pen50s_bsp/\libucosii_bsp.a(alt_irq_handler.o)
 .debug_str     0x00002805       0x3b c:/altera/12.1sp1/nios2eds/bin/gnu/h-i686-mingw32/bin/../lib/gcc/nios2-elf/4.1.2/../../../../nios2-elf/lib\libc.a(lib_a-atexit.o)
                                0x1bf (size before relaxing)
 .debug_str     0x00002840       0x3e c:/altera/12.1sp1/nios2eds/bin/gnu/h-i686-mingw32/bin/../lib/gcc/nios2-elf/4.1.2/../../../../nios2-elf/lib\libc.a(lib_a-exit.o)
                                0x50c (size before relaxing)
 .debug_str     0x0000287e       0x42 c:/altera/12.1sp1/nios2eds/bin/gnu/h-i686-mingw32/bin/../lib/gcc/nios2-elf/4.1.2/../../../../nios2-elf/lib\libc.a(lib_a-memcmp.o)
                                0x16a (size before relaxing)
 .debug_str     0x000028c0       0x51 c:/altera/12.1sp1/nios2eds/bin/gnu/h-i686-mingw32/bin/../lib/gcc/nios2-elf/4.1.2/../../../../nios2-elf/lib\libc.a(lib_a-__atexit.o)
                                0x524 (size before relaxing)
 .debug_str     0x00002911       0x7b c:/altera/12.1sp1/nios2eds/bin/gnu/h-i686-mingw32/bin/../lib/gcc/nios2-elf/4.1.2/../../../../nios2-elf/lib\libc.a(lib_a-__call_atexit.o)
                                0x54e (size before relaxing)
 .debug_str     0x0000298c       0x1c C:/Users/jchang3/Documents/ECE492/test/software/accelerometer_pen50s_bsp/\libucosii_bsp.a(alt_exit.o)

.debug_loc      0x00000000     0xe056
 *(.debug_loc)
 .debug_loc     0x00000000       0xd7 obj/default/dtw.o
 .debug_loc     0x000000d7      0x186 obj/default/hello_ucosii.o
 .debug_loc     0x0000025d       0x9f c:/altera/12.1sp1/nios2eds/bin/gnu/h-i686-mingw32/bin/../lib/gcc/nios2-elf/4.1.2/../../../../nios2-elf/lib\libm.a(lib_a-w_sqrt.o)
 .debug_loc     0x000002fc      0x41e c:/altera/12.1sp1/nios2eds/bin/gnu/h-i686-mingw32/bin/../lib/gcc/nios2-elf/4.1.2/../../../../nios2-elf/lib\libm.a(lib_a-e_sqrt.o)
 .debug_loc     0x0000071a       0x18 c:/altera/12.1sp1/nios2eds/bin/gnu/h-i686-mingw32/bin/../lib/gcc/nios2-elf/4.1.2/../../../../nios2-elf/lib\libm.a(lib_a-s_isnand.o)
 .debug_loc     0x00000732       0xc4 c:/altera/12.1sp1/nios2eds/bin/gnu/h-i686-mingw32/bin/../lib/gcc/nios2-elf/4.1.2\libgcc.a(_muldi3.o)
 .debug_loc     0x000007f6       0x77 c:/altera/12.1sp1/nios2eds/bin/gnu/h-i686-mingw32/bin/../lib/gcc/nios2-elf/4.1.2\libgcc.a(_fixdfdi.o)
 .debug_loc     0x0000086d       0x85 c:/altera/12.1sp1/nios2eds/bin/gnu/h-i686-mingw32/bin/../lib/gcc/nios2-elf/4.1.2\libgcc.a(_fixunsdfdi.o)
 .debug_loc     0x000008f2       0x5f c:/altera/12.1sp1/nios2eds/bin/gnu/h-i686-mingw32/bin/../lib/gcc/nios2-elf/4.1.2\libgcc.a(_floatdidf.o)
 .debug_loc     0x00000951      0x47a c:/altera/12.1sp1/nios2eds/bin/gnu/h-i686-mingw32/bin/../lib/gcc/nios2-elf/4.1.2\libgcc.a(_addsub_df.o)
 .debug_loc     0x00000dcb      0x3b4 c:/altera/12.1sp1/nios2eds/bin/gnu/h-i686-mingw32/bin/../lib/gcc/nios2-elf/4.1.2\libgcc.a(_mul_df.o)
 .debug_loc     0x0000117f      0x1df c:/altera/12.1sp1/nios2eds/bin/gnu/h-i686-mingw32/bin/../lib/gcc/nios2-elf/4.1.2\libgcc.a(_div_df.o)
 .debug_loc     0x0000135e       0x70 c:/altera/12.1sp1/nios2eds/bin/gnu/h-i686-mingw32/bin/../lib/gcc/nios2-elf/4.1.2\libgcc.a(_lt_df.o)
 .debug_loc     0x000013ce       0x9a c:/altera/12.1sp1/nios2eds/bin/gnu/h-i686-mingw32/bin/../lib/gcc/nios2-elf/4.1.2\libgcc.a(_si_to_df.o)
 .debug_loc     0x00001468       0x8b c:/altera/12.1sp1/nios2eds/bin/gnu/h-i686-mingw32/bin/../lib/gcc/nios2-elf/4.1.2\libgcc.a(_df_to_si.o)
 .debug_loc     0x000014f3       0x5b c:/altera/12.1sp1/nios2eds/bin/gnu/h-i686-mingw32/bin/../lib/gcc/nios2-elf/4.1.2\libgcc.a(_usi_to_df.o)
 .debug_loc     0x0000154e       0x1e c:/altera/12.1sp1/nios2eds/bin/gnu/h-i686-mingw32/bin/../lib/gcc/nios2-elf/4.1.2\libgcc.a(_clzsi2.o)
 .debug_loc     0x0000156c       0x87 c:/altera/12.1sp1/nios2eds/bin/gnu/h-i686-mingw32/bin/../lib/gcc/nios2-elf/4.1.2\libgcc.a(_fixunsdfsi.o)
 .debug_loc     0x000015f3      0x184 c:/altera/12.1sp1/nios2eds/bin/gnu/h-i686-mingw32/bin/../lib/gcc/nios2-elf/4.1.2\libgcc.a(_pack_df.o)
 .debug_loc     0x00001777       0xe5 c:/altera/12.1sp1/nios2eds/bin/gnu/h-i686-mingw32/bin/../lib/gcc/nios2-elf/4.1.2\libgcc.a(_unpack_df.o)
 .debug_loc     0x0000185c       0x70 c:/altera/12.1sp1/nios2eds/bin/gnu/h-i686-mingw32/bin/../lib/gcc/nios2-elf/4.1.2\libgcc.a(_ge_df.o)
 .debug_loc     0x000018cc       0xcb c:/altera/12.1sp1/nios2eds/bin/gnu/h-i686-mingw32/bin/../lib/gcc/nios2-elf/4.1.2/../../../../nios2-elf/lib\libc.a(lib_a-printf.o)
 .debug_loc     0x00001997       0xa2 c:/altera/12.1sp1/nios2eds/bin/gnu/h-i686-mingw32/bin/../lib/gcc/nios2-elf/4.1.2/../../../../nios2-elf/lib\libc.a(lib_a-puts.o)
 .debug_loc     0x00001a39       0x3c c:/altera/12.1sp1/nios2eds/bin/gnu/h-i686-mingw32/bin/../lib/gcc/nios2-elf/4.1.2/../../../../nios2-elf/lib\libc.a(lib_a-strlen.o)
 .debug_loc     0x00001a75     0x1e0d c:/altera/12.1sp1/nios2eds/bin/gnu/h-i686-mingw32/bin/../lib/gcc/nios2-elf/4.1.2/../../../../nios2-elf/lib\libc.a(lib_a-vfprintf.o)
 .debug_loc     0x00003882       0x7c c:/altera/12.1sp1/nios2eds/bin/gnu/h-i686-mingw32/bin/../lib/gcc/nios2-elf/4.1.2/../../../../nios2-elf/lib\libc.a(lib_a-wsetup.o)
 .debug_loc     0x000038fe     0x1dfa c:/altera/12.1sp1/nios2eds/bin/gnu/h-i686-mingw32/bin/../lib/gcc/nios2-elf/4.1.2/../../../../nios2-elf/lib\libc.a(lib_a-dtoa.o)
 .debug_loc     0x000056f8      0x1f6 c:/altera/12.1sp1/nios2eds/bin/gnu/h-i686-mingw32/bin/../lib/gcc/nios2-elf/4.1.2/../../../../nios2-elf/lib\libc.a(lib_a-fflush.o)
 .debug_loc     0x000058ee      0x19f c:/altera/12.1sp1/nios2eds/bin/gnu/h-i686-mingw32/bin/../lib/gcc/nios2-elf/4.1.2/../../../../nios2-elf/lib\libc.a(lib_a-findfp.o)
 .debug_loc     0x00005a8d      0x4a7 c:/altera/12.1sp1/nios2eds/bin/gnu/h-i686-mingw32/bin/../lib/gcc/nios2-elf/4.1.2/../../../../nios2-elf/lib\libc.a(lib_a-freer.o)
 .debug_loc     0x00005f34      0x4e4 c:/altera/12.1sp1/nios2eds/bin/gnu/h-i686-mingw32/bin/../lib/gcc/nios2-elf/4.1.2/../../../../nios2-elf/lib\libc.a(lib_a-fvwrite.o)
 .debug_loc     0x00006418      0x1d2 c:/altera/12.1sp1/nios2eds/bin/gnu/h-i686-mingw32/bin/../lib/gcc/nios2-elf/4.1.2/../../../../nios2-elf/lib\libc.a(lib_a-fwalk.o)
 .debug_loc     0x000065ea       0xe1 c:/altera/12.1sp1/nios2eds/bin/gnu/h-i686-mingw32/bin/../lib/gcc/nios2-elf/4.1.2/../../../../nios2-elf/lib\libc.a(lib_a-locale.o)
 .debug_loc     0x000066cb      0x11c c:/altera/12.1sp1/nios2eds/bin/gnu/h-i686-mingw32/bin/../lib/gcc/nios2-elf/4.1.2/../../../../nios2-elf/lib\libc.a(lib_a-makebuf.o)
 .debug_loc     0x000067e7      0xaeb c:/altera/12.1sp1/nios2eds/bin/gnu/h-i686-mingw32/bin/../lib/gcc/nios2-elf/4.1.2/../../../../nios2-elf/lib\libc.a(lib_a-mallocr.o)
 .debug_loc     0x000072d2      0x106 c:/altera/12.1sp1/nios2eds/bin/gnu/h-i686-mingw32/bin/../lib/gcc/nios2-elf/4.1.2/../../../../nios2-elf/lib\libc.a(lib_a-memchr.o)
 .debug_loc     0x000073d8       0xca c:/altera/12.1sp1/nios2eds/bin/gnu/h-i686-mingw32/bin/../lib/gcc/nios2-elf/4.1.2/../../../../nios2-elf/lib\libc.a(lib_a-memcpy.o)
 .debug_loc     0x000074a2      0x117 c:/altera/12.1sp1/nios2eds/bin/gnu/h-i686-mingw32/bin/../lib/gcc/nios2-elf/4.1.2/../../../../nios2-elf/lib\libc.a(lib_a-memmove.o)
 .debug_loc     0x000075b9       0xa1 c:/altera/12.1sp1/nios2eds/bin/gnu/h-i686-mingw32/bin/../lib/gcc/nios2-elf/4.1.2/../../../../nios2-elf/lib\libc.a(lib_a-memset.o)
 .debug_loc     0x0000765a     0x14d6 c:/altera/12.1sp1/nios2eds/bin/gnu/h-i686-mingw32/bin/../lib/gcc/nios2-elf/4.1.2/../../../../nios2-elf/lib\libc.a(lib_a-mprec.o)
 .debug_loc     0x00008b30      0x8c0 c:/altera/12.1sp1/nios2eds/bin/gnu/h-i686-mingw32/bin/../lib/gcc/nios2-elf/4.1.2/../../../../nios2-elf/lib\libc.a(lib_a-reallocr.o)
 .debug_loc     0x000093f0       0x36 c:/altera/12.1sp1/nios2eds/bin/gnu/h-i686-mingw32/bin/../lib/gcc/nios2-elf/4.1.2/../../../../nios2-elf/lib\libc.a(lib_a-s_isinfd.o)
 .debug_loc     0x00009426       0x5b c:/altera/12.1sp1/nios2eds/bin/gnu/h-i686-mingw32/bin/../lib/gcc/nios2-elf/4.1.2/../../../../nios2-elf/lib\libc.a(lib_a-sbrkr.o)
 .debug_loc     0x00009481      0x21f c:/altera/12.1sp1/nios2eds/bin/gnu/h-i686-mingw32/bin/../lib/gcc/nios2-elf/4.1.2/../../../../nios2-elf/lib\libc.a(lib_a-stdio.o)
 .debug_loc     0x000096a0       0x65 c:/altera/12.1sp1/nios2eds/bin/gnu/h-i686-mingw32/bin/../lib/gcc/nios2-elf/4.1.2/../../../../nios2-elf/lib\libc.a(lib_a-strcmp.o)
 .debug_loc     0x00009705       0x97 c:/altera/12.1sp1/nios2eds/bin/gnu/h-i686-mingw32/bin/../lib/gcc/nios2-elf/4.1.2/../../../../nios2-elf/lib\libc.a(lib_a-writer.o)
 .debug_loc     0x0000979c       0xe9 c:/altera/12.1sp1/nios2eds/bin/gnu/h-i686-mingw32/bin/../lib/gcc/nios2-elf/4.1.2/../../../../nios2-elf/lib\libc.a(lib_a-callocr.o)
 .debug_loc     0x00009885       0x5b c:/altera/12.1sp1/nios2eds/bin/gnu/h-i686-mingw32/bin/../lib/gcc/nios2-elf/4.1.2/../../../../nios2-elf/lib\libc.a(lib_a-closer.o)
 .debug_loc     0x000098e0       0xe4 c:/altera/12.1sp1/nios2eds/bin/gnu/h-i686-mingw32/bin/../lib/gcc/nios2-elf/4.1.2/../../../../nios2-elf/lib\libc.a(lib_a-fclose.o)
 .debug_loc     0x000099c4       0x79 c:/altera/12.1sp1/nios2eds/bin/gnu/h-i686-mingw32/bin/../lib/gcc/nios2-elf/4.1.2/../../../../nios2-elf/lib\libc.a(lib_a-fstatr.o)
 .debug_loc     0x00009a3d       0x5b c:/altera/12.1sp1/nios2eds/bin/gnu/h-i686-mingw32/bin/../lib/gcc/nios2-elf/4.1.2/../../../../nios2-elf/lib\libc.a(lib_a-isattyr.o)
 .debug_loc     0x00009a98       0x97 c:/altera/12.1sp1/nios2eds/bin/gnu/h-i686-mingw32/bin/../lib/gcc/nios2-elf/4.1.2/../../../../nios2-elf/lib\libc.a(lib_a-lseekr.o)
 .debug_loc     0x00009b2f       0x97 c:/altera/12.1sp1/nios2eds/bin/gnu/h-i686-mingw32/bin/../lib/gcc/nios2-elf/4.1.2/../../../../nios2-elf/lib\libc.a(lib_a-readr.o)
 .debug_loc     0x00009bc6      0xc12 c:/altera/12.1sp1/nios2eds/bin/gnu/h-i686-mingw32/bin/../lib/gcc/nios2-elf/4.1.2\libgcc.a(_udivdi3.o)
 .debug_loc     0x0000a7d8      0xc26 c:/altera/12.1sp1/nios2eds/bin/gnu/h-i686-mingw32/bin/../lib/gcc/nios2-elf/4.1.2\libgcc.a(_umoddi3.o)
 .debug_loc     0x0000b3fe       0x70 c:/altera/12.1sp1/nios2eds/bin/gnu/h-i686-mingw32/bin/../lib/gcc/nios2-elf/4.1.2\libgcc.a(_eq_df.o)
 .debug_loc     0x0000b46e       0x70 c:/altera/12.1sp1/nios2eds/bin/gnu/h-i686-mingw32/bin/../lib/gcc/nios2-elf/4.1.2\libgcc.a(_ne_df.o)
 .debug_loc     0x0000b4de       0x70 c:/altera/12.1sp1/nios2eds/bin/gnu/h-i686-mingw32/bin/../lib/gcc/nios2-elf/4.1.2\libgcc.a(_gt_df.o)
 .debug_loc     0x0000b54e      0x1d2 c:/altera/12.1sp1/nios2eds/bin/gnu/h-i686-mingw32/bin/../lib/gcc/nios2-elf/4.1.2\libgcc.a(lib2-divmod.o)
 .debug_loc     0x0000b720       0x56 C:/Users/jchang3/Documents/ECE492/test/software/accelerometer_pen50s_bsp/\libucosii_bsp.a(alt_close.o)
 .debug_loc     0x0000b776       0x2b C:/Users/jchang3/Documents/ECE492/test/software/accelerometer_pen50s_bsp/\libucosii_bsp.a(alt_dev.o)
 .debug_loc     0x0000b7a1       0x56 C:/Users/jchang3/Documents/ECE492/test/software/accelerometer_pen50s_bsp/\libucosii_bsp.a(alt_fstat.o)
 .debug_loc     0x0000b7f7       0x57 C:/Users/jchang3/Documents/ECE492/test/software/accelerometer_pen50s_bsp/\libucosii_bsp.a(alt_isatty.o)
 .debug_loc     0x0000b84e       0x56 C:/Users/jchang3/Documents/ECE492/test/software/accelerometer_pen50s_bsp/\libucosii_bsp.a(alt_load.o)
 .debug_loc     0x0000b8a4       0x56 C:/Users/jchang3/Documents/ECE492/test/software/accelerometer_pen50s_bsp/\libucosii_bsp.a(alt_lseek.o)
 .debug_loc     0x0000b8fa       0x2b C:/Users/jchang3/Documents/ECE492/test/software/accelerometer_pen50s_bsp/\libucosii_bsp.a(alt_main.o)
 .debug_loc     0x0000b925       0x56 C:/Users/jchang3/Documents/ECE492/test/software/accelerometer_pen50s_bsp/\libucosii_bsp.a(alt_read.o)
 .debug_loc     0x0000b97b       0x2b C:/Users/jchang3/Documents/ECE492/test/software/accelerometer_pen50s_bsp/\libucosii_bsp.a(alt_release_fd.o)
 .debug_loc     0x0000b9a6       0x2b C:/Users/jchang3/Documents/ECE492/test/software/accelerometer_pen50s_bsp/\libucosii_bsp.a(alt_sbrk.o)
 .debug_loc     0x0000b9d1       0x56 C:/Users/jchang3/Documents/ECE492/test/software/accelerometer_pen50s_bsp/\libucosii_bsp.a(alt_write.o)
 .debug_loc     0x0000ba27       0x57 C:/Users/jchang3/Documents/ECE492/test/software/accelerometer_pen50s_bsp/\libucosii_bsp.a(alt_env_lock.o)
 .debug_loc     0x0000ba7e       0x57 C:/Users/jchang3/Documents/ECE492/test/software/accelerometer_pen50s_bsp/\libucosii_bsp.a(alt_malloc_lock.o)
 .debug_loc     0x0000bad5      0x5e2 C:/Users/jchang3/Documents/ECE492/test/software/accelerometer_pen50s_bsp/\libucosii_bsp.a(os_core.o)
 .debug_loc     0x0000c0b7       0x2b C:/Users/jchang3/Documents/ECE492/test/software/accelerometer_pen50s_bsp/\libucosii_bsp.a(os_dbg.o)
 .debug_loc     0x0000c0e2      0x232 C:/Users/jchang3/Documents/ECE492/test/software/accelerometer_pen50s_bsp/\libucosii_bsp.a(os_flag.o)
 .debug_loc     0x0000c314      0x12d C:/Users/jchang3/Documents/ECE492/test/software/accelerometer_pen50s_bsp/\libucosii_bsp.a(os_mem.o)
 .debug_loc     0x0000c441      0x1da C:/Users/jchang3/Documents/ECE492/test/software/accelerometer_pen50s_bsp/\libucosii_bsp.a(os_q.o)
 .debug_loc     0x0000c61b      0x158 C:/Users/jchang3/Documents/ECE492/test/software/accelerometer_pen50s_bsp/\libucosii_bsp.a(os_sem.o)
 .debug_loc     0x0000c773      0x207 C:/Users/jchang3/Documents/ECE492/test/software/accelerometer_pen50s_bsp/\libucosii_bsp.a(os_task.o)
 .debug_loc     0x0000c97a       0xd7 C:/Users/jchang3/Documents/ECE492/test/software/accelerometer_pen50s_bsp/\libucosii_bsp.a(os_time.o)
 .debug_loc     0x0000ca51       0x81 C:/Users/jchang3/Documents/ECE492/test/software/accelerometer_pen50s_bsp/\libucosii_bsp.a(alt_sys_init.o)
 .debug_loc     0x0000cad2       0xac C:/Users/jchang3/Documents/ECE492/test/software/accelerometer_pen50s_bsp/\libucosii_bsp.a(altera_avalon_jtag_uart_fd.o)
 .debug_loc     0x0000cb7e       0xac C:/Users/jchang3/Documents/ECE492/test/software/accelerometer_pen50s_bsp/\libucosii_bsp.a(altera_avalon_jtag_uart_init.o)
 .debug_loc     0x0000cc2a       0x2b C:/Users/jchang3/Documents/ECE492/test/software/accelerometer_pen50s_bsp/\libucosii_bsp.a(altera_avalon_jtag_uart_ioctl.o)
 .debug_loc     0x0000cc55       0x2c C:/Users/jchang3/Documents/ECE492/test/software/accelerometer_pen50s_bsp/\libucosii_bsp.a(altera_avalon_jtag_uart_read.o)
 .debug_loc     0x0000cc81       0x2c C:/Users/jchang3/Documents/ECE492/test/software/accelerometer_pen50s_bsp/\libucosii_bsp.a(altera_avalon_jtag_uart_write.o)
 .debug_loc     0x0000ccad       0x56 C:/Users/jchang3/Documents/ECE492/test/software/accelerometer_pen50s_bsp/\libucosii_bsp.a(altera_avalon_timer_sc.o)
 .debug_loc     0x0000cd03      0x22f C:/Users/jchang3/Documents/ECE492/test/software/accelerometer_pen50s_bsp/\libucosii_bsp.a(altera_up_avalon_character_lcd.o)
 .debug_loc     0x0000cf32      0x1ae C:/Users/jchang3/Documents/ECE492/test/software/accelerometer_pen50s_bsp/\libucosii_bsp.a(altera_up_avalon_rs232.o)
 .debug_loc     0x0000d0e0      0x590 C:/Users/jchang3/Documents/ECE492/test/software/accelerometer_pen50s_bsp/\libucosii_bsp.a(altera_up_sd_card_avalon_interface.o)
 .debug_loc     0x0000d670       0x2b C:/Users/jchang3/Documents/ECE492/test/software/accelerometer_pen50s_bsp/\libucosii_bsp.a(alt_alarm_start.o)
 .debug_loc     0x0000d69b       0x2b C:/Users/jchang3/Documents/ECE492/test/software/accelerometer_pen50s_bsp/\libucosii_bsp.a(alt_dcache_flush_all.o)
 .debug_loc     0x0000d6c6       0x56 C:/Users/jchang3/Documents/ECE492/test/software/accelerometer_pen50s_bsp/\libucosii_bsp.a(alt_dev_llist_insert.o)
 .debug_loc     0x0000d71c       0x2b C:/Users/jchang3/Documents/ECE492/test/software/accelerometer_pen50s_bsp/\libucosii_bsp.a(alt_do_ctors.o)
 .debug_loc     0x0000d747       0x2b C:/Users/jchang3/Documents/ECE492/test/software/accelerometer_pen50s_bsp/\libucosii_bsp.a(alt_do_dtors.o)
 .debug_loc     0x0000d772       0x2b C:/Users/jchang3/Documents/ECE492/test/software/accelerometer_pen50s_bsp/\libucosii_bsp.a(alt_find_dev.o)
 .debug_loc     0x0000d79d       0x2b C:/Users/jchang3/Documents/ECE492/test/software/accelerometer_pen50s_bsp/\libucosii_bsp.a(alt_icache_flush_all.o)
 .debug_loc     0x0000d7c8       0x56 C:/Users/jchang3/Documents/ECE492/test/software/accelerometer_pen50s_bsp/\libucosii_bsp.a(alt_io_redirect.o)
 .debug_loc     0x0000d81e       0x2c C:/Users/jchang3/Documents/ECE492/test/software/accelerometer_pen50s_bsp/\libucosii_bsp.a(alt_irq_register.o)
 .debug_loc     0x0000d84a       0x81 C:/Users/jchang3/Documents/ECE492/test/software/accelerometer_pen50s_bsp/\libucosii_bsp.a(alt_open.o)
 .debug_loc     0x0000d8cb       0x56 C:/Users/jchang3/Documents/ECE492/test/software/accelerometer_pen50s_bsp/\libucosii_bsp.a(alt_tick.o)
 .debug_loc     0x0000d921       0x2b C:/Users/jchang3/Documents/ECE492/test/software/accelerometer_pen50s_bsp/\libucosii_bsp.a(altera_nios2_qsys_irq.o)
 .debug_loc     0x0000d94c      0x1ae C:/Users/jchang3/Documents/ECE492/test/software/accelerometer_pen50s_bsp/\libucosii_bsp.a(os_cpu_c.o)
 .debug_loc     0x0000dafa       0x2b C:/Users/jchang3/Documents/ECE492/test/software/accelerometer_pen50s_bsp/\libucosii_bsp.a(alt_find_file.o)
 .debug_loc     0x0000db25       0x2b C:/Users/jchang3/Documents/ECE492/test/software/accelerometer_pen50s_bsp/\libucosii_bsp.a(alt_get_fd.o)
 .debug_loc     0x0000db50       0x2b C:/Users/jchang3/Documents/ECE492/test/software/accelerometer_pen50s_bsp/\libucosii_bsp.a(alt_icache_flush.o)
 .debug_loc     0x0000db7b       0x2b C:/Users/jchang3/Documents/ECE492/test/software/accelerometer_pen50s_bsp/\libucosii_bsp.a(alt_irq_handler.o)
 .debug_loc     0x0000dba6       0x1e c:/altera/12.1sp1/nios2eds/bin/gnu/h-i686-mingw32/bin/../lib/gcc/nios2-elf/4.1.2/../../../../nios2-elf/lib\libc.a(lib_a-atexit.o)
 .debug_loc     0x0000dbc4       0x3d c:/altera/12.1sp1/nios2eds/bin/gnu/h-i686-mingw32/bin/../lib/gcc/nios2-elf/4.1.2/../../../../nios2-elf/lib\libc.a(lib_a-exit.o)
 .debug_loc     0x0000dc01      0x114 c:/altera/12.1sp1/nios2eds/bin/gnu/h-i686-mingw32/bin/../lib/gcc/nios2-elf/4.1.2/../../../../nios2-elf/lib\libc.a(lib_a-memcmp.o)
 .debug_loc     0x0000dd15      0x120 c:/altera/12.1sp1/nios2eds/bin/gnu/h-i686-mingw32/bin/../lib/gcc/nios2-elf/4.1.2/../../../../nios2-elf/lib\libc.a(lib_a-__atexit.o)
 .debug_loc     0x0000de35      0x1cb c:/altera/12.1sp1/nios2eds/bin/gnu/h-i686-mingw32/bin/../lib/gcc/nios2-elf/4.1.2/../../../../nios2-elf/lib\libc.a(lib_a-__call_atexit.o)
 .debug_loc     0x0000e000       0x56 C:/Users/jchang3/Documents/ECE492/test/software/accelerometer_pen50s_bsp/\libucosii_bsp.a(alt_exit.o)

.debug_macinfo
 *(.debug_macinfo)

.debug_weaknames
 *(.debug_weaknames)

.debug_funcnames
 *(.debug_funcnames)

.debug_typenames
 *(.debug_typenames)

.debug_varnames
 *(.debug_varnames)

.debug_alt_sim_info
                0x00000000       0x20
 *(.debug_alt_sim_info)
 .debug_alt_sim_info
                0x00000000       0x20 C:/Users/jchang3/Documents/ECE492/test/software/accelerometer_pen50s_bsp//obj/HAL/src/crt0.o
                0x01000000                __alt_data_end = 0x1000000
                0x01000000                PROVIDE (__alt_stack_pointer, __alt_data_end)
                0x00836514                PROVIDE (__alt_stack_limit, __alt_stack_base)
                0x00836514                PROVIDE (__alt_heap_start, end)
                0x01000000                PROVIDE (__alt_heap_limit, 0x1000000)
OUTPUT(accelerometer_pen50s.elf elf32-littlenios2)

.debug_ranges   0x00000000      0x9d0
 .debug_ranges  0x00000000       0x20 C:/Users/jchang3/Documents/ECE492/test/software/accelerometer_pen50s_bsp//obj/HAL/src/crt0.o
 .debug_ranges  0x00000020       0x28 c:/altera/12.1sp1/nios2eds/bin/gnu/h-i686-mingw32/bin/../lib/gcc/nios2-elf/4.1.2/../../../../nios2-elf/lib\libm.a(lib_a-e_sqrt.o)
 .debug_ranges  0x00000048       0x68 c:/altera/12.1sp1/nios2eds/bin/gnu/h-i686-mingw32/bin/../lib/gcc/nios2-elf/4.1.2\libgcc.a(_muldi3.o)
 .debug_ranges  0x000000b0       0x30 c:/altera/12.1sp1/nios2eds/bin/gnu/h-i686-mingw32/bin/../lib/gcc/nios2-elf/4.1.2\libgcc.a(_addsub_df.o)
 .debug_ranges  0x000000e0       0x88 c:/altera/12.1sp1/nios2eds/bin/gnu/h-i686-mingw32/bin/../lib/gcc/nios2-elf/4.1.2\libgcc.a(_mul_df.o)
 .debug_ranges  0x00000168       0x50 c:/altera/12.1sp1/nios2eds/bin/gnu/h-i686-mingw32/bin/../lib/gcc/nios2-elf/4.1.2\libgcc.a(_div_df.o)
 .debug_ranges  0x000001b8       0x18 c:/altera/12.1sp1/nios2eds/bin/gnu/h-i686-mingw32/bin/../lib/gcc/nios2-elf/4.1.2\libgcc.a(_usi_to_df.o)
 .debug_ranges  0x000001d0       0x28 c:/altera/12.1sp1/nios2eds/bin/gnu/h-i686-mingw32/bin/../lib/gcc/nios2-elf/4.1.2\libgcc.a(_clzsi2.o)
 .debug_ranges  0x000001f8       0x28 c:/altera/12.1sp1/nios2eds/bin/gnu/h-i686-mingw32/bin/../lib/gcc/nios2-elf/4.1.2\libgcc.a(_pack_df.o)
 .debug_ranges  0x00000220      0x168 c:/altera/12.1sp1/nios2eds/bin/gnu/h-i686-mingw32/bin/../lib/gcc/nios2-elf/4.1.2/../../../../nios2-elf/lib\libc.a(lib_a-vfprintf.o)
 .debug_ranges  0x00000388       0x20 c:/altera/12.1sp1/nios2eds/bin/gnu/h-i686-mingw32/bin/../lib/gcc/nios2-elf/4.1.2/../../../../nios2-elf/lib\libc.a(lib_a-fflush.o)
 .debug_ranges  0x000003a8       0x28 c:/altera/12.1sp1/nios2eds/bin/gnu/h-i686-mingw32/bin/../lib/gcc/nios2-elf/4.1.2/../../../../nios2-elf/lib\libc.a(lib_a-fvwrite.o)
 .debug_ranges  0x000003d0       0xa0 c:/altera/12.1sp1/nios2eds/bin/gnu/h-i686-mingw32/bin/../lib/gcc/nios2-elf/4.1.2/../../../../nios2-elf/lib\libc.a(lib_a-fwalk.o)
 .debug_ranges  0x00000470       0x70 c:/altera/12.1sp1/nios2eds/bin/gnu/h-i686-mingw32/bin/../lib/gcc/nios2-elf/4.1.2/../../../../nios2-elf/lib\libc.a(lib_a-mallocr.o)
 .debug_ranges  0x000004e0      0x110 c:/altera/12.1sp1/nios2eds/bin/gnu/h-i686-mingw32/bin/../lib/gcc/nios2-elf/4.1.2/../../../../nios2-elf/lib\libc.a(lib_a-reallocr.o)
 .debug_ranges  0x000005f0       0x38 c:/altera/12.1sp1/nios2eds/bin/gnu/h-i686-mingw32/bin/../lib/gcc/nios2-elf/4.1.2/../../../../nios2-elf/lib\libc.a(lib_a-callocr.o)
 .debug_ranges  0x00000628      0x188 c:/altera/12.1sp1/nios2eds/bin/gnu/h-i686-mingw32/bin/../lib/gcc/nios2-elf/4.1.2\libgcc.a(_udivdi3.o)
 .debug_ranges  0x000007b0      0x198 c:/altera/12.1sp1/nios2eds/bin/gnu/h-i686-mingw32/bin/../lib/gcc/nios2-elf/4.1.2\libgcc.a(_umoddi3.o)
 .debug_ranges  0x00000948       0x18 C:/Users/jchang3/Documents/ECE492/test/software/accelerometer_pen50s_bsp/\libucosii_bsp.a(altera_avalon_jtag_uart_init.o)
 .debug_ranges  0x00000960       0x28 C:/Users/jchang3/Documents/ECE492/test/software/accelerometer_pen50s_bsp/\libucosii_bsp.a(alt_irq_entry.o)
 .debug_ranges  0x00000988       0x30 C:/Users/jchang3/Documents/ECE492/test/software/accelerometer_pen50s_bsp/\libucosii_bsp.a(alt_exception_entry.o)
 .debug_ranges  0x000009b8       0x18 c:/altera/12.1sp1/nios2eds/bin/gnu/h-i686-mingw32/bin/../lib/gcc/nios2-elf/4.1.2/../../../../nios2-elf/lib\libc.a(lib_a-__call_atexit.o)
