Archive member included because of file (symbol)

c:/altera/12.1sp1/nios2eds/bin/gnu/h-i686-mingw32/bin/../lib/gcc/nios2-elf/4.1.2/mno-hw-mul\libgcc.a(_div_sf.o)
                              obj/default/hello_ucosii.o (__divsf3)
c:/altera/12.1sp1/nios2eds/bin/gnu/h-i686-mingw32/bin/../lib/gcc/nios2-elf/4.1.2/mno-hw-mul\libgcc.a(_sf_to_df.o)
                              obj/default/hello_ucosii.o (__extendsfdf2)
c:/altera/12.1sp1/nios2eds/bin/gnu/h-i686-mingw32/bin/../lib/gcc/nios2-elf/4.1.2/mno-hw-mul\libgcc.a(_thenan_sf.o)
                              c:/altera/12.1sp1/nios2eds/bin/gnu/h-i686-mingw32/bin/../lib/gcc/nios2-elf/4.1.2/mno-hw-mul\libgcc.a(_div_sf.o) (__thenan_sf)
c:/altera/12.1sp1/nios2eds/bin/gnu/h-i686-mingw32/bin/../lib/gcc/nios2-elf/4.1.2/mno-hw-mul\libgcc.a(_usi_to_sf.o)
                              obj/default/hello_ucosii.o (__floatunsisf)
c:/altera/12.1sp1/nios2eds/bin/gnu/h-i686-mingw32/bin/../lib/gcc/nios2-elf/4.1.2/mno-hw-mul\libgcc.a(_addsub_df.o)
                              obj/default/dtw.o (__adddf3)
c:/altera/12.1sp1/nios2eds/bin/gnu/h-i686-mingw32/bin/../lib/gcc/nios2-elf/4.1.2/mno-hw-mul\libgcc.a(_mul_df.o)
                              obj/default/dtw.o (__muldf3)
c:/altera/12.1sp1/nios2eds/bin/gnu/h-i686-mingw32/bin/../lib/gcc/nios2-elf/4.1.2/mno-hw-mul\libgcc.a(_si_to_df.o)
                              obj/default/dtw.o (__floatsidf)
c:/altera/12.1sp1/nios2eds/bin/gnu/h-i686-mingw32/bin/../lib/gcc/nios2-elf/4.1.2/mno-hw-mul\libgcc.a(_df_to_si.o)
                              obj/default/dtw.o (__fixdfsi)
c:/altera/12.1sp1/nios2eds/bin/gnu/h-i686-mingw32/bin/../lib/gcc/nios2-elf/4.1.2/mno-hw-mul\libgcc.a(_make_df.o)
                              c:/altera/12.1sp1/nios2eds/bin/gnu/h-i686-mingw32/bin/../lib/gcc/nios2-elf/4.1.2/mno-hw-mul\libgcc.a(_sf_to_df.o) (__make_dp)
c:/altera/12.1sp1/nios2eds/bin/gnu/h-i686-mingw32/bin/../lib/gcc/nios2-elf/4.1.2/mno-hw-mul\libgcc.a(_thenan_df.o)
                              c:/altera/12.1sp1/nios2eds/bin/gnu/h-i686-mingw32/bin/../lib/gcc/nios2-elf/4.1.2/mno-hw-mul\libgcc.a(_addsub_df.o) (__thenan_df)
c:/altera/12.1sp1/nios2eds/bin/gnu/h-i686-mingw32/bin/../lib/gcc/nios2-elf/4.1.2/mno-hw-mul\libgcc.a(lib2-mul.o)
                              obj/default/dtw.o (__mulsi3)
c:/altera/12.1sp1/nios2eds/bin/gnu/h-i686-mingw32/bin/../lib/gcc/nios2-elf/4.1.2/mno-hw-mul\libgcc.a(_muldi3.o)
                              c:/altera/12.1sp1/nios2eds/bin/gnu/h-i686-mingw32/bin/../lib/gcc/nios2-elf/4.1.2/mno-hw-mul\libgcc.a(_mul_df.o) (__muldi3)
c:/altera/12.1sp1/nios2eds/bin/gnu/h-i686-mingw32/bin/../lib/gcc/nios2-elf/4.1.2/mno-hw-mul\libgcc.a(_clzsi2.o)
                              c:/altera/12.1sp1/nios2eds/bin/gnu/h-i686-mingw32/bin/../lib/gcc/nios2-elf/4.1.2/mno-hw-mul\libgcc.a(_usi_to_sf.o) (__clzsi2)
c:/altera/12.1sp1/nios2eds/bin/gnu/h-i686-mingw32/bin/../lib/gcc/nios2-elf/4.1.2/mno-hw-mul\libgcc.a(_pack_sf.o)
                              c:/altera/12.1sp1/nios2eds/bin/gnu/h-i686-mingw32/bin/../lib/gcc/nios2-elf/4.1.2/mno-hw-mul\libgcc.a(_div_sf.o) (__pack_f)
c:/altera/12.1sp1/nios2eds/bin/gnu/h-i686-mingw32/bin/../lib/gcc/nios2-elf/4.1.2/mno-hw-mul\libgcc.a(_unpack_sf.o)
                              c:/altera/12.1sp1/nios2eds/bin/gnu/h-i686-mingw32/bin/../lib/gcc/nios2-elf/4.1.2/mno-hw-mul\libgcc.a(_div_sf.o) (__unpack_f)
c:/altera/12.1sp1/nios2eds/bin/gnu/h-i686-mingw32/bin/../lib/gcc/nios2-elf/4.1.2/mno-hw-mul\libgcc.a(_pack_df.o)
                              c:/altera/12.1sp1/nios2eds/bin/gnu/h-i686-mingw32/bin/../lib/gcc/nios2-elf/4.1.2/mno-hw-mul\libgcc.a(_addsub_df.o) (__pack_d)
c:/altera/12.1sp1/nios2eds/bin/gnu/h-i686-mingw32/bin/../lib/gcc/nios2-elf/4.1.2/mno-hw-mul\libgcc.a(_unpack_df.o)
                              c:/altera/12.1sp1/nios2eds/bin/gnu/h-i686-mingw32/bin/../lib/gcc/nios2-elf/4.1.2/mno-hw-mul\libgcc.a(_addsub_df.o) (__unpack_d)
c:/altera/12.1sp1/nios2eds/bin/gnu/h-i686-mingw32/bin/../lib/gcc/nios2-elf/4.1.2/mno-hw-mul\libgcc.a(_clz.o)
                              c:/altera/12.1sp1/nios2eds/bin/gnu/h-i686-mingw32/bin/../lib/gcc/nios2-elf/4.1.2/mno-hw-mul\libgcc.a(_clzsi2.o) (__clz_tab)
c:/altera/12.1sp1/nios2eds/bin/gnu/h-i686-mingw32/bin/../lib/gcc/nios2-elf/4.1.2/../../../../nios2-elf/lib/mno-hw-mul\libc.a(lib_a-calloc.o)
                              obj/default/hello_ucosii.o (calloc)
c:/altera/12.1sp1/nios2eds/bin/gnu/h-i686-mingw32/bin/../lib/gcc/nios2-elf/4.1.2/../../../../nios2-elf/lib/mno-hw-mul\libc.a(lib_a-callocr.o)
                              c:/altera/12.1sp1/nios2eds/bin/gnu/h-i686-mingw32/bin/../lib/gcc/nios2-elf/4.1.2/../../../../nios2-elf/lib/mno-hw-mul\libc.a(lib_a-calloc.o) (_calloc_r)
c:/altera/12.1sp1/nios2eds/bin/gnu/h-i686-mingw32/bin/../lib/gcc/nios2-elf/4.1.2/../../../../nios2-elf/lib/mno-hw-mul\libc.a(lib_a-clock.o)
                              obj/default/hello_ucosii.o (clock)
c:/altera/12.1sp1/nios2eds/bin/gnu/h-i686-mingw32/bin/../lib/gcc/nios2-elf/4.1.2/../../../../nios2-elf/lib/mno-hw-mul\libc.a(lib_a-impure.o)
                              c:/altera/12.1sp1/nios2eds/bin/gnu/h-i686-mingw32/bin/../lib/gcc/nios2-elf/4.1.2/../../../../nios2-elf/lib/mno-hw-mul\libc.a(lib_a-calloc.o) (_impure_ptr)
c:/altera/12.1sp1/nios2eds/bin/gnu/h-i686-mingw32/bin/../lib/gcc/nios2-elf/4.1.2/../../../../nios2-elf/lib/mno-hw-mul\libc.a(lib_a-mallocr.o)
                              c:/altera/12.1sp1/nios2eds/bin/gnu/h-i686-mingw32/bin/../lib/gcc/nios2-elf/4.1.2/../../../../nios2-elf/lib/mno-hw-mul\libc.a(lib_a-callocr.o) (_malloc_r)
c:/altera/12.1sp1/nios2eds/bin/gnu/h-i686-mingw32/bin/../lib/gcc/nios2-elf/4.1.2/../../../../nios2-elf/lib/mno-hw-mul\libc.a(lib_a-memset.o)
                              c:/altera/12.1sp1/nios2eds/bin/gnu/h-i686-mingw32/bin/../lib/gcc/nios2-elf/4.1.2/../../../../nios2-elf/lib/mno-hw-mul\libc.a(lib_a-callocr.o) (memset)
c:/altera/12.1sp1/nios2eds/bin/gnu/h-i686-mingw32/bin/../lib/gcc/nios2-elf/4.1.2/../../../../nios2-elf/lib/mno-hw-mul\libc.a(lib_a-printf.o)
                              obj/default/hello_ucosii.o (printf)
c:/altera/12.1sp1/nios2eds/bin/gnu/h-i686-mingw32/bin/../lib/gcc/nios2-elf/4.1.2/../../../../nios2-elf/lib/mno-hw-mul\libc.a(lib_a-puts.o)
                              obj/default/hello_ucosii.o (puts)
c:/altera/12.1sp1/nios2eds/bin/gnu/h-i686-mingw32/bin/../lib/gcc/nios2-elf/4.1.2/../../../../nios2-elf/lib/mno-hw-mul\libc.a(lib_a-sbrkr.o)
                              c:/altera/12.1sp1/nios2eds/bin/gnu/h-i686-mingw32/bin/../lib/gcc/nios2-elf/4.1.2/../../../../nios2-elf/lib/mno-hw-mul\libc.a(lib_a-mallocr.o) (_sbrk_r)
c:/altera/12.1sp1/nios2eds/bin/gnu/h-i686-mingw32/bin/../lib/gcc/nios2-elf/4.1.2/../../../../nios2-elf/lib/mno-hw-mul\libc.a(lib_a-strlen.o)
                              c:/altera/12.1sp1/nios2eds/bin/gnu/h-i686-mingw32/bin/../lib/gcc/nios2-elf/4.1.2/../../../../nios2-elf/lib/mno-hw-mul\libc.a(lib_a-puts.o) (strlen)
c:/altera/12.1sp1/nios2eds/bin/gnu/h-i686-mingw32/bin/../lib/gcc/nios2-elf/4.1.2/../../../../nios2-elf/lib/mno-hw-mul\libc.a(lib_a-timesr.o)
                              c:/altera/12.1sp1/nios2eds/bin/gnu/h-i686-mingw32/bin/../lib/gcc/nios2-elf/4.1.2/../../../../nios2-elf/lib/mno-hw-mul\libc.a(lib_a-clock.o) (_times_r)
c:/altera/12.1sp1/nios2eds/bin/gnu/h-i686-mingw32/bin/../lib/gcc/nios2-elf/4.1.2/../../../../nios2-elf/lib/mno-hw-mul\libc.a(lib_a-vfprintf.o)
                              c:/altera/12.1sp1/nios2eds/bin/gnu/h-i686-mingw32/bin/../lib/gcc/nios2-elf/4.1.2/../../../../nios2-elf/lib/mno-hw-mul\libc.a(lib_a-printf.o) (___vfprintf_internal_r)
c:/altera/12.1sp1/nios2eds/bin/gnu/h-i686-mingw32/bin/../lib/gcc/nios2-elf/4.1.2/../../../../nios2-elf/lib/mno-hw-mul\libc.a(lib_a-wsetup.o)
                              c:/altera/12.1sp1/nios2eds/bin/gnu/h-i686-mingw32/bin/../lib/gcc/nios2-elf/4.1.2/../../../../nios2-elf/lib/mno-hw-mul\libc.a(lib_a-vfprintf.o) (__swsetup_r)
c:/altera/12.1sp1/nios2eds/bin/gnu/h-i686-mingw32/bin/../lib/gcc/nios2-elf/4.1.2/../../../../nios2-elf/lib/mno-hw-mul\libc.a(lib_a-dtoa.o)
                              c:/altera/12.1sp1/nios2eds/bin/gnu/h-i686-mingw32/bin/../lib/gcc/nios2-elf/4.1.2/../../../../nios2-elf/lib/mno-hw-mul\libc.a(lib_a-vfprintf.o) (_dtoa_r)
c:/altera/12.1sp1/nios2eds/bin/gnu/h-i686-mingw32/bin/../lib/gcc/nios2-elf/4.1.2/../../../../nios2-elf/lib/mno-hw-mul\libc.a(lib_a-fflush.o)
                              c:/altera/12.1sp1/nios2eds/bin/gnu/h-i686-mingw32/bin/../lib/gcc/nios2-elf/4.1.2/../../../../nios2-elf/lib/mno-hw-mul\libc.a(lib_a-vfprintf.o) (_fflush_r)
c:/altera/12.1sp1/nios2eds/bin/gnu/h-i686-mingw32/bin/../lib/gcc/nios2-elf/4.1.2/../../../../nios2-elf/lib/mno-hw-mul\libc.a(lib_a-findfp.o)
                              c:/altera/12.1sp1/nios2eds/bin/gnu/h-i686-mingw32/bin/../lib/gcc/nios2-elf/4.1.2/../../../../nios2-elf/lib/mno-hw-mul\libc.a(lib_a-vfprintf.o) (__sinit)
c:/altera/12.1sp1/nios2eds/bin/gnu/h-i686-mingw32/bin/../lib/gcc/nios2-elf/4.1.2/../../../../nios2-elf/lib/mno-hw-mul\libc.a(lib_a-freer.o)
                              c:/altera/12.1sp1/nios2eds/bin/gnu/h-i686-mingw32/bin/../lib/gcc/nios2-elf/4.1.2/../../../../nios2-elf/lib/mno-hw-mul\libc.a(lib_a-mallocr.o) (_free_r)
c:/altera/12.1sp1/nios2eds/bin/gnu/h-i686-mingw32/bin/../lib/gcc/nios2-elf/4.1.2/../../../../nios2-elf/lib/mno-hw-mul\libc.a(lib_a-fvwrite.o)
                              c:/altera/12.1sp1/nios2eds/bin/gnu/h-i686-mingw32/bin/../lib/gcc/nios2-elf/4.1.2/../../../../nios2-elf/lib/mno-hw-mul\libc.a(lib_a-puts.o) (__sfvwrite_r)
c:/altera/12.1sp1/nios2eds/bin/gnu/h-i686-mingw32/bin/../lib/gcc/nios2-elf/4.1.2/../../../../nios2-elf/lib/mno-hw-mul\libc.a(lib_a-fwalk.o)
                              c:/altera/12.1sp1/nios2eds/bin/gnu/h-i686-mingw32/bin/../lib/gcc/nios2-elf/4.1.2/../../../../nios2-elf/lib/mno-hw-mul\libc.a(lib_a-fflush.o) (_fwalk_reent)
c:/altera/12.1sp1/nios2eds/bin/gnu/h-i686-mingw32/bin/../lib/gcc/nios2-elf/4.1.2/../../../../nios2-elf/lib/mno-hw-mul\libc.a(lib_a-int_errno.o)
                              c:/altera/12.1sp1/nios2eds/bin/gnu/h-i686-mingw32/bin/../lib/gcc/nios2-elf/4.1.2/../../../../nios2-elf/lib/mno-hw-mul\libc.a(lib_a-sbrkr.o) (errno)
c:/altera/12.1sp1/nios2eds/bin/gnu/h-i686-mingw32/bin/../lib/gcc/nios2-elf/4.1.2/../../../../nios2-elf/lib/mno-hw-mul\libc.a(lib_a-locale.o)
                              c:/altera/12.1sp1/nios2eds/bin/gnu/h-i686-mingw32/bin/../lib/gcc/nios2-elf/4.1.2/../../../../nios2-elf/lib/mno-hw-mul\libc.a(lib_a-vfprintf.o) (_localeconv_r)
c:/altera/12.1sp1/nios2eds/bin/gnu/h-i686-mingw32/bin/../lib/gcc/nios2-elf/4.1.2/../../../../nios2-elf/lib/mno-hw-mul\libc.a(lib_a-makebuf.o)
                              c:/altera/12.1sp1/nios2eds/bin/gnu/h-i686-mingw32/bin/../lib/gcc/nios2-elf/4.1.2/../../../../nios2-elf/lib/mno-hw-mul\libc.a(lib_a-wsetup.o) (__smakebuf_r)
c:/altera/12.1sp1/nios2eds/bin/gnu/h-i686-mingw32/bin/../lib/gcc/nios2-elf/4.1.2/../../../../nios2-elf/lib/mno-hw-mul\libc.a(lib_a-memchr.o)
                              c:/altera/12.1sp1/nios2eds/bin/gnu/h-i686-mingw32/bin/../lib/gcc/nios2-elf/4.1.2/../../../../nios2-elf/lib/mno-hw-mul\libc.a(lib_a-vfprintf.o) (memchr)
c:/altera/12.1sp1/nios2eds/bin/gnu/h-i686-mingw32/bin/../lib/gcc/nios2-elf/4.1.2/../../../../nios2-elf/lib/mno-hw-mul\libc.a(lib_a-memcpy.o)
                              c:/altera/12.1sp1/nios2eds/bin/gnu/h-i686-mingw32/bin/../lib/gcc/nios2-elf/4.1.2/../../../../nios2-elf/lib/mno-hw-mul\libc.a(lib_a-dtoa.o) (memcpy)
c:/altera/12.1sp1/nios2eds/bin/gnu/h-i686-mingw32/bin/../lib/gcc/nios2-elf/4.1.2/../../../../nios2-elf/lib/mno-hw-mul\libc.a(lib_a-memmove.o)
                              c:/altera/12.1sp1/nios2eds/bin/gnu/h-i686-mingw32/bin/../lib/gcc/nios2-elf/4.1.2/../../../../nios2-elf/lib/mno-hw-mul\libc.a(lib_a-fvwrite.o) (memmove)
c:/altera/12.1sp1/nios2eds/bin/gnu/h-i686-mingw32/bin/../lib/gcc/nios2-elf/4.1.2/../../../../nios2-elf/lib/mno-hw-mul\libc.a(lib_a-mprec.o)
                              c:/altera/12.1sp1/nios2eds/bin/gnu/h-i686-mingw32/bin/../lib/gcc/nios2-elf/4.1.2/../../../../nios2-elf/lib/mno-hw-mul\libc.a(lib_a-dtoa.o) (_Bfree)
c:/altera/12.1sp1/nios2eds/bin/gnu/h-i686-mingw32/bin/../lib/gcc/nios2-elf/4.1.2/../../../../nios2-elf/lib/mno-hw-mul\libc.a(lib_a-reallocr.o)
                              c:/altera/12.1sp1/nios2eds/bin/gnu/h-i686-mingw32/bin/../lib/gcc/nios2-elf/4.1.2/../../../../nios2-elf/lib/mno-hw-mul\libc.a(lib_a-fvwrite.o) (_realloc_r)
c:/altera/12.1sp1/nios2eds/bin/gnu/h-i686-mingw32/bin/../lib/gcc/nios2-elf/4.1.2/../../../../nios2-elf/lib/mno-hw-mul\libc.a(lib_a-s_isinfd.o)
                              c:/altera/12.1sp1/nios2eds/bin/gnu/h-i686-mingw32/bin/../lib/gcc/nios2-elf/4.1.2/../../../../nios2-elf/lib/mno-hw-mul\libc.a(lib_a-vfprintf.o) (__isinfd)
c:/altera/12.1sp1/nios2eds/bin/gnu/h-i686-mingw32/bin/../lib/gcc/nios2-elf/4.1.2/../../../../nios2-elf/lib/mno-hw-mul\libc.a(lib_a-s_isnand.o)
                              c:/altera/12.1sp1/nios2eds/bin/gnu/h-i686-mingw32/bin/../lib/gcc/nios2-elf/4.1.2/../../../../nios2-elf/lib/mno-hw-mul\libc.a(lib_a-vfprintf.o) (__isnand)
c:/altera/12.1sp1/nios2eds/bin/gnu/h-i686-mingw32/bin/../lib/gcc/nios2-elf/4.1.2/../../../../nios2-elf/lib/mno-hw-mul\libc.a(lib_a-stdio.o)
                              c:/altera/12.1sp1/nios2eds/bin/gnu/h-i686-mingw32/bin/../lib/gcc/nios2-elf/4.1.2/../../../../nios2-elf/lib/mno-hw-mul\libc.a(lib_a-findfp.o) (__sclose)
c:/altera/12.1sp1/nios2eds/bin/gnu/h-i686-mingw32/bin/../lib/gcc/nios2-elf/4.1.2/../../../../nios2-elf/lib/mno-hw-mul\libc.a(lib_a-strcmp.o)
                              c:/altera/12.1sp1/nios2eds/bin/gnu/h-i686-mingw32/bin/../lib/gcc/nios2-elf/4.1.2/../../../../nios2-elf/lib/mno-hw-mul\libc.a(lib_a-locale.o) (strcmp)
c:/altera/12.1sp1/nios2eds/bin/gnu/h-i686-mingw32/bin/../lib/gcc/nios2-elf/4.1.2/../../../../nios2-elf/lib/mno-hw-mul\libc.a(lib_a-writer.o)
                              c:/altera/12.1sp1/nios2eds/bin/gnu/h-i686-mingw32/bin/../lib/gcc/nios2-elf/4.1.2/../../../../nios2-elf/lib/mno-hw-mul\libc.a(lib_a-stdio.o) (_write_r)
c:/altera/12.1sp1/nios2eds/bin/gnu/h-i686-mingw32/bin/../lib/gcc/nios2-elf/4.1.2/../../../../nios2-elf/lib/mno-hw-mul\libc.a(lib_a-closer.o)
                              c:/altera/12.1sp1/nios2eds/bin/gnu/h-i686-mingw32/bin/../lib/gcc/nios2-elf/4.1.2/../../../../nios2-elf/lib/mno-hw-mul\libc.a(lib_a-stdio.o) (_close_r)
c:/altera/12.1sp1/nios2eds/bin/gnu/h-i686-mingw32/bin/../lib/gcc/nios2-elf/4.1.2/../../../../nios2-elf/lib/mno-hw-mul\libc.a(lib_a-fclose.o)
                              c:/altera/12.1sp1/nios2eds/bin/gnu/h-i686-mingw32/bin/../lib/gcc/nios2-elf/4.1.2/../../../../nios2-elf/lib/mno-hw-mul\libc.a(lib_a-findfp.o) (fclose)
c:/altera/12.1sp1/nios2eds/bin/gnu/h-i686-mingw32/bin/../lib/gcc/nios2-elf/4.1.2/../../../../nios2-elf/lib/mno-hw-mul\libc.a(lib_a-fstatr.o)
                              c:/altera/12.1sp1/nios2eds/bin/gnu/h-i686-mingw32/bin/../lib/gcc/nios2-elf/4.1.2/../../../../nios2-elf/lib/mno-hw-mul\libc.a(lib_a-makebuf.o) (_fstat_r)
c:/altera/12.1sp1/nios2eds/bin/gnu/h-i686-mingw32/bin/../lib/gcc/nios2-elf/4.1.2/../../../../nios2-elf/lib/mno-hw-mul\libc.a(lib_a-isattyr.o)
                              c:/altera/12.1sp1/nios2eds/bin/gnu/h-i686-mingw32/bin/../lib/gcc/nios2-elf/4.1.2/../../../../nios2-elf/lib/mno-hw-mul\libc.a(lib_a-makebuf.o) (_isatty_r)
c:/altera/12.1sp1/nios2eds/bin/gnu/h-i686-mingw32/bin/../lib/gcc/nios2-elf/4.1.2/../../../../nios2-elf/lib/mno-hw-mul\libc.a(lib_a-lseekr.o)
                              c:/altera/12.1sp1/nios2eds/bin/gnu/h-i686-mingw32/bin/../lib/gcc/nios2-elf/4.1.2/../../../../nios2-elf/lib/mno-hw-mul\libc.a(lib_a-stdio.o) (_lseek_r)
c:/altera/12.1sp1/nios2eds/bin/gnu/h-i686-mingw32/bin/../lib/gcc/nios2-elf/4.1.2/../../../../nios2-elf/lib/mno-hw-mul\libc.a(lib_a-readr.o)
                              c:/altera/12.1sp1/nios2eds/bin/gnu/h-i686-mingw32/bin/../lib/gcc/nios2-elf/4.1.2/../../../../nios2-elf/lib/mno-hw-mul\libc.a(lib_a-stdio.o) (_read_r)
c:/altera/12.1sp1/nios2eds/bin/gnu/h-i686-mingw32/bin/../lib/gcc/nios2-elf/4.1.2/mno-hw-mul\libgcc.a(_udivdi3.o)
                              c:/altera/12.1sp1/nios2eds/bin/gnu/h-i686-mingw32/bin/../lib/gcc/nios2-elf/4.1.2/../../../../nios2-elf/lib/mno-hw-mul\libc.a(lib_a-vfprintf.o) (__udivdi3)
c:/altera/12.1sp1/nios2eds/bin/gnu/h-i686-mingw32/bin/../lib/gcc/nios2-elf/4.1.2/mno-hw-mul\libgcc.a(_umoddi3.o)
                              c:/altera/12.1sp1/nios2eds/bin/gnu/h-i686-mingw32/bin/../lib/gcc/nios2-elf/4.1.2/../../../../nios2-elf/lib/mno-hw-mul\libc.a(lib_a-vfprintf.o) (__umoddi3)
c:/altera/12.1sp1/nios2eds/bin/gnu/h-i686-mingw32/bin/../lib/gcc/nios2-elf/4.1.2/mno-hw-mul\libgcc.a(_div_df.o)
                              c:/altera/12.1sp1/nios2eds/bin/gnu/h-i686-mingw32/bin/../lib/gcc/nios2-elf/4.1.2/../../../../nios2-elf/lib/mno-hw-mul\libc.a(lib_a-dtoa.o) (__divdf3)
c:/altera/12.1sp1/nios2eds/bin/gnu/h-i686-mingw32/bin/../lib/gcc/nios2-elf/4.1.2/mno-hw-mul\libgcc.a(_eq_df.o)
                              c:/altera/12.1sp1/nios2eds/bin/gnu/h-i686-mingw32/bin/../lib/gcc/nios2-elf/4.1.2/../../../../nios2-elf/lib/mno-hw-mul\libc.a(lib_a-vfprintf.o) (__eqdf2)
c:/altera/12.1sp1/nios2eds/bin/gnu/h-i686-mingw32/bin/../lib/gcc/nios2-elf/4.1.2/mno-hw-mul\libgcc.a(_ne_df.o)
                              c:/altera/12.1sp1/nios2eds/bin/gnu/h-i686-mingw32/bin/../lib/gcc/nios2-elf/4.1.2/../../../../nios2-elf/lib/mno-hw-mul\libc.a(lib_a-vfprintf.o) (__nedf2)
c:/altera/12.1sp1/nios2eds/bin/gnu/h-i686-mingw32/bin/../lib/gcc/nios2-elf/4.1.2/mno-hw-mul\libgcc.a(_gt_df.o)
                              c:/altera/12.1sp1/nios2eds/bin/gnu/h-i686-mingw32/bin/../lib/gcc/nios2-elf/4.1.2/../../../../nios2-elf/lib/mno-hw-mul\libc.a(lib_a-dtoa.o) (__gtdf2)
c:/altera/12.1sp1/nios2eds/bin/gnu/h-i686-mingw32/bin/../lib/gcc/nios2-elf/4.1.2/mno-hw-mul\libgcc.a(_ge_df.o)
                              c:/altera/12.1sp1/nios2eds/bin/gnu/h-i686-mingw32/bin/../lib/gcc/nios2-elf/4.1.2/../../../../nios2-elf/lib/mno-hw-mul\libc.a(lib_a-dtoa.o) (__gedf2)
c:/altera/12.1sp1/nios2eds/bin/gnu/h-i686-mingw32/bin/../lib/gcc/nios2-elf/4.1.2/mno-hw-mul\libgcc.a(_lt_df.o)
                              c:/altera/12.1sp1/nios2eds/bin/gnu/h-i686-mingw32/bin/../lib/gcc/nios2-elf/4.1.2/../../../../nios2-elf/lib/mno-hw-mul\libc.a(lib_a-vfprintf.o) (__ltdf2)
c:/altera/12.1sp1/nios2eds/bin/gnu/h-i686-mingw32/bin/../lib/gcc/nios2-elf/4.1.2/mno-hw-mul\libgcc.a(_usi_to_df.o)
                              c:/altera/12.1sp1/nios2eds/bin/gnu/h-i686-mingw32/bin/../lib/gcc/nios2-elf/4.1.2/../../../../nios2-elf/lib/mno-hw-mul\libc.a(lib_a-dtoa.o) (__floatunsidf)
c:/altera/12.1sp1/nios2eds/bin/gnu/h-i686-mingw32/bin/../lib/gcc/nios2-elf/4.1.2/mno-hw-mul\libgcc.a(lib2-divmod.o)
                              c:/altera/12.1sp1/nios2eds/bin/gnu/h-i686-mingw32/bin/../lib/gcc/nios2-elf/4.1.2/../../../../nios2-elf/lib/mno-hw-mul\libc.a(lib_a-vfprintf.o) (__divsi3)
c:/altera/12.1sp1/nios2eds/bin/gnu/h-i686-mingw32/bin/../lib/gcc/nios2-elf/4.1.2/mno-hw-mul\libgcc.a(_fpcmp_parts_df.o)
                              c:/altera/12.1sp1/nios2eds/bin/gnu/h-i686-mingw32/bin/../lib/gcc/nios2-elf/4.1.2/mno-hw-mul\libgcc.a(_eq_df.o) (__fpcmp_parts_d)
C:/Users/jchang3/Documents/ECE492/test/software/accelerometer_pen_bsp/\libucosii_bsp.a(alt_close.o)
                              c:/altera/12.1sp1/nios2eds/bin/gnu/h-i686-mingw32/bin/../lib/gcc/nios2-elf/4.1.2/../../../../nios2-elf/lib/mno-hw-mul\libc.a(lib_a-closer.o) (close)
C:/Users/jchang3/Documents/ECE492/test/software/accelerometer_pen_bsp/\libucosii_bsp.a(alt_dev.o)
                              C:/Users/jchang3/Documents/ECE492/test/software/accelerometer_pen_bsp/\libucosii_bsp.a(alt_close.o) (alt_fd_list)
C:/Users/jchang3/Documents/ECE492/test/software/accelerometer_pen_bsp/\libucosii_bsp.a(alt_errno.o)
                              C:/Users/jchang3/Documents/ECE492/test/software/accelerometer_pen_bsp/\libucosii_bsp.a(alt_close.o) (alt_errno)
C:/Users/jchang3/Documents/ECE492/test/software/accelerometer_pen_bsp/\libucosii_bsp.a(alt_fstat.o)
                              c:/altera/12.1sp1/nios2eds/bin/gnu/h-i686-mingw32/bin/../lib/gcc/nios2-elf/4.1.2/../../../../nios2-elf/lib/mno-hw-mul\libc.a(lib_a-fstatr.o) (fstat)
C:/Users/jchang3/Documents/ECE492/test/software/accelerometer_pen_bsp/\libucosii_bsp.a(alt_isatty.o)
                              c:/altera/12.1sp1/nios2eds/bin/gnu/h-i686-mingw32/bin/../lib/gcc/nios2-elf/4.1.2/../../../../nios2-elf/lib/mno-hw-mul\libc.a(lib_a-isattyr.o) (isatty)
C:/Users/jchang3/Documents/ECE492/test/software/accelerometer_pen_bsp/\libucosii_bsp.a(alt_load.o)
                              C:/Users/jchang3/Documents/ECE492/test/software/accelerometer_pen_bsp//obj/HAL/src/crt0.o (alt_load)
C:/Users/jchang3/Documents/ECE492/test/software/accelerometer_pen_bsp/\libucosii_bsp.a(alt_lseek.o)
                              c:/altera/12.1sp1/nios2eds/bin/gnu/h-i686-mingw32/bin/../lib/gcc/nios2-elf/4.1.2/../../../../nios2-elf/lib/mno-hw-mul\libc.a(lib_a-lseekr.o) (lseek)
C:/Users/jchang3/Documents/ECE492/test/software/accelerometer_pen_bsp/\libucosii_bsp.a(alt_main.o)
                              C:/Users/jchang3/Documents/ECE492/test/software/accelerometer_pen_bsp//obj/HAL/src/crt0.o (alt_main)
C:/Users/jchang3/Documents/ECE492/test/software/accelerometer_pen_bsp/\libucosii_bsp.a(alt_printf.o)
                              obj/default/hello_ucosii.o (alt_printf)
C:/Users/jchang3/Documents/ECE492/test/software/accelerometer_pen_bsp/\libucosii_bsp.a(alt_putchar.o)
                              C:/Users/jchang3/Documents/ECE492/test/software/accelerometer_pen_bsp/\libucosii_bsp.a(alt_printf.o) (alt_putchar)
C:/Users/jchang3/Documents/ECE492/test/software/accelerometer_pen_bsp/\libucosii_bsp.a(alt_read.o)
                              c:/altera/12.1sp1/nios2eds/bin/gnu/h-i686-mingw32/bin/../lib/gcc/nios2-elf/4.1.2/../../../../nios2-elf/lib/mno-hw-mul\libc.a(lib_a-readr.o) (read)
C:/Users/jchang3/Documents/ECE492/test/software/accelerometer_pen_bsp/\libucosii_bsp.a(alt_release_fd.o)
                              C:/Users/jchang3/Documents/ECE492/test/software/accelerometer_pen_bsp/\libucosii_bsp.a(alt_close.o) (alt_release_fd)
C:/Users/jchang3/Documents/ECE492/test/software/accelerometer_pen_bsp/\libucosii_bsp.a(alt_sbrk.o)
                              c:/altera/12.1sp1/nios2eds/bin/gnu/h-i686-mingw32/bin/../lib/gcc/nios2-elf/4.1.2/../../../../nios2-elf/lib/mno-hw-mul\libc.a(lib_a-sbrkr.o) (sbrk)
C:/Users/jchang3/Documents/ECE492/test/software/accelerometer_pen_bsp/\libucosii_bsp.a(alt_times.o)
                              c:/altera/12.1sp1/nios2eds/bin/gnu/h-i686-mingw32/bin/../lib/gcc/nios2-elf/4.1.2/../../../../nios2-elf/lib/mno-hw-mul\libc.a(lib_a-timesr.o) (times)
C:/Users/jchang3/Documents/ECE492/test/software/accelerometer_pen_bsp/\libucosii_bsp.a(alt_write.o)
                              c:/altera/12.1sp1/nios2eds/bin/gnu/h-i686-mingw32/bin/../lib/gcc/nios2-elf/4.1.2/../../../../nios2-elf/lib/mno-hw-mul\libc.a(lib_a-writer.o) (write)
C:/Users/jchang3/Documents/ECE492/test/software/accelerometer_pen_bsp/\libucosii_bsp.a(alt_env_lock.o)
                              C:/Users/jchang3/Documents/ECE492/test/software/accelerometer_pen_bsp/\libucosii_bsp.a(alt_main.o) (alt_envsem)
C:/Users/jchang3/Documents/ECE492/test/software/accelerometer_pen_bsp/\libucosii_bsp.a(alt_malloc_lock.o)
                              c:/altera/12.1sp1/nios2eds/bin/gnu/h-i686-mingw32/bin/../lib/gcc/nios2-elf/4.1.2/../../../../nios2-elf/lib/mno-hw-mul\libc.a(lib_a-mallocr.o) (__malloc_lock)
C:/Users/jchang3/Documents/ECE492/test/software/accelerometer_pen_bsp/\libucosii_bsp.a(os_core.o)
                              C:/Users/jchang3/Documents/ECE492/test/software/accelerometer_pen_bsp/\libucosii_bsp.a(alt_main.o) (OSInit)
C:/Users/jchang3/Documents/ECE492/test/software/accelerometer_pen_bsp/\libucosii_bsp.a(os_dbg.o)
                              C:/Users/jchang3/Documents/ECE492/test/software/accelerometer_pen_bsp/\libucosii_bsp.a(os_core.o) (OSDebugInit)
C:/Users/jchang3/Documents/ECE492/test/software/accelerometer_pen_bsp/\libucosii_bsp.a(os_flag.o)
                              C:/Users/jchang3/Documents/ECE492/test/software/accelerometer_pen_bsp/\libucosii_bsp.a(os_core.o) (OS_FlagInit)
C:/Users/jchang3/Documents/ECE492/test/software/accelerometer_pen_bsp/\libucosii_bsp.a(os_mem.o)
                              C:/Users/jchang3/Documents/ECE492/test/software/accelerometer_pen_bsp/\libucosii_bsp.a(os_core.o) (OS_MemInit)
C:/Users/jchang3/Documents/ECE492/test/software/accelerometer_pen_bsp/\libucosii_bsp.a(os_q.o)
                              obj/default/hello_ucosii.o (OSQCreate)
C:/Users/jchang3/Documents/ECE492/test/software/accelerometer_pen_bsp/\libucosii_bsp.a(os_sem.o)
                              obj/default/hello_ucosii.o (OSSemAccept)
C:/Users/jchang3/Documents/ECE492/test/software/accelerometer_pen_bsp/\libucosii_bsp.a(os_task.o)
                              obj/default/hello_ucosii.o (OSTaskCreateExt)
C:/Users/jchang3/Documents/ECE492/test/software/accelerometer_pen_bsp/\libucosii_bsp.a(os_time.o)
                              C:/Users/jchang3/Documents/ECE492/test/software/accelerometer_pen_bsp/\libucosii_bsp.a(os_core.o) (OSTimeDly)
C:/Users/jchang3/Documents/ECE492/test/software/accelerometer_pen_bsp/\libucosii_bsp.a(alt_sys_init.o)
                              C:/Users/jchang3/Documents/ECE492/test/software/accelerometer_pen_bsp/\libucosii_bsp.a(alt_main.o) (alt_irq_init)
C:/Users/jchang3/Documents/ECE492/test/software/accelerometer_pen_bsp/\libucosii_bsp.a(altera_avalon_jtag_uart_fd.o)
                              C:/Users/jchang3/Documents/ECE492/test/software/accelerometer_pen_bsp/\libucosii_bsp.a(alt_sys_init.o) (altera_avalon_jtag_uart_read_fd)
C:/Users/jchang3/Documents/ECE492/test/software/accelerometer_pen_bsp/\libucosii_bsp.a(altera_avalon_jtag_uart_init.o)
                              C:/Users/jchang3/Documents/ECE492/test/software/accelerometer_pen_bsp/\libucosii_bsp.a(alt_sys_init.o) (altera_avalon_jtag_uart_init)
C:/Users/jchang3/Documents/ECE492/test/software/accelerometer_pen_bsp/\libucosii_bsp.a(altera_avalon_jtag_uart_ioctl.o)
                              C:/Users/jchang3/Documents/ECE492/test/software/accelerometer_pen_bsp/\libucosii_bsp.a(altera_avalon_jtag_uart_fd.o) (altera_avalon_jtag_uart_ioctl)
C:/Users/jchang3/Documents/ECE492/test/software/accelerometer_pen_bsp/\libucosii_bsp.a(altera_avalon_jtag_uart_read.o)
                              C:/Users/jchang3/Documents/ECE492/test/software/accelerometer_pen_bsp/\libucosii_bsp.a(altera_avalon_jtag_uart_fd.o) (altera_avalon_jtag_uart_read)
C:/Users/jchang3/Documents/ECE492/test/software/accelerometer_pen_bsp/\libucosii_bsp.a(altera_avalon_jtag_uart_write.o)
                              C:/Users/jchang3/Documents/ECE492/test/software/accelerometer_pen_bsp/\libucosii_bsp.a(altera_avalon_jtag_uart_fd.o) (altera_avalon_jtag_uart_write)
C:/Users/jchang3/Documents/ECE492/test/software/accelerometer_pen_bsp/\libucosii_bsp.a(altera_avalon_timer_sc.o)
                              C:/Users/jchang3/Documents/ECE492/test/software/accelerometer_pen_bsp/\libucosii_bsp.a(alt_sys_init.o) (alt_avalon_timer_sc_init)
C:/Users/jchang3/Documents/ECE492/test/software/accelerometer_pen_bsp/\libucosii_bsp.a(altera_up_avalon_character_lcd.o)
                              C:/Users/jchang3/Documents/ECE492/test/software/accelerometer_pen_bsp/\libucosii_bsp.a(alt_sys_init.o) (alt_up_character_lcd_init)
C:/Users/jchang3/Documents/ECE492/test/software/accelerometer_pen_bsp/\libucosii_bsp.a(altera_up_avalon_rs232.o)
                              obj/default/hello_ucosii.o (alt_up_rs232_enable_read_interrupt)
C:/Users/jchang3/Documents/ECE492/test/software/accelerometer_pen_bsp/\libucosii_bsp.a(altera_up_sd_card_avalon_interface.o)
                              obj/default/hello_ucosii.o (alt_up_sd_card_is_Present)
C:/Users/jchang3/Documents/ECE492/test/software/accelerometer_pen_bsp/\libucosii_bsp.a(alt_alarm_start.o)
                              C:/Users/jchang3/Documents/ECE492/test/software/accelerometer_pen_bsp/\libucosii_bsp.a(altera_avalon_jtag_uart_init.o) (alt_alarm_start)
C:/Users/jchang3/Documents/ECE492/test/software/accelerometer_pen_bsp/\libucosii_bsp.a(alt_dcache_flush_all.o)
                              C:/Users/jchang3/Documents/ECE492/test/software/accelerometer_pen_bsp/\libucosii_bsp.a(alt_load.o) (alt_dcache_flush_all)
C:/Users/jchang3/Documents/ECE492/test/software/accelerometer_pen_bsp/\libucosii_bsp.a(alt_dev_llist_insert.o)
                              C:/Users/jchang3/Documents/ECE492/test/software/accelerometer_pen_bsp/\libucosii_bsp.a(alt_sys_init.o) (alt_dev_llist_insert)
C:/Users/jchang3/Documents/ECE492/test/software/accelerometer_pen_bsp/\libucosii_bsp.a(alt_do_ctors.o)
                              C:/Users/jchang3/Documents/ECE492/test/software/accelerometer_pen_bsp/\libucosii_bsp.a(alt_main.o) (_do_ctors)
C:/Users/jchang3/Documents/ECE492/test/software/accelerometer_pen_bsp/\libucosii_bsp.a(alt_do_dtors.o)
                              C:/Users/jchang3/Documents/ECE492/test/software/accelerometer_pen_bsp/\libucosii_bsp.a(alt_main.o) (_do_dtors)
C:/Users/jchang3/Documents/ECE492/test/software/accelerometer_pen_bsp/\libucosii_bsp.a(alt_find_dev.o)
                              C:/Users/jchang3/Documents/ECE492/test/software/accelerometer_pen_bsp/\libucosii_bsp.a(altera_up_avalon_character_lcd.o) (alt_find_dev)
C:/Users/jchang3/Documents/ECE492/test/software/accelerometer_pen_bsp/\libucosii_bsp.a(alt_icache_flush_all.o)
                              C:/Users/jchang3/Documents/ECE492/test/software/accelerometer_pen_bsp/\libucosii_bsp.a(alt_load.o) (alt_icache_flush_all)
C:/Users/jchang3/Documents/ECE492/test/software/accelerometer_pen_bsp/\libucosii_bsp.a(alt_io_redirect.o)
                              C:/Users/jchang3/Documents/ECE492/test/software/accelerometer_pen_bsp/\libucosii_bsp.a(alt_main.o) (alt_io_redirect)
C:/Users/jchang3/Documents/ECE492/test/software/accelerometer_pen_bsp/\libucosii_bsp.a(alt_irq_register.o)
                              C:/Users/jchang3/Documents/ECE492/test/software/accelerometer_pen_bsp/\libucosii_bsp.a(altera_avalon_jtag_uart_init.o) (alt_irq_register)
C:/Users/jchang3/Documents/ECE492/test/software/accelerometer_pen_bsp/\libucosii_bsp.a(alt_irq_vars.o)
                              C:/Users/jchang3/Documents/ECE492/test/software/accelerometer_pen_bsp/\libucosii_bsp.a(alt_irq_register.o) (alt_irq_active)
C:/Users/jchang3/Documents/ECE492/test/software/accelerometer_pen_bsp/\libucosii_bsp.a(alt_open.o)
                              C:/Users/jchang3/Documents/ECE492/test/software/accelerometer_pen_bsp/\libucosii_bsp.a(alt_io_redirect.o) (open)
C:/Users/jchang3/Documents/ECE492/test/software/accelerometer_pen_bsp/\libucosii_bsp.a(alt_tick.o)
                              C:/Users/jchang3/Documents/ECE492/test/software/accelerometer_pen_bsp/\libucosii_bsp.a(alt_times.o) (_alt_tick_rate)
C:/Users/jchang3/Documents/ECE492/test/software/accelerometer_pen_bsp/\libucosii_bsp.a(altera_nios2_qsys_irq.o)
                              C:/Users/jchang3/Documents/ECE492/test/software/accelerometer_pen_bsp/\libucosii_bsp.a(alt_sys_init.o) (altera_nios2_qsys_irq_init)
C:/Users/jchang3/Documents/ECE492/test/software/accelerometer_pen_bsp/\libucosii_bsp.a(os_cpu_a.o)
                              C:/Users/jchang3/Documents/ECE492/test/software/accelerometer_pen_bsp/\libucosii_bsp.a(os_core.o) (OSIntCtxSw)
C:/Users/jchang3/Documents/ECE492/test/software/accelerometer_pen_bsp/\libucosii_bsp.a(os_cpu_c.o)
                              C:/Users/jchang3/Documents/ECE492/test/software/accelerometer_pen_bsp/\libucosii_bsp.a(os_task.o) (OSTaskStkInit)
C:/Users/jchang3/Documents/ECE492/test/software/accelerometer_pen_bsp/\libucosii_bsp.a(alt_find_file.o)
                              C:/Users/jchang3/Documents/ECE492/test/software/accelerometer_pen_bsp/\libucosii_bsp.a(alt_open.o) (alt_find_file)
C:/Users/jchang3/Documents/ECE492/test/software/accelerometer_pen_bsp/\libucosii_bsp.a(alt_get_fd.o)
                              C:/Users/jchang3/Documents/ECE492/test/software/accelerometer_pen_bsp/\libucosii_bsp.a(alt_open.o) (alt_get_fd)
C:/Users/jchang3/Documents/ECE492/test/software/accelerometer_pen_bsp/\libucosii_bsp.a(alt_irq_entry.o)
                              C:/Users/jchang3/Documents/ECE492/test/software/accelerometer_pen_bsp/\libucosii_bsp.a(alt_irq_register.o) (alt_irq_entry)
C:/Users/jchang3/Documents/ECE492/test/software/accelerometer_pen_bsp/\libucosii_bsp.a(alt_irq_handler.o)
                              C:/Users/jchang3/Documents/ECE492/test/software/accelerometer_pen_bsp/\libucosii_bsp.a(alt_irq_register.o) (alt_irq_handler)
C:/Users/jchang3/Documents/ECE492/test/software/accelerometer_pen_bsp/\libucosii_bsp.a(alt_exception_entry.o)
                              C:/Users/jchang3/Documents/ECE492/test/software/accelerometer_pen_bsp/\libucosii_bsp.a(alt_irq_entry.o) (alt_exception)
c:/altera/12.1sp1/nios2eds/bin/gnu/h-i686-mingw32/bin/../lib/gcc/nios2-elf/4.1.2/../../../../nios2-elf/lib/mno-hw-mul\libc.a(lib_a-atexit.o)
                              C:/Users/jchang3/Documents/ECE492/test/software/accelerometer_pen_bsp/\libucosii_bsp.a(alt_main.o) (atexit)
c:/altera/12.1sp1/nios2eds/bin/gnu/h-i686-mingw32/bin/../lib/gcc/nios2-elf/4.1.2/../../../../nios2-elf/lib/mno-hw-mul\libc.a(lib_a-exit.o)
                              C:/Users/jchang3/Documents/ECE492/test/software/accelerometer_pen_bsp/\libucosii_bsp.a(alt_main.o) (exit)
c:/altera/12.1sp1/nios2eds/bin/gnu/h-i686-mingw32/bin/../lib/gcc/nios2-elf/4.1.2/../../../../nios2-elf/lib/mno-hw-mul\libc.a(lib_a-memcmp.o)
                              C:/Users/jchang3/Documents/ECE492/test/software/accelerometer_pen_bsp/\libucosii_bsp.a(alt_find_dev.o) (memcmp)
c:/altera/12.1sp1/nios2eds/bin/gnu/h-i686-mingw32/bin/../lib/gcc/nios2-elf/4.1.2/../../../../nios2-elf/lib/mno-hw-mul\libc.a(lib_a-putc.o)
                              C:/Users/jchang3/Documents/ECE492/test/software/accelerometer_pen_bsp/\libucosii_bsp.a(alt_putchar.o) (putc)
c:/altera/12.1sp1/nios2eds/bin/gnu/h-i686-mingw32/bin/../lib/gcc/nios2-elf/4.1.2/../../../../nios2-elf/lib/mno-hw-mul\libc.a(lib_a-wbuf.o)
                              c:/altera/12.1sp1/nios2eds/bin/gnu/h-i686-mingw32/bin/../lib/gcc/nios2-elf/4.1.2/../../../../nios2-elf/lib/mno-hw-mul\libc.a(lib_a-putc.o) (__swbuf_r)
c:/altera/12.1sp1/nios2eds/bin/gnu/h-i686-mingw32/bin/../lib/gcc/nios2-elf/4.1.2/../../../../nios2-elf/lib/mno-hw-mul\libc.a(lib_a-__atexit.o)
                              c:/altera/12.1sp1/nios2eds/bin/gnu/h-i686-mingw32/bin/../lib/gcc/nios2-elf/4.1.2/../../../../nios2-elf/lib/mno-hw-mul\libc.a(lib_a-atexit.o) (__register_exitproc)
c:/altera/12.1sp1/nios2eds/bin/gnu/h-i686-mingw32/bin/../lib/gcc/nios2-elf/4.1.2/../../../../nios2-elf/lib/mno-hw-mul\libc.a(lib_a-__call_atexit.o)
                              c:/altera/12.1sp1/nios2eds/bin/gnu/h-i686-mingw32/bin/../lib/gcc/nios2-elf/4.1.2/../../../../nios2-elf/lib/mno-hw-mul\libc.a(lib_a-exit.o) (__call_exitprocs)
C:/Users/jchang3/Documents/ECE492/test/software/accelerometer_pen_bsp/\libucosii_bsp.a(alt_exit.o)
                              c:/altera/12.1sp1/nios2eds/bin/gnu/h-i686-mingw32/bin/../lib/gcc/nios2-elf/4.1.2/../../../../nios2-elf/lib/mno-hw-mul\libc.a(lib_a-exit.o) (_exit)

Allocating common symbols
Common symbol       size              file

alt_irq             0x100             C:/Users/jchang3/Documents/ECE492/test/software/accelerometer_pen_bsp/\libucosii_bsp.a(alt_irq_handler.o)
template_number     0x4               obj/default/hello_ucosii.o
pCharacter          0x4               obj/default/hello_ucosii.o
taskCalibrate_stk   0x2000            obj/default/hello_ucosii.o
OSLockNesting       0x1               C:/Users/jchang3/Documents/ECE492/test/software/accelerometer_pen_bsp/\libucosii_bsp.a(os_core.o)
OSRunning           0x1               C:/Users/jchang3/Documents/ECE492/test/software/accelerometer_pen_bsp/\libucosii_bsp.a(os_core.o)
dtw_semy            0x4               obj/default/hello_ucosii.o
dtwy                0x4               obj/default/hello_ucosii.o
OSIdleCtr           0x4               C:/Users/jchang3/Documents/ECE492/test/software/accelerometer_pen_bsp/\libucosii_bsp.a(os_core.o)
semy                0x4               obj/default/hello_ucosii.o
OSPrioHighRdy       0x1               C:/Users/jchang3/Documents/ECE492/test/software/accelerometer_pen_bsp/\libucosii_bsp.a(os_core.o)
errno               0x4               c:/altera/12.1sp1/nios2eds/bin/gnu/h-i686-mingw32/bin/../lib/gcc/nios2-elf/4.1.2/../../../../nios2-elf/lib/mno-hw-mul\libc.a(lib_a-int_errno.o)
alt_heapsem         0x4               C:/Users/jchang3/Documents/ECE492/test/software/accelerometer_pen_bsp/\libucosii_bsp.a(alt_malloc_lock.o)
readsem             0x4               obj/default/hello_ucosii.o
OSFlagTbl           0x370             C:/Users/jchang3/Documents/ECE492/test/software/accelerometer_pen_bsp/\libucosii_bsp.a(os_core.o)
OSPrioCur           0x1               C:/Users/jchang3/Documents/ECE492/test/software/accelerometer_pen_bsp/\libucosii_bsp.a(os_core.o)
writesem            0x4               obj/default/hello_ucosii.o
OSTCBList           0x4               C:/Users/jchang3/Documents/ECE492/test/software/accelerometer_pen_bsp/\libucosii_bsp.a(os_core.o)
alt_fd_list_lock    0x4               C:/Users/jchang3/Documents/ECE492/test/software/accelerometer_pen_bsp/\libucosii_bsp.a(alt_dev.o)
OSMemTbl            0xc30             C:/Users/jchang3/Documents/ECE492/test/software/accelerometer_pen_bsp/\libucosii_bsp.a(os_core.o)
OSTickStepState     0x1               C:/Users/jchang3/Documents/ECE492/test/software/accelerometer_pen_bsp/\libucosii_bsp.a(os_core.o)
OSTaskStatStk       0x800             C:/Users/jchang3/Documents/ECE492/test/software/accelerometer_pen_bsp/\libucosii_bsp.a(os_core.o)
configuresem        0x4               obj/default/hello_ucosii.o
OSCtxSwCtr          0x4               C:/Users/jchang3/Documents/ECE492/test/software/accelerometer_pen_bsp/\libucosii_bsp.a(os_core.o)
uartsem             0x4               obj/default/hello_ucosii.o
taskCharacterRead_stk
                    0x2000            obj/default/hello_ucosii.o
message             0x4               obj/default/hello_ucosii.o
taskModeSelect_stk  0x2000            obj/default/hello_ucosii.o
taskTemplateMatch_stk
                    0x2000            obj/default/hello_ucosii.o
OSIdleCtrMax        0x4               C:/Users/jchang3/Documents/ECE492/test/software/accelerometer_pen_bsp/\libucosii_bsp.a(os_core.o)
dtwx                0x4               obj/default/hello_ucosii.o
OSTCBFreeList       0x4               C:/Users/jchang3/Documents/ECE492/test/software/accelerometer_pen_bsp/\libucosii_bsp.a(os_core.o)
dtw_sem             0x4               obj/default/hello_ucosii.o
dtw_semx            0x4               obj/default/hello_ucosii.o
taskDTWX_stk        0x2000            obj/default/hello_ucosii.o
OSCPUUsage          0x1               C:/Users/jchang3/Documents/ECE492/test/software/accelerometer_pen_bsp/\libucosii_bsp.a(os_core.o)
OSTaskCtr           0x1               C:/Users/jchang3/Documents/ECE492/test/software/accelerometer_pen_bsp/\libucosii_bsp.a(os_core.o)
taskReadSDCard_stk  0x2000            obj/default/hello_ucosii.o
OSMemFreeList       0x4               C:/Users/jchang3/Documents/ECE492/test/software/accelerometer_pen_bsp/\libucosii_bsp.a(os_core.o)
search_data         0x14              C:/Users/jchang3/Documents/ECE492/test/software/accelerometer_pen_bsp/\libucosii_bsp.a(altera_up_sd_card_avalon_interface.o)
OSQTbl              0x1e0             C:/Users/jchang3/Documents/ECE492/test/software/accelerometer_pen_bsp/\libucosii_bsp.a(os_core.o)
boot_sector_data    0x54              C:/Users/jchang3/Documents/ECE492/test/software/accelerometer_pen_bsp/\libucosii_bsp.a(altera_up_sd_card_avalon_interface.o)
OSTCBHighRdy        0x4               C:/Users/jchang3/Documents/ECE492/test/software/accelerometer_pen_bsp/\libucosii_bsp.a(os_core.o)
OSQFreeList         0x4               C:/Users/jchang3/Documents/ECE492/test/software/accelerometer_pen_bsp/\libucosii_bsp.a(os_core.o)
OSRdyGrp            0x1               C:/Users/jchang3/Documents/ECE492/test/software/accelerometer_pen_bsp/\libucosii_bsp.a(os_core.o)
err                 0x1               obj/default/hello_ucosii.o
templates           0x20              obj/default/hello_ucosii.o
_atexit0            0x190             c:/altera/12.1sp1/nios2eds/bin/gnu/h-i686-mingw32/bin/../lib/gcc/nios2-elf/4.1.2/../../../../nios2-elf/lib/mno-hw-mul\libc.a(lib_a-atexit.o)
OSRdyTbl            0x3               C:/Users/jchang3/Documents/ECE492/test/software/accelerometer_pen_bsp/\libucosii_bsp.a(os_core.o)
template            0x78              obj/default/hello_ucosii.o
semx                0x4               obj/default/hello_ucosii.o
array               0x78              obj/default/hello_ucosii.o
OSEventFreeList     0x4               C:/Users/jchang3/Documents/ECE492/test/software/accelerometer_pen_bsp/\libucosii_bsp.a(os_core.o)
SWQ_stk             0x2000            obj/default/hello_ucosii.o
modeselectsem       0x4               obj/default/hello_ucosii.o
active_files        0x500             C:/Users/jchang3/Documents/ECE492/test/software/accelerometer_pen_bsp/\libucosii_bsp.a(altera_up_sd_card_avalon_interface.o)
OSIntNesting        0x1               C:/Users/jchang3/Documents/ECE492/test/software/accelerometer_pen_bsp/\libucosii_bsp.a(os_core.o)
taskDTWY_stk        0x2000            obj/default/hello_ucosii.o
OSTCBCur            0x4               C:/Users/jchang3/Documents/ECE492/test/software/accelerometer_pen_bsp/\libucosii_bsp.a(os_core.o)
SWQ                 0x4               obj/default/hello_ucosii.o
OSTime              0x4               C:/Users/jchang3/Documents/ECE492/test/software/accelerometer_pen_bsp/\libucosii_bsp.a(os_core.o)
OSTaskIdleStk       0x800             C:/Users/jchang3/Documents/ECE492/test/software/accelerometer_pen_bsp/\libucosii_bsp.a(os_core.o)
OSEventTbl          0xb40             C:/Users/jchang3/Documents/ECE492/test/software/accelerometer_pen_bsp/\libucosii_bsp.a(os_core.o)
messageArray        0x800             obj/default/hello_ucosii.o
OSTCBTbl            0x510             C:/Users/jchang3/Documents/ECE492/test/software/accelerometer_pen_bsp/\libucosii_bsp.a(os_core.o)
OSFlagFreeList      0x4               C:/Users/jchang3/Documents/ECE492/test/software/accelerometer_pen_bsp/\libucosii_bsp.a(os_core.o)
OSStatRdy           0x1               C:/Users/jchang3/Documents/ECE492/test/software/accelerometer_pen_bsp/\libucosii_bsp.a(os_core.o)
OSTCBPrioTbl        0x54              C:/Users/jchang3/Documents/ECE492/test/software/accelerometer_pen_bsp/\libucosii_bsp.a(os_core.o)
alt_envsem          0x4               C:/Users/jchang3/Documents/ECE492/test/software/accelerometer_pen_bsp/\libucosii_bsp.a(alt_env_lock.o)
OSIdleCtrRun        0x4               C:/Users/jchang3/Documents/ECE492/test/software/accelerometer_pen_bsp/\libucosii_bsp.a(os_core.o)

Memory Configuration

Name             Origin             Length             Attributes
sdram_0          0x00800000         0x00800000
generic_tristate_controller_0 0x01400000         0x00400000
sram_0           0x01880000         0x00080000
reset            0x01904000         0x00000020
onchip_memory2_0 0x01904020         0x00003fe0
*default*        0x00000000         0xffffffff

Linker script and memory map

LOAD C:/Users/jchang3/Documents/ECE492/test/software/accelerometer_pen_bsp//obj/HAL/src/crt0.o
LOAD obj/default/dtw.o
LOAD obj/default/hello_ucosii.o
LOAD c:/altera/12.1sp1/nios2eds/bin/gnu/h-i686-mingw32/bin/../lib/gcc/nios2-elf/4.1.2/../../../../nios2-elf/lib/mno-hw-mul\libstdc++.a
LOAD c:/altera/12.1sp1/nios2eds/bin/gnu/h-i686-mingw32/bin/../lib/gcc/nios2-elf/4.1.2/../../../../nios2-elf/lib/mno-hw-mul\libm.a
LOAD c:/altera/12.1sp1/nios2eds/bin/gnu/h-i686-mingw32/bin/../lib/gcc/nios2-elf/4.1.2/mno-hw-mul\libgcc.a
START GROUP
LOAD c:/altera/12.1sp1/nios2eds/bin/gnu/h-i686-mingw32/bin/../lib/gcc/nios2-elf/4.1.2/../../../../nios2-elf/lib/mno-hw-mul\libc.a
LOAD c:/altera/12.1sp1/nios2eds/bin/gnu/h-i686-mingw32/bin/../lib/gcc/nios2-elf/4.1.2/mno-hw-mul\libgcc.a
LOAD C:/Users/jchang3/Documents/ECE492/test/software/accelerometer_pen_bsp/\libucosii_bsp.a
END GROUP
LOAD c:/altera/12.1sp1/nios2eds/bin/gnu/h-i686-mingw32/bin/../lib/gcc/nios2-elf/4.1.2/mno-hw-mul\libgcc.a
                0x00800000                __alt_mem_sdram_0 = 0x800000
                0x01400000                __alt_mem_generic_tristate_controller_0 = 0x1400000
                0x01880000                __alt_mem_sram_0 = 0x1880000
                0x01904000                __alt_mem_onchip_memory2_0 = 0x1904000

.entry          0x01904000       0x20
 *(.entry)
 .entry         0x01904000       0x20 C:/Users/jchang3/Documents/ECE492/test/software/accelerometer_pen_bsp//obj/HAL/src/crt0.o
                0x01904000                __reset

.exceptions     0x01904020      0x1a0 load address 0x00800000
                0x01904020                PROVIDE (__ram_exceptions_start, ABSOLUTE (.))
                0x01904020                . = ALIGN (0x20)
 *(.irq)
 *(.exceptions.entry.label)
 .exceptions.entry.label
                0x01904020        0x0 C:/Users/jchang3/Documents/ECE492/test/software/accelerometer_pen_bsp/\libucosii_bsp.a(alt_irq_entry.o)
                0x01904020                alt_irq_entry
 .exceptions.entry.label
                0x01904020        0x0 C:/Users/jchang3/Documents/ECE492/test/software/accelerometer_pen_bsp/\libucosii_bsp.a(alt_exception_entry.o)
                0x01904020                alt_exception
 *(.exceptions.entry.user)
 *(.exceptions.entry)
 .exceptions.entry
                0x01904020       0x54 C:/Users/jchang3/Documents/ECE492/test/software/accelerometer_pen_bsp/\libucosii_bsp.a(alt_exception_entry.o)
 *(.exceptions.irqtest.user)
 *(.exceptions.irqtest)
 .exceptions.irqtest
                0x01904074       0x10 C:/Users/jchang3/Documents/ECE492/test/software/accelerometer_pen_bsp/\libucosii_bsp.a(alt_irq_entry.o)
 *(.exceptions.irqhandler.user)
 *(.exceptions.irqhandler)
 .exceptions.irqhandler
                0x01904084        0x4 C:/Users/jchang3/Documents/ECE492/test/software/accelerometer_pen_bsp/\libucosii_bsp.a(alt_irq_entry.o)
 *(.exceptions.irqreturn.user)
 *(.exceptions.irqreturn)
 .exceptions.irqreturn
                0x01904088        0x4 C:/Users/jchang3/Documents/ECE492/test/software/accelerometer_pen_bsp/\libucosii_bsp.a(alt_irq_entry.o)
 *(.exceptions.notirq.label)
 .exceptions.notirq.label
                0x0190408c        0x0 C:/Users/jchang3/Documents/ECE492/test/software/accelerometer_pen_bsp/\libucosii_bsp.a(alt_irq_entry.o)
 *(.exceptions.notirq.user)
 *(.exceptions.notirq)
 .exceptions.notirq
                0x0190408c        0x8 C:/Users/jchang3/Documents/ECE492/test/software/accelerometer_pen_bsp/\libucosii_bsp.a(alt_exception_entry.o)
 *(.exceptions.soft.user)
 *(.exceptions.soft)
 *(.exceptions.unknown.user)
 *(.exceptions.unknown)
 .exceptions.unknown
                0x01904094        0x4 C:/Users/jchang3/Documents/ECE492/test/software/accelerometer_pen_bsp/\libucosii_bsp.a(alt_exception_entry.o)
 *(.exceptions.exit.label)
 .exceptions.exit.label
                0x01904098        0x0 C:/Users/jchang3/Documents/ECE492/test/software/accelerometer_pen_bsp/\libucosii_bsp.a(alt_irq_entry.o)
 .exceptions.exit.label
                0x01904098        0x0 C:/Users/jchang3/Documents/ECE492/test/software/accelerometer_pen_bsp/\libucosii_bsp.a(alt_exception_entry.o)
 *(.exceptions.exit.user)
 *(.exceptions.exit)
 .exceptions.exit
                0x01904098       0x54 C:/Users/jchang3/Documents/ECE492/test/software/accelerometer_pen_bsp/\libucosii_bsp.a(alt_exception_entry.o)
 *(.exceptions)
 .exceptions    0x019040ec       0xd4 C:/Users/jchang3/Documents/ECE492/test/software/accelerometer_pen_bsp/\libucosii_bsp.a(alt_irq_handler.o)
                0x019040ec                alt_irq_handler
                0x019041c0                PROVIDE (__ram_exceptions_end, ABSOLUTE (.))
                0x00800000                PROVIDE (__flash_exceptions_start, LOADADDR (.exceptions))

.text           0x008001a0    0x1c190
                0x008001a0                PROVIDE (stext, ABSOLUTE (.))
 *(.interp)
 *(.hash)
 *(.dynsym)
 *(.dynstr)
 *(.gnu.version)
 *(.gnu.version_d)
 *(.gnu.version_r)
 *(.rel.init)
 *(.rela.init)
 *(.rel.text .rel.text.* .rel.gnu.linkonce.t.*)
 *(.rela.text .rela.text.* .rela.gnu.linkonce.t.*)
 *(.rel.fini)
 *(.rela.fini)
 *(.rel.rodata .rel.rodata.* .rel.gnu.linkonce.r.*)
 *(.rela.rodata .rela.rodata.* .rela.gnu.linkonce.r.*)
 *(.rel.data .rel.data.* .rel.gnu.linkonce.d.*)
 *(.rela.data .rela.data.* .rela.gnu.linkonce.d.*)
 *(.rel.tdata .rel.tdata.* .rel.gnu.linkonce.td.*)
 *(.rela.tdata .rela.tdata.* .rela.gnu.linkonce.td.*)
 *(.rel.tbss .rel.tbss.* .rel.gnu.linkonce.tb.*)
 *(.rela.tbss .rela.tbss.* .rela.gnu.linkonce.tb.*)
 *(.rel.ctors)
 *(.rela.ctors)
 *(.rel.dtors)
 *(.rela.dtors)
 *(.rel.got)
 *(.rela.got)
 *(.rel.sdata .rel.sdata.* .rel.gnu.linkonce.s.*)
 *(.rela.sdata .rela.sdata.* .rela.gnu.linkonce.s.*)
 *(.rel.sbss .rel.sbss.* .rel.gnu.linkonce.sb.*)
 *(.rela.sbss .rela.sbss.* .rela.gnu.linkonce.sb.*)
 *(.rel.sdata2 .rel.sdata2.* .rel.gnu.linkonce.s2.*)
 *(.rela.sdata2 .rela.sdata2.* .rela.gnu.linkonce.s2.*)
 *(.rel.sbss2 .rel.sbss2.* .rel.gnu.linkonce.sb2.*)
 *(.rela.sbss2 .rela.sbss2.* .rela.gnu.linkonce.sb2.*)
 *(.rel.bss .rel.bss.* .rel.gnu.linkonce.b.*)
 *(.rela.bss .rela.bss.* .rela.gnu.linkonce.b.*)
 *(.rel.plt)
 *(.rela.plt)
 *(.rel.dyn)
 *(.init)
 *(.plt)
 *(.text .stub .text.* .gnu.linkonce.t.*)
 .text          0x008001a0       0x3c C:/Users/jchang3/Documents/ECE492/test/software/accelerometer_pen_bsp//obj/HAL/src/crt0.o
                0x008001a0                _start
 .text          0x008001dc      0x498 obj/default/dtw.o
                0x008001dc                min_three
                0x00800238                min
                0x0080027c                max
                0x008002c0                dist
                0x00800308                dtw
 .text          0x00800674     0x1204 obj/default/hello_ucosii.o
                0x00800674                taskModeSelect
                0x008007b4                loadSDCard
                0x00800abc                taskCalibrate
                0x00800dc4                taskCharacterRead
                0x0080118c                taskTemplateMatch
                0x008011b0                taskDTWX
                0x008012a8                taskDTWY
                0x008013a0                taskReadSDCard
                0x00801600                main
 .text          0x00801878      0x174 c:/altera/12.1sp1/nios2eds/bin/gnu/h-i686-mingw32/bin/../lib/gcc/nios2-elf/4.1.2/mno-hw-mul\libgcc.a(_div_sf.o)
                0x00801878                __divsf3
 .text          0x008019ec       0x54 c:/altera/12.1sp1/nios2eds/bin/gnu/h-i686-mingw32/bin/../lib/gcc/nios2-elf/4.1.2/mno-hw-mul\libgcc.a(_sf_to_df.o)
                0x008019ec                __extendsfdf2
 .text          0x00801a40        0x0 c:/altera/12.1sp1/nios2eds/bin/gnu/h-i686-mingw32/bin/../lib/gcc/nios2-elf/4.1.2/mno-hw-mul\libgcc.a(_thenan_sf.o)
 .text          0x00801a40       0xc0 c:/altera/12.1sp1/nios2eds/bin/gnu/h-i686-mingw32/bin/../lib/gcc/nios2-elf/4.1.2/mno-hw-mul\libgcc.a(_usi_to_sf.o)
                0x00801a40                __floatunsisf
 .text          0x00801b00      0x504 c:/altera/12.1sp1/nios2eds/bin/gnu/h-i686-mingw32/bin/../lib/gcc/nios2-elf/4.1.2/mno-hw-mul\libgcc.a(_addsub_df.o)
                0x00801f10                __subdf3
                0x00801f90                __adddf3
 .text          0x00802004      0x3c4 c:/altera/12.1sp1/nios2eds/bin/gnu/h-i686-mingw32/bin/../lib/gcc/nios2-elf/4.1.2/mno-hw-mul\libgcc.a(_mul_df.o)
                0x00802004                __muldf3
 .text          0x008023c8       0xf8 c:/altera/12.1sp1/nios2eds/bin/gnu/h-i686-mingw32/bin/../lib/gcc/nios2-elf/4.1.2/mno-hw-mul\libgcc.a(_si_to_df.o)
                0x008023c8                __floatsidf
 .text          0x008024c0       0xd8 c:/altera/12.1sp1/nios2eds/bin/gnu/h-i686-mingw32/bin/../lib/gcc/nios2-elf/4.1.2/mno-hw-mul\libgcc.a(_df_to_si.o)
                0x008024c0                __fixdfsi
 .text          0x00802598       0x38 c:/altera/12.1sp1/nios2eds/bin/gnu/h-i686-mingw32/bin/../lib/gcc/nios2-elf/4.1.2/mno-hw-mul\libgcc.a(_make_df.o)
                0x00802598                __make_dp
 .text          0x008025d0        0x0 c:/altera/12.1sp1/nios2eds/bin/gnu/h-i686-mingw32/bin/../lib/gcc/nios2-elf/4.1.2/mno-hw-mul\libgcc.a(_thenan_df.o)
 .text          0x008025d0       0x38 c:/altera/12.1sp1/nios2eds/bin/gnu/h-i686-mingw32/bin/../lib/gcc/nios2-elf/4.1.2/mno-hw-mul\libgcc.a(lib2-mul.o)
                0x008025d0                __mulsi3
 .text          0x00802608      0x124 c:/altera/12.1sp1/nios2eds/bin/gnu/h-i686-mingw32/bin/../lib/gcc/nios2-elf/4.1.2/mno-hw-mul\libgcc.a(_muldi3.o)
                0x00802608                __muldi3
 .text          0x0080272c       0x80 c:/altera/12.1sp1/nios2eds/bin/gnu/h-i686-mingw32/bin/../lib/gcc/nios2-elf/4.1.2/mno-hw-mul\libgcc.a(_clzsi2.o)
                0x0080272c                __clzsi2
 .text          0x008027ac      0x160 c:/altera/12.1sp1/nios2eds/bin/gnu/h-i686-mingw32/bin/../lib/gcc/nios2-elf/4.1.2/mno-hw-mul\libgcc.a(_pack_sf.o)
                0x008027ac                __pack_f
 .text          0x0080290c       0xc8 c:/altera/12.1sp1/nios2eds/bin/gnu/h-i686-mingw32/bin/../lib/gcc/nios2-elf/4.1.2/mno-hw-mul\libgcc.a(_unpack_sf.o)
                0x0080290c                __unpack_f
 .text          0x008029d4      0x314 c:/altera/12.1sp1/nios2eds/bin/gnu/h-i686-mingw32/bin/../lib/gcc/nios2-elf/4.1.2/mno-hw-mul\libgcc.a(_pack_df.o)
                0x008029d4                __pack_d
 .text          0x00802ce8      0x138 c:/altera/12.1sp1/nios2eds/bin/gnu/h-i686-mingw32/bin/../lib/gcc/nios2-elf/4.1.2/mno-hw-mul\libgcc.a(_unpack_df.o)
                0x00802ce8                __unpack_d
 .text          0x00802e20        0x0 c:/altera/12.1sp1/nios2eds/bin/gnu/h-i686-mingw32/bin/../lib/gcc/nios2-elf/4.1.2/mno-hw-mul\libgcc.a(_clz.o)
 .text          0x00802e20       0x1c c:/altera/12.1sp1/nios2eds/bin/gnu/h-i686-mingw32/bin/../lib/gcc/nios2-elf/4.1.2/../../../../nios2-elf/lib/mno-hw-mul\libc.a(lib_a-calloc.o)
                0x00802e20                calloc
 .text          0x00802e3c       0xc8 c:/altera/12.1sp1/nios2eds/bin/gnu/h-i686-mingw32/bin/../lib/gcc/nios2-elf/4.1.2/../../../../nios2-elf/lib/mno-hw-mul\libc.a(lib_a-callocr.o)
                0x00802e3c                _calloc_r
 .text          0x00802f04       0x54 c:/altera/12.1sp1/nios2eds/bin/gnu/h-i686-mingw32/bin/../lib/gcc/nios2-elf/4.1.2/../../../../nios2-elf/lib/mno-hw-mul\libc.a(lib_a-clock.o)
                0x00802f04                clock
 .text          0x00802f58        0x0 c:/altera/12.1sp1/nios2eds/bin/gnu/h-i686-mingw32/bin/../lib/gcc/nios2-elf/4.1.2/../../../../nios2-elf/lib/mno-hw-mul\libc.a(lib_a-impure.o)
 .text          0x00802f58      0x740 c:/altera/12.1sp1/nios2eds/bin/gnu/h-i686-mingw32/bin/../lib/gcc/nios2-elf/4.1.2/../../../../nios2-elf/lib/mno-hw-mul\libc.a(lib_a-mallocr.o)
                0x00802f58                _malloc_r
 .text          0x00803698       0x98 c:/altera/12.1sp1/nios2eds/bin/gnu/h-i686-mingw32/bin/../lib/gcc/nios2-elf/4.1.2/../../../../nios2-elf/lib/mno-hw-mul\libc.a(lib_a-memset.o)
                0x00803698                memset
 .text          0x00803730       0x78 c:/altera/12.1sp1/nios2eds/bin/gnu/h-i686-mingw32/bin/../lib/gcc/nios2-elf/4.1.2/../../../../nios2-elf/lib/mno-hw-mul\libc.a(lib_a-printf.o)
                0x00803730                printf
                0x00803774                _printf_r
 .text          0x008037a8       0xb4 c:/altera/12.1sp1/nios2eds/bin/gnu/h-i686-mingw32/bin/../lib/gcc/nios2-elf/4.1.2/../../../../nios2-elf/lib/mno-hw-mul\libc.a(lib_a-puts.o)
                0x008037a8                _puts_r
                0x00803848                puts
 .text          0x0080385c       0x70 c:/altera/12.1sp1/nios2eds/bin/gnu/h-i686-mingw32/bin/../lib/gcc/nios2-elf/4.1.2/../../../../nios2-elf/lib/mno-hw-mul\libc.a(lib_a-sbrkr.o)
                0x0080385c                _sbrk_r
 .text          0x008038cc       0x74 c:/altera/12.1sp1/nios2eds/bin/gnu/h-i686-mingw32/bin/../lib/gcc/nios2-elf/4.1.2/../../../../nios2-elf/lib/mno-hw-mul\libc.a(lib_a-strlen.o)
                0x008038cc                strlen
 .text          0x00803940        0x8 c:/altera/12.1sp1/nios2eds/bin/gnu/h-i686-mingw32/bin/../lib/gcc/nios2-elf/4.1.2/../../../../nios2-elf/lib/mno-hw-mul\libc.a(lib_a-timesr.o)
                0x00803940                _times_r
 .text          0x00803948     0x1f40 c:/altera/12.1sp1/nios2eds/bin/gnu/h-i686-mingw32/bin/../lib/gcc/nios2-elf/4.1.2/../../../../nios2-elf/lib/mno-hw-mul\libc.a(lib_a-vfprintf.o)
                0x008039a0                ___vfprintf_internal_r
                0x00805864                __vfprintf_internal
 .text          0x00805888      0x13c c:/altera/12.1sp1/nios2eds/bin/gnu/h-i686-mingw32/bin/../lib/gcc/nios2-elf/4.1.2/../../../../nios2-elf/lib/mno-hw-mul\libc.a(lib_a-wsetup.o)
                0x00805888                __swsetup_r
 .text          0x008059c4     0x17f8 c:/altera/12.1sp1/nios2eds/bin/gnu/h-i686-mingw32/bin/../lib/gcc/nios2-elf/4.1.2/../../../../nios2-elf/lib/mno-hw-mul\libc.a(lib_a-dtoa.o)
                0x00805c08                _dtoa_r
 .text          0x008071bc      0x230 c:/altera/12.1sp1/nios2eds/bin/gnu/h-i686-mingw32/bin/../lib/gcc/nios2-elf/4.1.2/../../../../nios2-elf/lib/mno-hw-mul\libc.a(lib_a-fflush.o)
                0x008071bc                _fflush_r
                0x008073b8                fflush
 .text          0x008073ec      0x2f4 c:/altera/12.1sp1/nios2eds/bin/gnu/h-i686-mingw32/bin/../lib/gcc/nios2-elf/4.1.2/../../../../nios2-elf/lib/mno-hw-mul\libc.a(lib_a-findfp.o)
                0x00807444                __sfp_lock_acquire
                0x00807448                __sfp_lock_release
                0x0080744c                __sinit_lock_acquire
                0x00807450                __sinit_lock_release
                0x00807454                __sinit
                0x00807508                __fp_unlock_all
                0x00807520                __fp_lock_all
                0x00807538                _cleanup_r
                0x00807544                _cleanup
                0x00807554                __sfmoreglue
                0x008075f0                __sfp
 .text          0x008076e0      0x440 c:/altera/12.1sp1/nios2eds/bin/gnu/h-i686-mingw32/bin/../lib/gcc/nios2-elf/4.1.2/../../../../nios2-elf/lib/mno-hw-mul\libc.a(lib_a-freer.o)
                0x008076e0                _malloc_trim_r
                0x0080780c                _free_r
 .text          0x00807b20      0x49c c:/altera/12.1sp1/nios2eds/bin/gnu/h-i686-mingw32/bin/../lib/gcc/nios2-elf/4.1.2/../../../../nios2-elf/lib/mno-hw-mul\libc.a(lib_a-fvwrite.o)
                0x00807b20                __sfvwrite_r
 .text          0x00807fbc      0x180 c:/altera/12.1sp1/nios2eds/bin/gnu/h-i686-mingw32/bin/../lib/gcc/nios2-elf/4.1.2/../../../../nios2-elf/lib/mno-hw-mul\libc.a(lib_a-fwalk.o)
                0x00807fbc                _fwalk_reent
                0x00808084                _fwalk
 .text          0x0080813c        0x0 c:/altera/12.1sp1/nios2eds/bin/gnu/h-i686-mingw32/bin/../lib/gcc/nios2-elf/4.1.2/../../../../nios2-elf/lib/mno-hw-mul\libc.a(lib_a-int_errno.o)
 .text          0x0080813c       0xc4 c:/altera/12.1sp1/nios2eds/bin/gnu/h-i686-mingw32/bin/../lib/gcc/nios2-elf/4.1.2/../../../../nios2-elf/lib/mno-hw-mul\libc.a(lib_a-locale.o)
                0x0080813c                __locale_charset
                0x00808144                _localeconv_r
                0x00808150                localeconv
                0x00808160                _setlocale_r
                0x008081e4                setlocale
 .text          0x00808200      0x194 c:/altera/12.1sp1/nios2eds/bin/gnu/h-i686-mingw32/bin/../lib/gcc/nios2-elf/4.1.2/../../../../nios2-elf/lib/mno-hw-mul\libc.a(lib_a-makebuf.o)
                0x00808200                __smakebuf_r
 .text          0x00808394       0xe4 c:/altera/12.1sp1/nios2eds/bin/gnu/h-i686-mingw32/bin/../lib/gcc/nios2-elf/4.1.2/../../../../nios2-elf/lib/mno-hw-mul\libc.a(lib_a-memchr.o)
                0x00808394                memchr
 .text          0x00808478       0xa0 c:/altera/12.1sp1/nios2eds/bin/gnu/h-i686-mingw32/bin/../lib/gcc/nios2-elf/4.1.2/../../../../nios2-elf/lib/mno-hw-mul\libc.a(lib_a-memcpy.o)
                0x00808478                memcpy
 .text          0x00808518       0xe0 c:/altera/12.1sp1/nios2eds/bin/gnu/h-i686-mingw32/bin/../lib/gcc/nios2-elf/4.1.2/../../../../nios2-elf/lib/mno-hw-mul\libc.a(lib_a-memmove.o)
                0x00808518                memmove
 .text          0x008085f8     0x108c c:/altera/12.1sp1/nios2eds/bin/gnu/h-i686-mingw32/bin/../lib/gcc/nios2-elf/4.1.2/../../../../nios2-elf/lib/mno-hw-mul\libc.a(lib_a-mprec.o)
                0x008085f8                _Bfree
                0x00808620                __hi0bits
                0x00808690                __lo0bits
                0x00808754                __mcmp
                0x008087b4                __ulp
                0x00808834                __b2d
                0x00808954                __ratio
                0x00808a04                _mprec_log10
                0x00808a98                __copybits
                0x00808af0                __any_on
                0x00808b78                _Balloc
                0x00808c34                __d2b
                0x00808db0                __mdiff
                0x00808f3c                __lshift
                0x00809088                __multiply
                0x008092dc                __i2b
                0x00809318                __multadd
                0x00809444                __pow5mult
                0x00809564                __s2b
 .text          0x00809684      0x5f4 c:/altera/12.1sp1/nios2eds/bin/gnu/h-i686-mingw32/bin/../lib/gcc/nios2-elf/4.1.2/../../../../nios2-elf/lib/mno-hw-mul\libc.a(lib_a-reallocr.o)
                0x00809684                _realloc_r
 .text          0x00809c78       0x40 c:/altera/12.1sp1/nios2eds/bin/gnu/h-i686-mingw32/bin/../lib/gcc/nios2-elf/4.1.2/../../../../nios2-elf/lib/mno-hw-mul\libc.a(lib_a-s_isinfd.o)
                0x00809c78                __isinfd
 .text          0x00809cb8       0x30 c:/altera/12.1sp1/nios2eds/bin/gnu/h-i686-mingw32/bin/../lib/gcc/nios2-elf/4.1.2/../../../../nios2-elf/lib/mno-hw-mul\libc.a(lib_a-s_isnand.o)
                0x00809cb8                __isnand
 .text          0x00809ce8      0x14c c:/altera/12.1sp1/nios2eds/bin/gnu/h-i686-mingw32/bin/../lib/gcc/nios2-elf/4.1.2/../../../../nios2-elf/lib/mno-hw-mul\libc.a(lib_a-stdio.o)
                0x00809ce8                __sclose
                0x00809cf0                __sseek
                0x00809d58                __swrite
                0x00809dd4                __sread
 .text          0x00809e34       0xbc c:/altera/12.1sp1/nios2eds/bin/gnu/h-i686-mingw32/bin/../lib/gcc/nios2-elf/4.1.2/../../../../nios2-elf/lib/mno-hw-mul\libc.a(lib_a-strcmp.o)
                0x00809e34                strcmp
 .text          0x00809ef0       0x78 c:/altera/12.1sp1/nios2eds/bin/gnu/h-i686-mingw32/bin/../lib/gcc/nios2-elf/4.1.2/../../../../nios2-elf/lib/mno-hw-mul\libc.a(lib_a-writer.o)
                0x00809ef0                _write_r
 .text          0x00809f68       0x70 c:/altera/12.1sp1/nios2eds/bin/gnu/h-i686-mingw32/bin/../lib/gcc/nios2-elf/4.1.2/../../../../nios2-elf/lib/mno-hw-mul\libc.a(lib_a-closer.o)
                0x00809f68                _close_r
 .text          0x00809fd8      0x124 c:/altera/12.1sp1/nios2eds/bin/gnu/h-i686-mingw32/bin/../lib/gcc/nios2-elf/4.1.2/../../../../nios2-elf/lib/mno-hw-mul\libc.a(lib_a-fclose.o)
                0x00809fd8                _fclose_r
                0x0080a0e8                fclose
 .text          0x0080a0fc       0x74 c:/altera/12.1sp1/nios2eds/bin/gnu/h-i686-mingw32/bin/../lib/gcc/nios2-elf/4.1.2/../../../../nios2-elf/lib/mno-hw-mul\libc.a(lib_a-fstatr.o)
                0x0080a0fc                _fstat_r
 .text          0x0080a170       0x70 c:/altera/12.1sp1/nios2eds/bin/gnu/h-i686-mingw32/bin/../lib/gcc/nios2-elf/4.1.2/../../../../nios2-elf/lib/mno-hw-mul\libc.a(lib_a-isattyr.o)
                0x0080a170                _isatty_r
 .text          0x0080a1e0       0x78 c:/altera/12.1sp1/nios2eds/bin/gnu/h-i686-mingw32/bin/../lib/gcc/nios2-elf/4.1.2/../../../../nios2-elf/lib/mno-hw-mul\libc.a(lib_a-lseekr.o)
                0x0080a1e0                _lseek_r
 .text          0x0080a258       0x78 c:/altera/12.1sp1/nios2eds/bin/gnu/h-i686-mingw32/bin/../lib/gcc/nios2-elf/4.1.2/../../../../nios2-elf/lib/mno-hw-mul\libc.a(lib_a-readr.o)
                0x0080a258                _read_r
 .text          0x0080a2d0      0x66c c:/altera/12.1sp1/nios2eds/bin/gnu/h-i686-mingw32/bin/../lib/gcc/nios2-elf/4.1.2/mno-hw-mul\libgcc.a(_udivdi3.o)
                0x0080a2d0                __udivdi3
 .text          0x0080a93c      0x660 c:/altera/12.1sp1/nios2eds/bin/gnu/h-i686-mingw32/bin/../lib/gcc/nios2-elf/4.1.2/mno-hw-mul\libgcc.a(_umoddi3.o)
                0x0080a93c                __umoddi3
 .text          0x0080af9c      0x258 c:/altera/12.1sp1/nios2eds/bin/gnu/h-i686-mingw32/bin/../lib/gcc/nios2-elf/4.1.2/mno-hw-mul\libgcc.a(_div_df.o)
                0x0080af9c                __divdf3
 .text          0x0080b1f4       0x88 c:/altera/12.1sp1/nios2eds/bin/gnu/h-i686-mingw32/bin/../lib/gcc/nios2-elf/4.1.2/mno-hw-mul\libgcc.a(_eq_df.o)
                0x0080b1f4                __eqdf2
 .text          0x0080b27c       0x88 c:/altera/12.1sp1/nios2eds/bin/gnu/h-i686-mingw32/bin/../lib/gcc/nios2-elf/4.1.2/mno-hw-mul\libgcc.a(_ne_df.o)
                0x0080b27c                __nedf2
 .text          0x0080b304       0x88 c:/altera/12.1sp1/nios2eds/bin/gnu/h-i686-mingw32/bin/../lib/gcc/nios2-elf/4.1.2/mno-hw-mul\libgcc.a(_gt_df.o)
                0x0080b304                __gtdf2
 .text          0x0080b38c       0x88 c:/altera/12.1sp1/nios2eds/bin/gnu/h-i686-mingw32/bin/../lib/gcc/nios2-elf/4.1.2/mno-hw-mul\libgcc.a(_ge_df.o)
                0x0080b38c                __gedf2
 .text          0x0080b414       0x88 c:/altera/12.1sp1/nios2eds/bin/gnu/h-i686-mingw32/bin/../lib/gcc/nios2-elf/4.1.2/mno-hw-mul\libgcc.a(_lt_df.o)
                0x0080b414                __ltdf2
 .text          0x0080b49c      0x194 c:/altera/12.1sp1/nios2eds/bin/gnu/h-i686-mingw32/bin/../lib/gcc/nios2-elf/4.1.2/mno-hw-mul\libgcc.a(_usi_to_df.o)
                0x0080b49c                __floatunsidf
 .text          0x0080b630      0x14c c:/altera/12.1sp1/nios2eds/bin/gnu/h-i686-mingw32/bin/../lib/gcc/nios2-elf/4.1.2/mno-hw-mul\libgcc.a(lib2-divmod.o)
                0x0080b6ac                __divsi3
                0x0080b70c                __modsi3
                0x0080b76c                __udivsi3
                0x0080b774                __umodsi3
 .text          0x0080b77c       0xc8 c:/altera/12.1sp1/nios2eds/bin/gnu/h-i686-mingw32/bin/../lib/gcc/nios2-elf/4.1.2/mno-hw-mul\libgcc.a(_fpcmp_parts_df.o)
                0x0080b77c                __fpcmp_parts_d
 .text          0x0080b844      0x160 C:/Users/jchang3/Documents/ECE492/test/software/accelerometer_pen_bsp/\libucosii_bsp.a(alt_close.o)
                0x0080b844                close
 .text          0x0080b9a4       0x2c C:/Users/jchang3/Documents/ECE492/test/software/accelerometer_pen_bsp/\libucosii_bsp.a(alt_dev.o)
 .text          0x0080b9d0        0x0 C:/Users/jchang3/Documents/ECE492/test/software/accelerometer_pen_bsp/\libucosii_bsp.a(alt_errno.o)
 .text          0x0080b9d0      0x138 C:/Users/jchang3/Documents/ECE492/test/software/accelerometer_pen_bsp/\libucosii_bsp.a(alt_fstat.o)
                0x0080b9d0                fstat
 .text          0x0080bb08      0x124 C:/Users/jchang3/Documents/ECE492/test/software/accelerometer_pen_bsp/\libucosii_bsp.a(alt_isatty.o)
                0x0080bb08                isatty
 .text          0x0080bc2c       0xec C:/Users/jchang3/Documents/ECE492/test/software/accelerometer_pen_bsp/\libucosii_bsp.a(alt_load.o)
                0x0080bc2c                alt_load
 .text          0x0080bd18      0x154 C:/Users/jchang3/Documents/ECE492/test/software/accelerometer_pen_bsp/\libucosii_bsp.a(alt_lseek.o)
                0x0080bd18                lseek
 .text          0x0080be6c       0xc8 C:/Users/jchang3/Documents/ECE492/test/software/accelerometer_pen_bsp/\libucosii_bsp.a(alt_main.o)
                0x0080be6c                alt_main
 .text          0x0080bf34      0x258 C:/Users/jchang3/Documents/ECE492/test/software/accelerometer_pen_bsp/\libucosii_bsp.a(alt_printf.o)
                0x0080bf34                alt_printf
 .text          0x0080c18c       0x40 C:/Users/jchang3/Documents/ECE492/test/software/accelerometer_pen_bsp/\libucosii_bsp.a(alt_putchar.o)
                0x0080c18c                alt_putchar
 .text          0x0080c1cc      0x184 C:/Users/jchang3/Documents/ECE492/test/software/accelerometer_pen_bsp/\libucosii_bsp.a(alt_read.o)
                0x0080c1cc                read
 .text          0x0080c350       0x78 C:/Users/jchang3/Documents/ECE492/test/software/accelerometer_pen_bsp/\libucosii_bsp.a(alt_release_fd.o)
                0x0080c350                alt_release_fd
 .text          0x0080c3c8       0xbc C:/Users/jchang3/Documents/ECE492/test/software/accelerometer_pen_bsp/\libucosii_bsp.a(alt_sbrk.o)
                0x0080c3c8                sbrk
 .text          0x0080c484       0xf4 C:/Users/jchang3/Documents/ECE492/test/software/accelerometer_pen_bsp/\libucosii_bsp.a(alt_times.o)
                0x0080c484                times
 .text          0x0080c578      0x184 C:/Users/jchang3/Documents/ECE492/test/software/accelerometer_pen_bsp/\libucosii_bsp.a(alt_write.o)
                0x0080c578                write
 .text          0x0080c6fc      0x108 C:/Users/jchang3/Documents/ECE492/test/software/accelerometer_pen_bsp/\libucosii_bsp.a(alt_env_lock.o)
                0x0080c6fc                __env_lock
                0x0080c7a8                __env_unlock
 .text          0x0080c804      0x1d8 C:/Users/jchang3/Documents/ECE492/test/software/accelerometer_pen_bsp/\libucosii_bsp.a(alt_malloc_lock.o)
                0x0080c804                __malloc_lock
                0x0080c90c                __malloc_unlock
 .text          0x0080c9dc     0x2128 C:/Users/jchang3/Documents/ECE492/test/software/accelerometer_pen_bsp/\libucosii_bsp.a(os_core.o)
                0x0080c9dc                OSEventNameGet
                0x0080cb0c                OSEventNameSet
                0x0080cc50                OSEventPendMulti
                0x0080d304                OSInit
                0x0080d358                OSIntEnter
                0x0080d3d4                OSIntExit
                0x0080d4d4                OSSchedLock
                0x0080d560                OSSchedUnlock
                0x0080d644                OSStart
                0x0080d6b4                OSStatInit
                0x0080d760                OSTimeTick
                0x0080d9a0                OSVersion
                0x0080d9c0                OS_Dummy
                0x0080d9dc                OS_EventTaskRdy
                0x0080db70                OS_EventTaskWait
                0x0080dc80                OS_EventTaskWaitMulti
                0x0080ddd4                OS_EventTaskRemove
                0x0080de8c                OS_EventTaskRemoveMulti
                0x0080df90                OS_EventWaitListInit
                0x0080e35c                OS_MemClr
                0x0080e3b0                OS_MemCopy
                0x0080e41c                OS_Sched
                0x0080e560                OS_StrCopy
                0x0080e5e0                OS_StrLen
                0x0080e638                OS_TaskIdle
                0x0080e694                OS_TaskStat
                0x0080e75c                OS_TaskStatStkChk
                0x0080e824                OS_TCBInit
 .text          0x0080eb04      0x18c C:/Users/jchang3/Documents/ECE492/test/software/accelerometer_pen_bsp/\libucosii_bsp.a(os_dbg.o)
                0x0080eb04                OSDebugInit
 .text          0x0080ec90     0x193c C:/Users/jchang3/Documents/ECE492/test/software/accelerometer_pen_bsp/\libucosii_bsp.a(os_flag.o)
                0x0080ec90                OSFlagAccept
                0x0080efc4                OSFlagCreate
                0x0080f100                OSFlagDel
                0x0080f3a8                OSFlagNameGet
                0x0080f4ec                OSFlagNameSet
                0x0080f640                OSFlagPend
                0x0080fc84                OSFlagPendGetFlagsRdy
                0x0080fcec                OSFlagPost
                0x00810094                OSFlagQuery
                0x0081032c                OS_FlagInit
                0x00810520                OS_FlagUnlink
 .text          0x008105cc      0x80c C:/Users/jchang3/Documents/ECE492/test/software/accelerometer_pen_bsp/\libucosii_bsp.a(os_mem.o)
                0x008105cc                OSMemCreate
                0x008107e8                OSMemGet
                0x008108ec                OSMemNameGet
                0x008109f8                OSMemNameSet
                0x00810b18                OSMemPut
                0x00810c08                OSMemQuery
                0x00810d04                OS_MemInit
 .text          0x00810dd8     0x1334 C:/Users/jchang3/Documents/ECE492/test/software/accelerometer_pen_bsp/\libucosii_bsp.a(os_q.o)
                0x00810dd8                OSQAccept
                0x00810f2c                OSQCreate
                0x00811140                OSQDel
                0x00811440                OSQFlush
                0x00811508                OSQPend
                0x00811828                OSQPendAbort
                0x008119a4                OSQPost
                0x00811b24                OSQPostFront
                0x00811cac                OSQPostOpt
                0x00811ee0                OSQQuery
                0x00812060                OS_QInit
 .text          0x0081210c      0xbc8 C:/Users/jchang3/Documents/ECE492/test/software/accelerometer_pen_bsp/\libucosii_bsp.a(os_sem.o)
                0x0081210c                OSSemAccept
                0x008121cc                OSSemCreate
                0x008122e0                OSSemDel
                0x00812580                OSSemPend
                0x008127fc                OSSemPendAbort
                0x00812978                OSSemPost
                0x00812aa0                OSSemQuery
                0x00812bd0                OSSemSet
 .text          0x00812cd4     0x1a40 C:/Users/jchang3/Documents/ECE492/test/software/accelerometer_pen_bsp/\libucosii_bsp.a(os_task.o)
                0x00812cd4                OSTaskChangePrio
                0x00813248                OSTaskCreate
                0x0081341c                OSTaskCreateExt
                0x0081361c                OSTaskDel
                0x00813a28                OSTaskDelReq
                0x00813b98                OSTaskNameGet
                0x00813d50                OSTaskNameSet
                0x00813f14                OSTaskResume
                0x0081412c                OSTaskStkChk
                0x00814328                OSTaskSuspend
                0x00814554                OSTaskQuery
                0x00814698                OS_TaskStkClr
 .text          0x00814714      0x5b4 C:/Users/jchang3/Documents/ECE492/test/software/accelerometer_pen_bsp/\libucosii_bsp.a(os_time.o)
                0x00814714                OSTimeDly
                0x00814860                OSTimeDlyHMSM
                0x008149f0                OSTimeDlyResume
                0x00814c00                OSTimeGet
                0x00814c64                OSTimeSet
 .text          0x00814cc8       0xf8 C:/Users/jchang3/Documents/ECE492/test/software/accelerometer_pen_bsp/\libucosii_bsp.a(alt_sys_init.o)
                0x00814cc8                alt_irq_init
                0x00814cfc                alt_sys_init
 .text          0x00814dc0      0x148 C:/Users/jchang3/Documents/ECE492/test/software/accelerometer_pen_bsp/\libucosii_bsp.a(altera_avalon_jtag_uart_fd.o)
                0x00814dc0                altera_avalon_jtag_uart_read_fd
                0x00814e18                altera_avalon_jtag_uart_write_fd
                0x00814e70                altera_avalon_jtag_uart_close_fd
                0x00814eb8                altera_avalon_jtag_uart_ioctl_fd
 .text          0x00814f08      0x580 C:/Users/jchang3/Documents/ECE492/test/software/accelerometer_pen_bsp/\libucosii_bsp.a(altera_avalon_jtag_uart_init.o)
                0x00814f08                altera_avalon_jtag_uart_init
                0x00815414                altera_avalon_jtag_uart_close
 .text          0x00815488       0xf4 C:/Users/jchang3/Documents/ECE492/test/software/accelerometer_pen_bsp/\libucosii_bsp.a(altera_avalon_jtag_uart_ioctl.o)
                0x00815488                altera_avalon_jtag_uart_ioctl
 .text          0x0081557c      0x2c0 C:/Users/jchang3/Documents/ECE492/test/software/accelerometer_pen_bsp/\libucosii_bsp.a(altera_avalon_jtag_uart_read.o)
                0x0081557c                altera_avalon_jtag_uart_read
 .text          0x0081583c      0x2dc C:/Users/jchang3/Documents/ECE492/test/software/accelerometer_pen_bsp/\libucosii_bsp.a(altera_avalon_jtag_uart_write.o)
                0x0081583c                altera_avalon_jtag_uart_write
 .text          0x00815b18       0xfc C:/Users/jchang3/Documents/ECE492/test/software/accelerometer_pen_bsp/\libucosii_bsp.a(altera_avalon_timer_sc.o)
                0x00815b8c                alt_avalon_timer_sc_init
 .text          0x00815c14      0x530 C:/Users/jchang3/Documents/ECE492/test/software/accelerometer_pen_bsp/\libucosii_bsp.a(altera_up_avalon_character_lcd.o)
                0x00815c14                get_DDRAM_addr
                0x00815c90                alt_up_character_lcd_send_cmd
                0x00815cc4                alt_up_character_lcd_init
                0x00815cf8                alt_up_character_lcd_open_dev
                0x00815d38                alt_up_character_lcd_write
                0x00815db0                alt_up_character_lcd_string
                0x00815e28                alt_up_character_lcd_write_fd
                0x00815e74                alt_up_character_lcd_set_cursor_pos
                0x00815eec                alt_up_character_lcd_shift_cursor
                0x00815f9c                alt_up_character_lcd_shift_display
                0x0081604c                alt_up_character_lcd_erase_pos
                0x008160dc                alt_up_character_lcd_cursor_off
                0x00816110                alt_up_character_lcd_cursor_blink_on
 .text          0x00816144      0x398 C:/Users/jchang3/Documents/ECE492/test/software/accelerometer_pen_bsp/\libucosii_bsp.a(altera_up_avalon_rs232.o)
                0x00816144                alt_up_rs232_enable_read_interrupt
                0x00816198                alt_up_rs232_disable_read_interrupt
                0x008161f0                alt_up_rs232_get_used_space_in_read_FIFO
                0x0081622c                alt_up_rs232_get_available_space_in_write_FIFO
                0x0081626c                alt_up_rs232_check_parity
                0x008162bc                alt_up_rs232_write_data
                0x00816304                alt_up_rs232_read_data
                0x00816378                alt_up_rs232_read_fd
                0x00816408                alt_up_rs232_write_fd
                0x0081649c                alt_up_rs232_open_dev
 .text          0x008164dc     0x4440 C:/Users/jchang3/Documents/ECE492/test/software/accelerometer_pen_bsp/\libucosii_bsp.a(altera_up_sd_card_avalon_interface.o)
                0x008164dc                Write_Sector_Data
                0x008165a4                Save_Modified_Sector
                0x008165f4                Read_Sector_Data
                0x008166f0                get_cluster_flag
                0x008167a8                mark_cluster
                0x0081688c                Check_for_Master_Boot_Record
                0x00816a3c                Read_File_Record_At_Offset
                0x00816cc0                Write_File_Record_At_Offset
                0x00816f78                Check_for_DOS_FAT
                0x008175c0                Look_for_FAT16
                0x008176b8                filename_to_upper_case
                0x00817788                check_file_name_for_FAT16_compliance
                0x00817a18                get_dir_divider_location
                0x00817ad8                match_file_record_to_name_ext
                0x00817dc4                get_home_directory_cluster_for_file
                0x008182d8                find_file_in_directory
                0x0081873c                find_first_empty_cluster
                0x008188e0                find_first_empty_record_in_a_subdirectory
                0x00818b2c                find_first_empty_record_in_root_directory
                0x00818c58                convert_filename_to_name_extension
                0x00818e10                create_file
                0x008190ec                copy_file_record_name_to_string
                0x00819240                alt_up_sd_card_open_dev
                0x00819304                alt_up_sd_card_is_Present
                0x008193cc                alt_up_sd_card_is_FAT16
                0x00819440                alt_up_sd_card_find_first
                0x00819514                alt_up_sd_card_find_next
                0x008198c4                alt_up_sd_card_fopen
                0x00819c6c                alt_up_sd_card_set_attributes
                0x00819cfc                alt_up_sd_card_get_attributes
                0x00819d88                alt_up_sd_card_read
                0x0081a124                alt_up_sd_card_write
                0x0081a748                alt_up_sd_card_fclose
 .text          0x0081a91c      0x154 C:/Users/jchang3/Documents/ECE492/test/software/accelerometer_pen_bsp/\libucosii_bsp.a(alt_alarm_start.o)
                0x0081a91c                alt_alarm_start
 .text          0x0081aa70       0x1c C:/Users/jchang3/Documents/ECE492/test/software/accelerometer_pen_bsp/\libucosii_bsp.a(alt_dcache_flush_all.o)
                0x0081aa70                alt_dcache_flush_all
 .text          0x0081aa8c      0x114 C:/Users/jchang3/Documents/ECE492/test/software/accelerometer_pen_bsp/\libucosii_bsp.a(alt_dev_llist_insert.o)
                0x0081aa8c                alt_dev_llist_insert
 .text          0x0081aba0       0x64 C:/Users/jchang3/Documents/ECE492/test/software/accelerometer_pen_bsp/\libucosii_bsp.a(alt_do_ctors.o)
                0x0081aba0                _do_ctors
 .text          0x0081ac04       0x64 C:/Users/jchang3/Documents/ECE492/test/software/accelerometer_pen_bsp/\libucosii_bsp.a(alt_do_dtors.o)
                0x0081ac04                _do_dtors
 .text          0x0081ac68       0x94 C:/Users/jchang3/Documents/ECE492/test/software/accelerometer_pen_bsp/\libucosii_bsp.a(alt_find_dev.o)
                0x0081ac68                alt_find_dev
 .text          0x0081acfc       0x1c C:/Users/jchang3/Documents/ECE492/test/software/accelerometer_pen_bsp/\libucosii_bsp.a(alt_icache_flush_all.o)
                0x0081acfc                alt_icache_flush_all
 .text          0x0081ad18      0x150 C:/Users/jchang3/Documents/ECE492/test/software/accelerometer_pen_bsp/\libucosii_bsp.a(alt_io_redirect.o)
                0x0081adf0                alt_io_redirect
 .text          0x0081ae68      0x1c0 C:/Users/jchang3/Documents/ECE492/test/software/accelerometer_pen_bsp/\libucosii_bsp.a(alt_irq_register.o)
                0x0081ae68                alt_irq_register
 .text          0x0081b028        0x0 C:/Users/jchang3/Documents/ECE492/test/software/accelerometer_pen_bsp/\libucosii_bsp.a(alt_irq_vars.o)
 .text          0x0081b028      0x2e4 C:/Users/jchang3/Documents/ECE492/test/software/accelerometer_pen_bsp/\libucosii_bsp.a(alt_open.o)
                0x0081b120                open
 .text          0x0081b30c      0x1a8 C:/Users/jchang3/Documents/ECE492/test/software/accelerometer_pen_bsp/\libucosii_bsp.a(alt_tick.o)
                0x0081b30c                alt_alarm_stop
                0x0081b3a4                alt_tick
 .text          0x0081b4b4       0x20 C:/Users/jchang3/Documents/ECE492/test/software/accelerometer_pen_bsp/\libucosii_bsp.a(altera_nios2_qsys_irq.o)
                0x0081b4b4                altera_nios2_qsys_irq_init
 .text          0x0081b4d4       0xd0 C:/Users/jchang3/Documents/ECE492/test/software/accelerometer_pen_bsp/\libucosii_bsp.a(os_cpu_a.o)
                0x0081b4d4                OSCtxSw
                0x0081b4d4                OSIntCtxSw
                0x0081b560                OSStartHighRdy
                0x0081b580                OSStartTsk
 .text          0x0081b5a4      0x418 C:/Users/jchang3/Documents/ECE492/test/software/accelerometer_pen_bsp/\libucosii_bsp.a(os_cpu_c.o)
                0x0081b5a4                OSTaskStkInit
                0x0081b8b4                OSTaskCreateHook
                0x0081b8d4                OSTaskDelHook
                0x0081b8f4                OSTaskSwHook
                0x0081b910                OSTaskStatHook
                0x0081b92c                OSTimeTickHook
                0x0081b948                OSInitHookBegin
                0x0081b964                OSInitHookEnd
                0x0081b980                OSTaskIdleHook
                0x0081b99c                OSTCBInitHook
 .text          0x0081b9bc      0x120 C:/Users/jchang3/Documents/ECE492/test/software/accelerometer_pen_bsp/\libucosii_bsp.a(alt_find_file.o)
                0x0081b9bc                alt_find_file
 .text          0x0081badc      0x104 C:/Users/jchang3/Documents/ECE492/test/software/accelerometer_pen_bsp/\libucosii_bsp.a(alt_get_fd.o)
                0x0081badc                alt_get_fd
 .text          0x0081bbe0        0x0 C:/Users/jchang3/Documents/ECE492/test/software/accelerometer_pen_bsp/\libucosii_bsp.a(alt_irq_entry.o)
 .text          0x0081bbe0        0x0 C:/Users/jchang3/Documents/ECE492/test/software/accelerometer_pen_bsp/\libucosii_bsp.a(alt_irq_handler.o)
 .text          0x0081bbe0        0x0 C:/Users/jchang3/Documents/ECE492/test/software/accelerometer_pen_bsp/\libucosii_bsp.a(alt_exception_entry.o)
 .text          0x0081bbe0       0x14 c:/altera/12.1sp1/nios2eds/bin/gnu/h-i686-mingw32/bin/../lib/gcc/nios2-elf/4.1.2/../../../../nios2-elf/lib/mno-hw-mul\libc.a(lib_a-atexit.o)
                0x0081bbe0                atexit
 .text          0x0081bbf4       0x38 c:/altera/12.1sp1/nios2eds/bin/gnu/h-i686-mingw32/bin/../lib/gcc/nios2-elf/4.1.2/../../../../nios2-elf/lib/mno-hw-mul\libc.a(lib_a-exit.o)
                0x0081bbf4                exit
 .text          0x0081bc2c       0x74 c:/altera/12.1sp1/nios2eds/bin/gnu/h-i686-mingw32/bin/../lib/gcc/nios2-elf/4.1.2/../../../../nios2-elf/lib/mno-hw-mul\libc.a(lib_a-memcmp.o)
                0x0081bc2c                memcmp
 .text          0x0081bca0      0x1ec c:/altera/12.1sp1/nios2eds/bin/gnu/h-i686-mingw32/bin/../lib/gcc/nios2-elf/4.1.2/../../../../nios2-elf/lib/mno-hw-mul\libc.a(lib_a-putc.o)
                0x0081bca0                putc
                0x0081bda4                _putc_r
 .text          0x0081be8c      0x14c c:/altera/12.1sp1/nios2eds/bin/gnu/h-i686-mingw32/bin/../lib/gcc/nios2-elf/4.1.2/../../../../nios2-elf/lib/mno-hw-mul\libc.a(lib_a-wbuf.o)
                0x0081be8c                __swbuf_r
                0x0081bfbc                __swbuf
 .text          0x0081bfd8      0x134 c:/altera/12.1sp1/nios2eds/bin/gnu/h-i686-mingw32/bin/../lib/gcc/nios2-elf/4.1.2/../../../../nios2-elf/lib/mno-hw-mul\libc.a(lib_a-__atexit.o)
                0x0081bfd8                __register_exitproc
 .text          0x0081c10c      0x1b4 c:/altera/12.1sp1/nios2eds/bin/gnu/h-i686-mingw32/bin/../lib/gcc/nios2-elf/4.1.2/../../../../nios2-elf/lib/mno-hw-mul\libc.a(lib_a-__call_atexit.o)
                0x0081c110                __call_exitprocs
 .text          0x0081c2c0       0x6c C:/Users/jchang3/Documents/ECE492/test/software/accelerometer_pen_bsp/\libucosii_bsp.a(alt_exit.o)
                0x0081c300                _exit
 *(.gnu.warning.*)
 *(.fini)
                0x0081c32c                PROVIDE (__etext, ABSOLUTE (.))
                0x0081c32c                PROVIDE (_etext, ABSOLUTE (.))
                0x0081c32c                PROVIDE (etext, ABSOLUTE (.))
 *(.eh_frame_hdr)
                0x0081c32c                . = ALIGN (0x4)
                0x0081c32c                PROVIDE (__preinit_array_start, ABSOLUTE (.))
 *(.preinit_array)
                0x0081c32c                PROVIDE (__preinit_array_end, ABSOLUTE (.))
                0x0081c32c                PROVIDE (__init_array_start, ABSOLUTE (.))
 *(.init_array)
                0x0081c32c                PROVIDE (__init_array_end, ABSOLUTE (.))
                0x0081c32c                PROVIDE (__fini_array_start, ABSOLUTE (.))
 *(.fini_array)
                0x0081c32c                PROVIDE (__fini_array_end, ABSOLUTE (.))
 *(.eh_frame)
 *(.gcc_except_table)
 *(.dynamic)
                0x0081c32c                PROVIDE (__CTOR_LIST__, ABSOLUTE (.))
 *(.ctors)
 *(SORT(.ctors.*))
 .ctors.65535   0x0081c32c        0x4 c:/altera/12.1sp1/nios2eds/bin/gnu/h-i686-mingw32/bin/../lib/gcc/nios2-elf/4.1.2/../../../../nios2-elf/lib/mno-hw-mul\libc.a(lib_a-__call_atexit.o)
                0x0081c330                PROVIDE (__CTOR_END__, ABSOLUTE (.))
                0x0081c330                PROVIDE (__DTOR_LIST__, ABSOLUTE (.))
 *(.dtors)
 *(SORT(.dtors.*))
                0x0081c330                PROVIDE (__DTOR_END__, ABSOLUTE (.))
 *(.jcr)
                0x0081c330                . = ALIGN (0x4)

.rodata         0x0081c330      0x7c8
                0x0081c330                PROVIDE (__ram_rodata_start, ABSOLUTE (.))
                0x0081c330                . = ALIGN (0x4)
 *(.rodata .rodata.* .gnu.linkonce.r.*)
 .rodata        0x0081c330      0x2fc obj/default/hello_ucosii.o
 .rodata        0x0081c62c       0x10 c:/altera/12.1sp1/nios2eds/bin/gnu/h-i686-mingw32/bin/../lib/gcc/nios2-elf/4.1.2/mno-hw-mul\libgcc.a(_thenan_sf.o)
                0x0081c62c                __thenan_sf
 .rodata        0x0081c63c       0x14 c:/altera/12.1sp1/nios2eds/bin/gnu/h-i686-mingw32/bin/../lib/gcc/nios2-elf/4.1.2/mno-hw-mul\libgcc.a(_thenan_df.o)
                0x0081c63c                __thenan_df
 .rodata        0x0081c650      0x100 c:/altera/12.1sp1/nios2eds/bin/gnu/h-i686-mingw32/bin/../lib/gcc/nios2-elf/4.1.2/mno-hw-mul\libgcc.a(_clz.o)
                0x0081c650                __clz_tab
 .rodata.str1.4
                0x0081c750        0x2 c:/altera/12.1sp1/nios2eds/bin/gnu/h-i686-mingw32/bin/../lib/gcc/nios2-elf/4.1.2/../../../../nios2-elf/lib/mno-hw-mul\libc.a(lib_a-impure.o)
                                  0x4 (size before relaxing)
 *fill*         0x0081c752        0x2 00
 .rodata.str1.4
                0x0081c754        0x2 c:/altera/12.1sp1/nios2eds/bin/gnu/h-i686-mingw32/bin/../lib/gcc/nios2-elf/4.1.2/../../../../nios2-elf/lib/mno-hw-mul\libc.a(lib_a-puts.o)
                                  0x4 (size before relaxing)
 *fill*         0x0081c756        0x2 00
 .rodata.str1.4
                0x0081c758       0x5e c:/altera/12.1sp1/nios2eds/bin/gnu/h-i686-mingw32/bin/../lib/gcc/nios2-elf/4.1.2/../../../../nios2-elf/lib/mno-hw-mul\libc.a(lib_a-vfprintf.o)
                                 0x60 (size before relaxing)
 .rodata        0x0081c7b6       0x20 c:/altera/12.1sp1/nios2eds/bin/gnu/h-i686-mingw32/bin/../lib/gcc/nios2-elf/4.1.2/../../../../nios2-elf/lib/mno-hw-mul\libc.a(lib_a-vfprintf.o)
 *fill*         0x0081c7d6        0x2 00
 .rodata.str1.4
                0x0081c7d8       0x10 c:/altera/12.1sp1/nios2eds/bin/gnu/h-i686-mingw32/bin/../lib/gcc/nios2-elf/4.1.2/../../../../nios2-elf/lib/mno-hw-mul\libc.a(lib_a-dtoa.o)
                                 0x14 (size before relaxing)
 .rodata.str1.4
                0x0081c7e8       0x10 c:/altera/12.1sp1/nios2eds/bin/gnu/h-i686-mingw32/bin/../lib/gcc/nios2-elf/4.1.2/../../../../nios2-elf/lib/mno-hw-mul\libc.a(lib_a-locale.o)
                                 0x18 (size before relaxing)
 .rodata        0x0081c7f8       0x30 c:/altera/12.1sp1/nios2eds/bin/gnu/h-i686-mingw32/bin/../lib/gcc/nios2-elf/4.1.2/../../../../nios2-elf/lib/mno-hw-mul\libc.a(lib_a-locale.o)
 .rodata        0x0081c828      0x124 c:/altera/12.1sp1/nios2eds/bin/gnu/h-i686-mingw32/bin/../lib/gcc/nios2-elf/4.1.2/../../../../nios2-elf/lib/mno-hw-mul\libc.a(lib_a-mprec.o)
                0x0081c828                __mprec_tens
                0x0081c8f0                __mprec_bigtens
                0x0081c918                __mprec_tinytens
 .rodata        0x0081c94c        0xc C:/Users/jchang3/Documents/ECE492/test/software/accelerometer_pen_bsp/\libucosii_bsp.a(alt_dev.o)
 .rodata        0x0081c958       0x14 C:/Users/jchang3/Documents/ECE492/test/software/accelerometer_pen_bsp/\libucosii_bsp.a(alt_main.o)
 .rodata        0x0081c96c      0x120 C:/Users/jchang3/Documents/ECE492/test/software/accelerometer_pen_bsp/\libucosii_bsp.a(os_core.o)
                0x0081c96c                OSUnMapTbl
 .rodata        0x0081ca8c       0x68 C:/Users/jchang3/Documents/ECE492/test/software/accelerometer_pen_bsp/\libucosii_bsp.a(alt_sys_init.o)
 .rodata        0x0081caf4        0x4 C:/Users/jchang3/Documents/ECE492/test/software/accelerometer_pen_bsp/\libucosii_bsp.a(os_cpu_c.o)
 *(.rodata1)
                0x0081caf8                . = ALIGN (0x4)
                0x0081caf8                PROVIDE (__ram_rodata_end, ABSOLUTE (.))
                0x0081c330                PROVIDE (__flash_rodata_start, LOADADDR (.rodata))

.rwdata         0x0081caf8     0x1b68 load address 0x0081e660
                0x0081caf8                PROVIDE (__ram_rwdata_start, ABSOLUTE (.))
                0x0081caf8                . = ALIGN (0x4)
 *(.got.plt)
 *(.got)
 *(.data1)
 *(.data .data.* .gnu.linkonce.d.*)
 .data          0x0081caf8        0x0 C:/Users/jchang3/Documents/ECE492/test/software/accelerometer_pen_bsp//obj/HAL/src/crt0.o
 .data          0x0081caf8        0x0 obj/default/dtw.o
 .data          0x0081caf8        0x0 obj/default/hello_ucosii.o
 .data          0x0081caf8        0x0 c:/altera/12.1sp1/nios2eds/bin/gnu/h-i686-mingw32/bin/../lib/gcc/nios2-elf/4.1.2/mno-hw-mul\libgcc.a(_div_sf.o)
 .data          0x0081caf8        0x0 c:/altera/12.1sp1/nios2eds/bin/gnu/h-i686-mingw32/bin/../lib/gcc/nios2-elf/4.1.2/mno-hw-mul\libgcc.a(_sf_to_df.o)
 .data          0x0081caf8        0x0 c:/altera/12.1sp1/nios2eds/bin/gnu/h-i686-mingw32/bin/../lib/gcc/nios2-elf/4.1.2/mno-hw-mul\libgcc.a(_thenan_sf.o)
 .data          0x0081caf8        0x0 c:/altera/12.1sp1/nios2eds/bin/gnu/h-i686-mingw32/bin/../lib/gcc/nios2-elf/4.1.2/mno-hw-mul\libgcc.a(_usi_to_sf.o)
 .data          0x0081caf8        0x0 c:/altera/12.1sp1/nios2eds/bin/gnu/h-i686-mingw32/bin/../lib/gcc/nios2-elf/4.1.2/mno-hw-mul\libgcc.a(_addsub_df.o)
 .data          0x0081caf8        0x0 c:/altera/12.1sp1/nios2eds/bin/gnu/h-i686-mingw32/bin/../lib/gcc/nios2-elf/4.1.2/mno-hw-mul\libgcc.a(_mul_df.o)
 .data          0x0081caf8        0x0 c:/altera/12.1sp1/nios2eds/bin/gnu/h-i686-mingw32/bin/../lib/gcc/nios2-elf/4.1.2/mno-hw-mul\libgcc.a(_si_to_df.o)
 .data          0x0081caf8        0x0 c:/altera/12.1sp1/nios2eds/bin/gnu/h-i686-mingw32/bin/../lib/gcc/nios2-elf/4.1.2/mno-hw-mul\libgcc.a(_df_to_si.o)
 .data          0x0081caf8        0x0 c:/altera/12.1sp1/nios2eds/bin/gnu/h-i686-mingw32/bin/../lib/gcc/nios2-elf/4.1.2/mno-hw-mul\libgcc.a(_make_df.o)
 .data          0x0081caf8        0x0 c:/altera/12.1sp1/nios2eds/bin/gnu/h-i686-mingw32/bin/../lib/gcc/nios2-elf/4.1.2/mno-hw-mul\libgcc.a(_thenan_df.o)
 .data          0x0081caf8        0x0 c:/altera/12.1sp1/nios2eds/bin/gnu/h-i686-mingw32/bin/../lib/gcc/nios2-elf/4.1.2/mno-hw-mul\libgcc.a(lib2-mul.o)
 .data          0x0081caf8        0x0 c:/altera/12.1sp1/nios2eds/bin/gnu/h-i686-mingw32/bin/../lib/gcc/nios2-elf/4.1.2/mno-hw-mul\libgcc.a(_muldi3.o)
 .data          0x0081caf8        0x0 c:/altera/12.1sp1/nios2eds/bin/gnu/h-i686-mingw32/bin/../lib/gcc/nios2-elf/4.1.2/mno-hw-mul\libgcc.a(_clzsi2.o)
 .data          0x0081caf8        0x0 c:/altera/12.1sp1/nios2eds/bin/gnu/h-i686-mingw32/bin/../lib/gcc/nios2-elf/4.1.2/mno-hw-mul\libgcc.a(_pack_sf.o)
 .data          0x0081caf8        0x0 c:/altera/12.1sp1/nios2eds/bin/gnu/h-i686-mingw32/bin/../lib/gcc/nios2-elf/4.1.2/mno-hw-mul\libgcc.a(_unpack_sf.o)
 .data          0x0081caf8        0x0 c:/altera/12.1sp1/nios2eds/bin/gnu/h-i686-mingw32/bin/../lib/gcc/nios2-elf/4.1.2/mno-hw-mul\libgcc.a(_pack_df.o)
 .data          0x0081caf8        0x0 c:/altera/12.1sp1/nios2eds/bin/gnu/h-i686-mingw32/bin/../lib/gcc/nios2-elf/4.1.2/mno-hw-mul\libgcc.a(_unpack_df.o)
 .data          0x0081caf8        0x0 c:/altera/12.1sp1/nios2eds/bin/gnu/h-i686-mingw32/bin/../lib/gcc/nios2-elf/4.1.2/mno-hw-mul\libgcc.a(_clz.o)
 .data          0x0081caf8        0x0 c:/altera/12.1sp1/nios2eds/bin/gnu/h-i686-mingw32/bin/../lib/gcc/nios2-elf/4.1.2/../../../../nios2-elf/lib/mno-hw-mul\libc.a(lib_a-calloc.o)
 .data          0x0081caf8        0x0 c:/altera/12.1sp1/nios2eds/bin/gnu/h-i686-mingw32/bin/../lib/gcc/nios2-elf/4.1.2/../../../../nios2-elf/lib/mno-hw-mul\libc.a(lib_a-callocr.o)
 .data          0x0081caf8        0x0 c:/altera/12.1sp1/nios2eds/bin/gnu/h-i686-mingw32/bin/../lib/gcc/nios2-elf/4.1.2/../../../../nios2-elf/lib/mno-hw-mul\libc.a(lib_a-clock.o)
 .data          0x0081caf8      0x400 c:/altera/12.1sp1/nios2eds/bin/gnu/h-i686-mingw32/bin/../lib/gcc/nios2-elf/4.1.2/../../../../nios2-elf/lib/mno-hw-mul\libc.a(lib_a-impure.o)
 .data          0x0081cef8      0x408 c:/altera/12.1sp1/nios2eds/bin/gnu/h-i686-mingw32/bin/../lib/gcc/nios2-elf/4.1.2/../../../../nios2-elf/lib/mno-hw-mul\libc.a(lib_a-mallocr.o)
                0x0081cef8                __malloc_av_
 .data          0x0081d300        0x0 c:/altera/12.1sp1/nios2eds/bin/gnu/h-i686-mingw32/bin/../lib/gcc/nios2-elf/4.1.2/../../../../nios2-elf/lib/mno-hw-mul\libc.a(lib_a-memset.o)
 .data          0x0081d300        0x0 c:/altera/12.1sp1/nios2eds/bin/gnu/h-i686-mingw32/bin/../lib/gcc/nios2-elf/4.1.2/../../../../nios2-elf/lib/mno-hw-mul\libc.a(lib_a-printf.o)
 .data          0x0081d300        0x0 c:/altera/12.1sp1/nios2eds/bin/gnu/h-i686-mingw32/bin/../lib/gcc/nios2-elf/4.1.2/../../../../nios2-elf/lib/mno-hw-mul\libc.a(lib_a-puts.o)
 .data          0x0081d300        0x0 c:/altera/12.1sp1/nios2eds/bin/gnu/h-i686-mingw32/bin/../lib/gcc/nios2-elf/4.1.2/../../../../nios2-elf/lib/mno-hw-mul\libc.a(lib_a-sbrkr.o)
 .data          0x0081d300        0x0 c:/altera/12.1sp1/nios2eds/bin/gnu/h-i686-mingw32/bin/../lib/gcc/nios2-elf/4.1.2/../../../../nios2-elf/lib/mno-hw-mul\libc.a(lib_a-strlen.o)
 .data          0x0081d300        0x0 c:/altera/12.1sp1/nios2eds/bin/gnu/h-i686-mingw32/bin/../lib/gcc/nios2-elf/4.1.2/../../../../nios2-elf/lib/mno-hw-mul\libc.a(lib_a-timesr.o)
 .data          0x0081d300        0x0 c:/altera/12.1sp1/nios2eds/bin/gnu/h-i686-mingw32/bin/../lib/gcc/nios2-elf/4.1.2/../../../../nios2-elf/lib/mno-hw-mul\libc.a(lib_a-vfprintf.o)
 .data          0x0081d300        0x0 c:/altera/12.1sp1/nios2eds/bin/gnu/h-i686-mingw32/bin/../lib/gcc/nios2-elf/4.1.2/../../../../nios2-elf/lib/mno-hw-mul\libc.a(lib_a-wsetup.o)
 .data          0x0081d300        0x0 c:/altera/12.1sp1/nios2eds/bin/gnu/h-i686-mingw32/bin/../lib/gcc/nios2-elf/4.1.2/../../../../nios2-elf/lib/mno-hw-mul\libc.a(lib_a-dtoa.o)
 .data          0x0081d300        0x0 c:/altera/12.1sp1/nios2eds/bin/gnu/h-i686-mingw32/bin/../lib/gcc/nios2-elf/4.1.2/../../../../nios2-elf/lib/mno-hw-mul\libc.a(lib_a-fflush.o)
 .data          0x0081d300        0x0 c:/altera/12.1sp1/nios2eds/bin/gnu/h-i686-mingw32/bin/../lib/gcc/nios2-elf/4.1.2/../../../../nios2-elf/lib/mno-hw-mul\libc.a(lib_a-findfp.o)
 .data          0x0081d300        0x0 c:/altera/12.1sp1/nios2eds/bin/gnu/h-i686-mingw32/bin/../lib/gcc/nios2-elf/4.1.2/../../../../nios2-elf/lib/mno-hw-mul\libc.a(lib_a-freer.o)
 .data          0x0081d300        0x0 c:/altera/12.1sp1/nios2eds/bin/gnu/h-i686-mingw32/bin/../lib/gcc/nios2-elf/4.1.2/../../../../nios2-elf/lib/mno-hw-mul\libc.a(lib_a-fvwrite.o)
 .data          0x0081d300        0x0 c:/altera/12.1sp1/nios2eds/bin/gnu/h-i686-mingw32/bin/../lib/gcc/nios2-elf/4.1.2/../../../../nios2-elf/lib/mno-hw-mul\libc.a(lib_a-fwalk.o)
 .data          0x0081d300        0x0 c:/altera/12.1sp1/nios2eds/bin/gnu/h-i686-mingw32/bin/../lib/gcc/nios2-elf/4.1.2/../../../../nios2-elf/lib/mno-hw-mul\libc.a(lib_a-int_errno.o)
 .data          0x0081d300        0xc c:/altera/12.1sp1/nios2eds/bin/gnu/h-i686-mingw32/bin/../lib/gcc/nios2-elf/4.1.2/../../../../nios2-elf/lib/mno-hw-mul\libc.a(lib_a-locale.o)
                0x0081d300                __lc_ctype
 .data          0x0081d30c        0x0 c:/altera/12.1sp1/nios2eds/bin/gnu/h-i686-mingw32/bin/../lib/gcc/nios2-elf/4.1.2/../../../../nios2-elf/lib/mno-hw-mul\libc.a(lib_a-makebuf.o)
 .data          0x0081d30c        0x0 c:/altera/12.1sp1/nios2eds/bin/gnu/h-i686-mingw32/bin/../lib/gcc/nios2-elf/4.1.2/../../../../nios2-elf/lib/mno-hw-mul\libc.a(lib_a-memchr.o)
 .data          0x0081d30c        0x0 c:/altera/12.1sp1/nios2eds/bin/gnu/h-i686-mingw32/bin/../lib/gcc/nios2-elf/4.1.2/../../../../nios2-elf/lib/mno-hw-mul\libc.a(lib_a-memcpy.o)
 .data          0x0081d30c        0x0 c:/altera/12.1sp1/nios2eds/bin/gnu/h-i686-mingw32/bin/../lib/gcc/nios2-elf/4.1.2/../../../../nios2-elf/lib/mno-hw-mul\libc.a(lib_a-memmove.o)
 .data          0x0081d30c        0x0 c:/altera/12.1sp1/nios2eds/bin/gnu/h-i686-mingw32/bin/../lib/gcc/nios2-elf/4.1.2/../../../../nios2-elf/lib/mno-hw-mul\libc.a(lib_a-mprec.o)
 .data          0x0081d30c        0x0 c:/altera/12.1sp1/nios2eds/bin/gnu/h-i686-mingw32/bin/../lib/gcc/nios2-elf/4.1.2/../../../../nios2-elf/lib/mno-hw-mul\libc.a(lib_a-reallocr.o)
 .data          0x0081d30c        0x0 c:/altera/12.1sp1/nios2eds/bin/gnu/h-i686-mingw32/bin/../lib/gcc/nios2-elf/4.1.2/../../../../nios2-elf/lib/mno-hw-mul\libc.a(lib_a-s_isinfd.o)
 .data          0x0081d30c        0x0 c:/altera/12.1sp1/nios2eds/bin/gnu/h-i686-mingw32/bin/../lib/gcc/nios2-elf/4.1.2/../../../../nios2-elf/lib/mno-hw-mul\libc.a(lib_a-s_isnand.o)
 .data          0x0081d30c        0x0 c:/altera/12.1sp1/nios2eds/bin/gnu/h-i686-mingw32/bin/../lib/gcc/nios2-elf/4.1.2/../../../../nios2-elf/lib/mno-hw-mul\libc.a(lib_a-stdio.o)
 .data          0x0081d30c        0x0 c:/altera/12.1sp1/nios2eds/bin/gnu/h-i686-mingw32/bin/../lib/gcc/nios2-elf/4.1.2/../../../../nios2-elf/lib/mno-hw-mul\libc.a(lib_a-strcmp.o)
 .data          0x0081d30c        0x0 c:/altera/12.1sp1/nios2eds/bin/gnu/h-i686-mingw32/bin/../lib/gcc/nios2-elf/4.1.2/../../../../nios2-elf/lib/mno-hw-mul\libc.a(lib_a-writer.o)
 .data          0x0081d30c        0x0 c:/altera/12.1sp1/nios2eds/bin/gnu/h-i686-mingw32/bin/../lib/gcc/nios2-elf/4.1.2/../../../../nios2-elf/lib/mno-hw-mul\libc.a(lib_a-closer.o)
 .data          0x0081d30c        0x0 c:/altera/12.1sp1/nios2eds/bin/gnu/h-i686-mingw32/bin/../lib/gcc/nios2-elf/4.1.2/../../../../nios2-elf/lib/mno-hw-mul\libc.a(lib_a-fclose.o)
 .data          0x0081d30c        0x0 c:/altera/12.1sp1/nios2eds/bin/gnu/h-i686-mingw32/bin/../lib/gcc/nios2-elf/4.1.2/../../../../nios2-elf/lib/mno-hw-mul\libc.a(lib_a-fstatr.o)
 .data          0x0081d30c        0x0 c:/altera/12.1sp1/nios2eds/bin/gnu/h-i686-mingw32/bin/../lib/gcc/nios2-elf/4.1.2/../../../../nios2-elf/lib/mno-hw-mul\libc.a(lib_a-isattyr.o)
 .data          0x0081d30c        0x0 c:/altera/12.1sp1/nios2eds/bin/gnu/h-i686-mingw32/bin/../lib/gcc/nios2-elf/4.1.2/../../../../nios2-elf/lib/mno-hw-mul\libc.a(lib_a-lseekr.o)
 .data          0x0081d30c        0x0 c:/altera/12.1sp1/nios2eds/bin/gnu/h-i686-mingw32/bin/../lib/gcc/nios2-elf/4.1.2/../../../../nios2-elf/lib/mno-hw-mul\libc.a(lib_a-readr.o)
 .data          0x0081d30c        0x0 c:/altera/12.1sp1/nios2eds/bin/gnu/h-i686-mingw32/bin/../lib/gcc/nios2-elf/4.1.2/mno-hw-mul\libgcc.a(_udivdi3.o)
 .data          0x0081d30c        0x0 c:/altera/12.1sp1/nios2eds/bin/gnu/h-i686-mingw32/bin/../lib/gcc/nios2-elf/4.1.2/mno-hw-mul\libgcc.a(_umoddi3.o)
 .data          0x0081d30c        0x0 c:/altera/12.1sp1/nios2eds/bin/gnu/h-i686-mingw32/bin/../lib/gcc/nios2-elf/4.1.2/mno-hw-mul\libgcc.a(_div_df.o)
 .data          0x0081d30c        0x0 c:/altera/12.1sp1/nios2eds/bin/gnu/h-i686-mingw32/bin/../lib/gcc/nios2-elf/4.1.2/mno-hw-mul\libgcc.a(_eq_df.o)
 .data          0x0081d30c        0x0 c:/altera/12.1sp1/nios2eds/bin/gnu/h-i686-mingw32/bin/../lib/gcc/nios2-elf/4.1.2/mno-hw-mul\libgcc.a(_ne_df.o)
 .data          0x0081d30c        0x0 c:/altera/12.1sp1/nios2eds/bin/gnu/h-i686-mingw32/bin/../lib/gcc/nios2-elf/4.1.2/mno-hw-mul\libgcc.a(_gt_df.o)
 .data          0x0081d30c        0x0 c:/altera/12.1sp1/nios2eds/bin/gnu/h-i686-mingw32/bin/../lib/gcc/nios2-elf/4.1.2/mno-hw-mul\libgcc.a(_ge_df.o)
 .data          0x0081d30c        0x0 c:/altera/12.1sp1/nios2eds/bin/gnu/h-i686-mingw32/bin/../lib/gcc/nios2-elf/4.1.2/mno-hw-mul\libgcc.a(_lt_df.o)
 .data          0x0081d30c        0x0 c:/altera/12.1sp1/nios2eds/bin/gnu/h-i686-mingw32/bin/../lib/gcc/nios2-elf/4.1.2/mno-hw-mul\libgcc.a(_usi_to_df.o)
 .data          0x0081d30c        0x0 c:/altera/12.1sp1/nios2eds/bin/gnu/h-i686-mingw32/bin/../lib/gcc/nios2-elf/4.1.2/mno-hw-mul\libgcc.a(lib2-divmod.o)
 .data          0x0081d30c        0x0 c:/altera/12.1sp1/nios2eds/bin/gnu/h-i686-mingw32/bin/../lib/gcc/nios2-elf/4.1.2/mno-hw-mul\libgcc.a(_fpcmp_parts_df.o)
 .data          0x0081d30c        0x0 C:/Users/jchang3/Documents/ECE492/test/software/accelerometer_pen_bsp/\libucosii_bsp.a(alt_close.o)
 .data          0x0081d30c      0x1a8 C:/Users/jchang3/Documents/ECE492/test/software/accelerometer_pen_bsp/\libucosii_bsp.a(alt_dev.o)
                0x0081d30c                alt_dev_null
                0x0081d334                alt_fd_list
 .data          0x0081d4b4        0x0 C:/Users/jchang3/Documents/ECE492/test/software/accelerometer_pen_bsp/\libucosii_bsp.a(alt_errno.o)
 .data          0x0081d4b4        0x0 C:/Users/jchang3/Documents/ECE492/test/software/accelerometer_pen_bsp/\libucosii_bsp.a(alt_fstat.o)
 .data          0x0081d4b4        0x0 C:/Users/jchang3/Documents/ECE492/test/software/accelerometer_pen_bsp/\libucosii_bsp.a(alt_isatty.o)
 .data          0x0081d4b4        0x0 C:/Users/jchang3/Documents/ECE492/test/software/accelerometer_pen_bsp/\libucosii_bsp.a(alt_load.o)
 .data          0x0081d4b4        0x0 C:/Users/jchang3/Documents/ECE492/test/software/accelerometer_pen_bsp/\libucosii_bsp.a(alt_lseek.o)
 .data          0x0081d4b4        0x0 C:/Users/jchang3/Documents/ECE492/test/software/accelerometer_pen_bsp/\libucosii_bsp.a(alt_main.o)
 .data          0x0081d4b4        0x0 C:/Users/jchang3/Documents/ECE492/test/software/accelerometer_pen_bsp/\libucosii_bsp.a(alt_printf.o)
 .data          0x0081d4b4        0x0 C:/Users/jchang3/Documents/ECE492/test/software/accelerometer_pen_bsp/\libucosii_bsp.a(alt_putchar.o)
 .data          0x0081d4b4        0x0 C:/Users/jchang3/Documents/ECE492/test/software/accelerometer_pen_bsp/\libucosii_bsp.a(alt_read.o)
 .data          0x0081d4b4        0x0 C:/Users/jchang3/Documents/ECE492/test/software/accelerometer_pen_bsp/\libucosii_bsp.a(alt_release_fd.o)
 .data          0x0081d4b4        0x0 C:/Users/jchang3/Documents/ECE492/test/software/accelerometer_pen_bsp/\libucosii_bsp.a(alt_sbrk.o)
 .data          0x0081d4b4        0x0 C:/Users/jchang3/Documents/ECE492/test/software/accelerometer_pen_bsp/\libucosii_bsp.a(alt_times.o)
 .data          0x0081d4b4        0x0 C:/Users/jchang3/Documents/ECE492/test/software/accelerometer_pen_bsp/\libucosii_bsp.a(alt_write.o)
 .data          0x0081d4b4        0x0 C:/Users/jchang3/Documents/ECE492/test/software/accelerometer_pen_bsp/\libucosii_bsp.a(alt_env_lock.o)
 .data          0x0081d4b4        0x0 C:/Users/jchang3/Documents/ECE492/test/software/accelerometer_pen_bsp/\libucosii_bsp.a(alt_malloc_lock.o)
 .data          0x0081d4b4        0x0 C:/Users/jchang3/Documents/ECE492/test/software/accelerometer_pen_bsp/\libucosii_bsp.a(os_core.o)
 .data          0x0081d4b4        0x0 C:/Users/jchang3/Documents/ECE492/test/software/accelerometer_pen_bsp/\libucosii_bsp.a(os_dbg.o)
 .data          0x0081d4b4        0x0 C:/Users/jchang3/Documents/ECE492/test/software/accelerometer_pen_bsp/\libucosii_bsp.a(os_flag.o)
 .data          0x0081d4b4        0x0 C:/Users/jchang3/Documents/ECE492/test/software/accelerometer_pen_bsp/\libucosii_bsp.a(os_mem.o)
 .data          0x0081d4b4        0x0 C:/Users/jchang3/Documents/ECE492/test/software/accelerometer_pen_bsp/\libucosii_bsp.a(os_q.o)
 .data          0x0081d4b4        0x0 C:/Users/jchang3/Documents/ECE492/test/software/accelerometer_pen_bsp/\libucosii_bsp.a(os_sem.o)
 .data          0x0081d4b4        0x0 C:/Users/jchang3/Documents/ECE492/test/software/accelerometer_pen_bsp/\libucosii_bsp.a(os_task.o)
 .data          0x0081d4b4        0x0 C:/Users/jchang3/Documents/ECE492/test/software/accelerometer_pen_bsp/\libucosii_bsp.a(os_time.o)
 .data          0x0081d4b4     0x10f0 C:/Users/jchang3/Documents/ECE492/test/software/accelerometer_pen_bsp/\libucosii_bsp.a(alt_sys_init.o)
 .data          0x0081e5a4        0x0 C:/Users/jchang3/Documents/ECE492/test/software/accelerometer_pen_bsp/\libucosii_bsp.a(altera_avalon_jtag_uart_fd.o)
 .data          0x0081e5a4        0x0 C:/Users/jchang3/Documents/ECE492/test/software/accelerometer_pen_bsp/\libucosii_bsp.a(altera_avalon_jtag_uart_init.o)
 .data          0x0081e5a4        0x0 C:/Users/jchang3/Documents/ECE492/test/software/accelerometer_pen_bsp/\libucosii_bsp.a(altera_avalon_jtag_uart_ioctl.o)
 .data          0x0081e5a4        0x0 C:/Users/jchang3/Documents/ECE492/test/software/accelerometer_pen_bsp/\libucosii_bsp.a(altera_avalon_jtag_uart_read.o)
 .data          0x0081e5a4        0x0 C:/Users/jchang3/Documents/ECE492/test/software/accelerometer_pen_bsp/\libucosii_bsp.a(altera_avalon_jtag_uart_write.o)
 .data          0x0081e5a4        0x0 C:/Users/jchang3/Documents/ECE492/test/software/accelerometer_pen_bsp/\libucosii_bsp.a(altera_avalon_timer_sc.o)
 .data          0x0081e5a4        0x0 C:/Users/jchang3/Documents/ECE492/test/software/accelerometer_pen_bsp/\libucosii_bsp.a(altera_up_avalon_character_lcd.o)
 .data          0x0081e5a4        0x0 C:/Users/jchang3/Documents/ECE492/test/software/accelerometer_pen_bsp/\libucosii_bsp.a(altera_up_avalon_rs232.o)
 .data          0x0081e5a4        0x0 C:/Users/jchang3/Documents/ECE492/test/software/accelerometer_pen_bsp/\libucosii_bsp.a(altera_up_sd_card_avalon_interface.o)
 .data          0x0081e5a4        0x0 C:/Users/jchang3/Documents/ECE492/test/software/accelerometer_pen_bsp/\libucosii_bsp.a(alt_alarm_start.o)
 .data          0x0081e5a4        0x0 C:/Users/jchang3/Documents/ECE492/test/software/accelerometer_pen_bsp/\libucosii_bsp.a(alt_dcache_flush_all.o)
 .data          0x0081e5a4        0x0 C:/Users/jchang3/Documents/ECE492/test/software/accelerometer_pen_bsp/\libucosii_bsp.a(alt_dev_llist_insert.o)
 .data          0x0081e5a4        0x0 C:/Users/jchang3/Documents/ECE492/test/software/accelerometer_pen_bsp/\libucosii_bsp.a(alt_do_ctors.o)
 .data          0x0081e5a4        0x0 C:/Users/jchang3/Documents/ECE492/test/software/accelerometer_pen_bsp/\libucosii_bsp.a(alt_do_dtors.o)
 .data          0x0081e5a4        0x0 C:/Users/jchang3/Documents/ECE492/test/software/accelerometer_pen_bsp/\libucosii_bsp.a(alt_find_dev.o)
 .data          0x0081e5a4        0x0 C:/Users/jchang3/Documents/ECE492/test/software/accelerometer_pen_bsp/\libucosii_bsp.a(alt_icache_flush_all.o)
 .data          0x0081e5a4        0x0 C:/Users/jchang3/Documents/ECE492/test/software/accelerometer_pen_bsp/\libucosii_bsp.a(alt_io_redirect.o)
 .data          0x0081e5a4        0x0 C:/Users/jchang3/Documents/ECE492/test/software/accelerometer_pen_bsp/\libucosii_bsp.a(alt_irq_register.o)
 .data          0x0081e5a4        0x0 C:/Users/jchang3/Documents/ECE492/test/software/accelerometer_pen_bsp/\libucosii_bsp.a(alt_irq_vars.o)
 .data          0x0081e5a4        0x0 C:/Users/jchang3/Documents/ECE492/test/software/accelerometer_pen_bsp/\libucosii_bsp.a(alt_open.o)
 .data          0x0081e5a4        0x0 C:/Users/jchang3/Documents/ECE492/test/software/accelerometer_pen_bsp/\libucosii_bsp.a(alt_tick.o)
 .data          0x0081e5a4        0x0 C:/Users/jchang3/Documents/ECE492/test/software/accelerometer_pen_bsp/\libucosii_bsp.a(altera_nios2_qsys_irq.o)
 .data          0x0081e5a4        0x0 C:/Users/jchang3/Documents/ECE492/test/software/accelerometer_pen_bsp/\libucosii_bsp.a(os_cpu_a.o)
 .data          0x0081e5a4        0x0 C:/Users/jchang3/Documents/ECE492/test/software/accelerometer_pen_bsp/\libucosii_bsp.a(os_cpu_c.o)
 .data          0x0081e5a4        0x0 C:/Users/jchang3/Documents/ECE492/test/software/accelerometer_pen_bsp/\libucosii_bsp.a(alt_find_file.o)
 .data          0x0081e5a4        0x0 C:/Users/jchang3/Documents/ECE492/test/software/accelerometer_pen_bsp/\libucosii_bsp.a(alt_get_fd.o)
 .data          0x0081e5a4        0x0 C:/Users/jchang3/Documents/ECE492/test/software/accelerometer_pen_bsp/\libucosii_bsp.a(alt_irq_entry.o)
 .data          0x0081e5a4        0x0 C:/Users/jchang3/Documents/ECE492/test/software/accelerometer_pen_bsp/\libucosii_bsp.a(alt_irq_handler.o)
 .data          0x0081e5a4        0x0 C:/Users/jchang3/Documents/ECE492/test/software/accelerometer_pen_bsp/\libucosii_bsp.a(alt_exception_entry.o)
 .data          0x0081e5a4        0x0 c:/altera/12.1sp1/nios2eds/bin/gnu/h-i686-mingw32/bin/../lib/gcc/nios2-elf/4.1.2/../../../../nios2-elf/lib/mno-hw-mul\libc.a(lib_a-atexit.o)
 .data          0x0081e5a4        0x0 c:/altera/12.1sp1/nios2eds/bin/gnu/h-i686-mingw32/bin/../lib/gcc/nios2-elf/4.1.2/../../../../nios2-elf/lib/mno-hw-mul\libc.a(lib_a-exit.o)
 .data          0x0081e5a4        0x0 c:/altera/12.1sp1/nios2eds/bin/gnu/h-i686-mingw32/bin/../lib/gcc/nios2-elf/4.1.2/../../../../nios2-elf/lib/mno-hw-mul\libc.a(lib_a-memcmp.o)
 .data          0x0081e5a4        0x0 c:/altera/12.1sp1/nios2eds/bin/gnu/h-i686-mingw32/bin/../lib/gcc/nios2-elf/4.1.2/../../../../nios2-elf/lib/mno-hw-mul\libc.a(lib_a-putc.o)
 .data          0x0081e5a4        0x0 c:/altera/12.1sp1/nios2eds/bin/gnu/h-i686-mingw32/bin/../lib/gcc/nios2-elf/4.1.2/../../../../nios2-elf/lib/mno-hw-mul\libc.a(lib_a-wbuf.o)
 .data          0x0081e5a4        0x0 c:/altera/12.1sp1/nios2eds/bin/gnu/h-i686-mingw32/bin/../lib/gcc/nios2-elf/4.1.2/../../../../nios2-elf/lib/mno-hw-mul\libc.a(lib_a-__atexit.o)
 .data          0x0081e5a4        0x0 c:/altera/12.1sp1/nios2eds/bin/gnu/h-i686-mingw32/bin/../lib/gcc/nios2-elf/4.1.2/../../../../nios2-elf/lib/mno-hw-mul\libc.a(lib_a-__call_atexit.o)
 .data          0x0081e5a4        0x0 C:/Users/jchang3/Documents/ECE492/test/software/accelerometer_pen_bsp/\libucosii_bsp.a(alt_exit.o)
                0x008265a4                _gp = ABSOLUTE ((. + 0x8000))
                0x008265a4                PROVIDE (gp, _gp)
 *(.rwdata .rwdata.*)
 *(.sdata .sdata.* .gnu.linkonce.s.*)
 .sdata         0x0081e5a4        0x8 c:/altera/12.1sp1/nios2eds/bin/gnu/h-i686-mingw32/bin/../lib/gcc/nios2-elf/4.1.2/../../../../nios2-elf/lib/mno-hw-mul\libc.a(lib_a-impure.o)
                0x0081e5a4                _impure_ptr
                0x0081e5a8                _global_impure_ptr
 .sdata         0x0081e5ac        0x8 c:/altera/12.1sp1/nios2eds/bin/gnu/h-i686-mingw32/bin/../lib/gcc/nios2-elf/4.1.2/../../../../nios2-elf/lib/mno-hw-mul\libc.a(lib_a-mallocr.o)
                0x0081e5ac                __malloc_trim_threshold
                0x0081e5b0                __malloc_sbrk_base
 .sdata         0x0081e5b4        0x8 c:/altera/12.1sp1/nios2eds/bin/gnu/h-i686-mingw32/bin/../lib/gcc/nios2-elf/4.1.2/../../../../nios2-elf/lib/mno-hw-mul\libc.a(lib_a-locale.o)
                0x0081e5b4                __mb_cur_max
 .sdata         0x0081e5bc       0x14 C:/Users/jchang3/Documents/ECE492/test/software/accelerometer_pen_bsp/\libucosii_bsp.a(alt_dev.o)
                0x0081e5bc                alt_fs_list
                0x0081e5c4                alt_dev_list
                0x0081e5cc                alt_max_fd
 .sdata         0x0081e5d0        0x4 C:/Users/jchang3/Documents/ECE492/test/software/accelerometer_pen_bsp/\libucosii_bsp.a(alt_errno.o)
                0x0081e5d0                alt_errno
 .sdata         0x0081e5d4        0x4 C:/Users/jchang3/Documents/ECE492/test/software/accelerometer_pen_bsp/\libucosii_bsp.a(alt_sbrk.o)
 .sdata         0x0081e5d8        0x4 C:/Users/jchang3/Documents/ECE492/test/software/accelerometer_pen_bsp/\libucosii_bsp.a(alt_env_lock.o)
 .sdata         0x0081e5dc        0x4 C:/Users/jchang3/Documents/ECE492/test/software/accelerometer_pen_bsp/\libucosii_bsp.a(alt_malloc_lock.o)
 .sdata         0x0081e5e0       0x74 C:/Users/jchang3/Documents/ECE492/test/software/accelerometer_pen_bsp/\libucosii_bsp.a(os_dbg.o)
                0x0081e5e0                OSDebugEn
                0x0081e5e4                OSEndiannessTest
                0x0081e5e8                OSEventEn
                0x0081e5ea                OSEventMax
                0x0081e5ec                OSEventNameSize
                0x0081e5ee                OSEventSize
                0x0081e5f0                OSEventTblSize
                0x0081e5f2                OSEventMultiEn
                0x0081e5f4                OSFlagEn
                0x0081e5f6                OSFlagGrpSize
                0x0081e5f8                OSFlagNodeSize
                0x0081e5fa                OSFlagWidth
                0x0081e5fc                OSFlagMax
                0x0081e5fe                OSFlagNameSize
                0x0081e600                OSLowestPrio
                0x0081e602                OSMboxEn
                0x0081e604                OSMemEn
                0x0081e606                OSMemMax
                0x0081e608                OSMemNameSize
                0x0081e60a                OSMemSize
                0x0081e60c                OSMemTblSize
                0x0081e60e                OSMutexEn
                0x0081e610                OSPtrSize
                0x0081e612                OSQEn
                0x0081e614                OSQMax
                0x0081e616                OSQSize
                0x0081e618                OSRdyTblSize
                0x0081e61a                OSSemEn
                0x0081e61c                OSStkWidth
                0x0081e61e                OSTaskCreateEn
                0x0081e620                OSTaskCreateExtEn
                0x0081e622                OSTaskDelEn
                0x0081e624                OSTaskIdleStkSize
                0x0081e626                OSTaskProfileEn
                0x0081e628                OSTaskMax
                0x0081e62a                OSTaskNameSize
                0x0081e62c                OSTaskStatEn
                0x0081e62e                OSTaskStatStkSize
                0x0081e630                OSTaskStatStkChkEn
                0x0081e632                OSTaskSwHookEn
                0x0081e634                OSTCBPrioTblMax
                0x0081e636                OSTCBSize
                0x0081e638                OSTicksPerSec
                0x0081e63a                OSTimeTickHookEn
                0x0081e63c                OSVersionNbr
                0x0081e63e                OSTmrEn
                0x0081e640                OSTmrCfgMax
                0x0081e642                OSTmrCfgNameSize
                0x0081e644                OSTmrCfgWheelSize
                0x0081e646                OSTmrCfgTicksPerSec
                0x0081e648                OSTmrSize
                0x0081e64a                OSTmrTblSize
                0x0081e64c                OSTmrWheelSize
                0x0081e64e                OSTmrWheelTblSize
                0x0081e650                OSDataSize
 .sdata         0x0081e654        0x4 C:/Users/jchang3/Documents/ECE492/test/software/accelerometer_pen_bsp/\libucosii_bsp.a(alt_irq_vars.o)
                0x0081e654                alt_priority_mask
 .sdata         0x0081e658        0x8 C:/Users/jchang3/Documents/ECE492/test/software/accelerometer_pen_bsp/\libucosii_bsp.a(alt_tick.o)
                0x0081e658                alt_alarm_list
 *(.sdata2 .sdata2.* .gnu.linkonce.s2.*)
                0x0081e660                . = ALIGN (0x4)
                0x0081e660                _edata = ABSOLUTE (.)
                0x0081e660                PROVIDE (edata, ABSOLUTE (.))
                0x0081e660                PROVIDE (__ram_rwdata_end, ABSOLUTE (.))
                0x0081e660                PROVIDE (__flash_rwdata_start, LOADADDR (.rwdata))

.bss            0x008201c8    0x14464
                0x008201c8                __bss_start = ABSOLUTE (.)
                0x008201c8                PROVIDE (__sbss_start, ABSOLUTE (.))
                0x008201c8                PROVIDE (___sbss_start, ABSOLUTE (.))
 *(.dynsbss)
 *(.sbss .sbss.* .gnu.linkonce.sb.*)
 .sbss          0x008201c8       0x44 obj/default/hello_ucosii.o
                0x008201c8                template_number
                0x008201cc                pCharacter
                0x008201d0                dtw_semy
                0x008201d4                dtwy
                0x008201d8                semy
                0x008201dc                readsem
                0x008201e0                writesem
                0x008201e4                configuresem
                0x008201e8                uartsem
                0x008201ec                message
                0x008201f0                dtwx
                0x008201f4                dtw_sem
                0x008201f8                dtw_semx
                0x008201fc                err
                0x00820200                semx
                0x00820204                modeselectsem
                0x00820208                SWQ
 .sbss          0x0082020c        0xc c:/altera/12.1sp1/nios2eds/bin/gnu/h-i686-mingw32/bin/../lib/gcc/nios2-elf/4.1.2/../../../../nios2-elf/lib/mno-hw-mul\libc.a(lib_a-mallocr.o)
                0x0082020c                __malloc_top_pad
                0x00820210                __malloc_max_sbrked_mem
                0x00820214                __malloc_max_total_mem
 .sbss          0x00820218        0x4 c:/altera/12.1sp1/nios2eds/bin/gnu/h-i686-mingw32/bin/../lib/gcc/nios2-elf/4.1.2/../../../../nios2-elf/lib/mno-hw-mul\libc.a(lib_a-int_errno.o)
                0x00820218                errno
 .sbss          0x0082021c        0xc c:/altera/12.1sp1/nios2eds/bin/gnu/h-i686-mingw32/bin/../lib/gcc/nios2-elf/4.1.2/../../../../nios2-elf/lib/mno-hw-mul\libc.a(lib_a-locale.o)
                0x0082021c                __nlocale_changed
                0x00820220                __mlocale_changed
                0x00820224                _PathLocale
 .sbss          0x00820228        0x4 C:/Users/jchang3/Documents/ECE492/test/software/accelerometer_pen_bsp/\libucosii_bsp.a(alt_dev.o)
                0x00820228                alt_fd_list_lock
 .sbss          0x0082022c        0xc C:/Users/jchang3/Documents/ECE492/test/software/accelerometer_pen_bsp/\libucosii_bsp.a(alt_main.o)
                0x0082022c                alt_argc
                0x00820230                alt_argv
                0x00820234                alt_envp
 .sbss          0x00820238        0x8 C:/Users/jchang3/Documents/ECE492/test/software/accelerometer_pen_bsp/\libucosii_bsp.a(alt_env_lock.o)
                0x0082023c                alt_envsem
 .sbss          0x00820240        0x8 C:/Users/jchang3/Documents/ECE492/test/software/accelerometer_pen_bsp/\libucosii_bsp.a(alt_malloc_lock.o)
                0x00820244                alt_heapsem
 .sbss          0x00820248       0x50 C:/Users/jchang3/Documents/ECE492/test/software/accelerometer_pen_bsp/\libucosii_bsp.a(os_core.o)
                0x00820248                OSLockNesting
                0x00820249                OSRunning
                0x0082024c                OSIdleCtr
                0x00820250                OSPrioHighRdy
                0x00820251                OSPrioCur
                0x00820254                OSTCBList
                0x00820258                OSTickStepState
                0x0082025c                OSCtxSwCtr
                0x00820260                OSIdleCtrMax
                0x00820264                OSTCBFreeList
                0x00820268                OSCPUUsage
                0x00820269                OSTaskCtr
                0x0082026c                OSMemFreeList
                0x00820270                OSTCBHighRdy
                0x00820274                OSQFreeList
                0x00820278                OSRdyGrp
                0x00820279                OSRdyTbl
                0x0082027c                OSEventFreeList
                0x00820280                OSIntNesting
                0x00820284                OSTCBCur
                0x00820288                OSTime
                0x0082028c                OSFlagFreeList
                0x00820290                OSStatRdy
                0x00820294                OSIdleCtrRun
 .sbss          0x00820298       0x34 C:/Users/jchang3/Documents/ECE492/test/software/accelerometer_pen_bsp/\libucosii_bsp.a(altera_up_sd_card_avalon_interface.o)
                0x00820298                initialized
                0x0082029c                is_sd_card_formated_as_FAT16
                0x008202a0                aux_status_register
                0x008202a4                status_register
                0x008202a8                CSD_register_w0
                0x008202ac                command_register
                0x008202b0                command_argument_register
                0x008202b4                buffer_memory
                0x008202b8                fat_partition_offset_in_512_byte_sectors
                0x008202bc                fat_partition_size_in_512_byte_sectors
                0x008202c0                device_pointer
                0x008202c4                current_sector_modified
                0x008202c8                current_sector_index
 .sbss          0x008202cc        0x4 C:/Users/jchang3/Documents/ECE492/test/software/accelerometer_pen_bsp/\libucosii_bsp.a(alt_irq_vars.o)
                0x008202cc                alt_irq_active
 .sbss          0x008202d0        0x8 C:/Users/jchang3/Documents/ECE492/test/software/accelerometer_pen_bsp/\libucosii_bsp.a(alt_tick.o)
                0x008202d0                _alt_tick_rate
                0x008202d4                _alt_nticks
 *(.sbss2 .sbss2.* .gnu.linkonce.sb2.*)
 *(.scommon)
                0x008202d8                PROVIDE (__sbss_end, ABSOLUTE (.))
                0x008202d8                PROVIDE (___sbss_end, ABSOLUTE (.))
 *(.dynbss)
 *(.bss .bss.* .gnu.linkonce.b.*)
 .bss           0x008202d8        0x0 C:/Users/jchang3/Documents/ECE492/test/software/accelerometer_pen_bsp//obj/HAL/src/crt0.o
 .bss           0x008202d8        0x0 obj/default/dtw.o
 .bss           0x008202d8        0x0 obj/default/hello_ucosii.o
 .bss           0x008202d8        0x0 c:/altera/12.1sp1/nios2eds/bin/gnu/h-i686-mingw32/bin/../lib/gcc/nios2-elf/4.1.2/mno-hw-mul\libgcc.a(_div_sf.o)
 .bss           0x008202d8        0x0 c:/altera/12.1sp1/nios2eds/bin/gnu/h-i686-mingw32/bin/../lib/gcc/nios2-elf/4.1.2/mno-hw-mul\libgcc.a(_sf_to_df.o)
 .bss           0x008202d8        0x0 c:/altera/12.1sp1/nios2eds/bin/gnu/h-i686-mingw32/bin/../lib/gcc/nios2-elf/4.1.2/mno-hw-mul\libgcc.a(_thenan_sf.o)
 .bss           0x008202d8        0x0 c:/altera/12.1sp1/nios2eds/bin/gnu/h-i686-mingw32/bin/../lib/gcc/nios2-elf/4.1.2/mno-hw-mul\libgcc.a(_usi_to_sf.o)
 .bss           0x008202d8        0x0 c:/altera/12.1sp1/nios2eds/bin/gnu/h-i686-mingw32/bin/../lib/gcc/nios2-elf/4.1.2/mno-hw-mul\libgcc.a(_addsub_df.o)
 .bss           0x008202d8        0x0 c:/altera/12.1sp1/nios2eds/bin/gnu/h-i686-mingw32/bin/../lib/gcc/nios2-elf/4.1.2/mno-hw-mul\libgcc.a(_mul_df.o)
 .bss           0x008202d8        0x0 c:/altera/12.1sp1/nios2eds/bin/gnu/h-i686-mingw32/bin/../lib/gcc/nios2-elf/4.1.2/mno-hw-mul\libgcc.a(_si_to_df.o)
 .bss           0x008202d8        0x0 c:/altera/12.1sp1/nios2eds/bin/gnu/h-i686-mingw32/bin/../lib/gcc/nios2-elf/4.1.2/mno-hw-mul\libgcc.a(_df_to_si.o)
 .bss           0x008202d8        0x0 c:/altera/12.1sp1/nios2eds/bin/gnu/h-i686-mingw32/bin/../lib/gcc/nios2-elf/4.1.2/mno-hw-mul\libgcc.a(_make_df.o)
 .bss           0x008202d8        0x0 c:/altera/12.1sp1/nios2eds/bin/gnu/h-i686-mingw32/bin/../lib/gcc/nios2-elf/4.1.2/mno-hw-mul\libgcc.a(_thenan_df.o)
 .bss           0x008202d8        0x0 c:/altera/12.1sp1/nios2eds/bin/gnu/h-i686-mingw32/bin/../lib/gcc/nios2-elf/4.1.2/mno-hw-mul\libgcc.a(lib2-mul.o)
 .bss           0x008202d8        0x0 c:/altera/12.1sp1/nios2eds/bin/gnu/h-i686-mingw32/bin/../lib/gcc/nios2-elf/4.1.2/mno-hw-mul\libgcc.a(_muldi3.o)
 .bss           0x008202d8        0x0 c:/altera/12.1sp1/nios2eds/bin/gnu/h-i686-mingw32/bin/../lib/gcc/nios2-elf/4.1.2/mno-hw-mul\libgcc.a(_clzsi2.o)
 .bss           0x008202d8        0x0 c:/altera/12.1sp1/nios2eds/bin/gnu/h-i686-mingw32/bin/../lib/gcc/nios2-elf/4.1.2/mno-hw-mul\libgcc.a(_pack_sf.o)
 .bss           0x008202d8        0x0 c:/altera/12.1sp1/nios2eds/bin/gnu/h-i686-mingw32/bin/../lib/gcc/nios2-elf/4.1.2/mno-hw-mul\libgcc.a(_unpack_sf.o)
 .bss           0x008202d8        0x0 c:/altera/12.1sp1/nios2eds/bin/gnu/h-i686-mingw32/bin/../lib/gcc/nios2-elf/4.1.2/mno-hw-mul\libgcc.a(_pack_df.o)
 .bss           0x008202d8        0x0 c:/altera/12.1sp1/nios2eds/bin/gnu/h-i686-mingw32/bin/../lib/gcc/nios2-elf/4.1.2/mno-hw-mul\libgcc.a(_unpack_df.o)
 .bss           0x008202d8        0x0 c:/altera/12.1sp1/nios2eds/bin/gnu/h-i686-mingw32/bin/../lib/gcc/nios2-elf/4.1.2/mno-hw-mul\libgcc.a(_clz.o)
 .bss           0x008202d8        0x0 c:/altera/12.1sp1/nios2eds/bin/gnu/h-i686-mingw32/bin/../lib/gcc/nios2-elf/4.1.2/../../../../nios2-elf/lib/mno-hw-mul\libc.a(lib_a-calloc.o)
 .bss           0x008202d8        0x0 c:/altera/12.1sp1/nios2eds/bin/gnu/h-i686-mingw32/bin/../lib/gcc/nios2-elf/4.1.2/../../../../nios2-elf/lib/mno-hw-mul\libc.a(lib_a-callocr.o)
 .bss           0x008202d8        0x0 c:/altera/12.1sp1/nios2eds/bin/gnu/h-i686-mingw32/bin/../lib/gcc/nios2-elf/4.1.2/../../../../nios2-elf/lib/mno-hw-mul\libc.a(lib_a-clock.o)
 .bss           0x008202d8        0x0 c:/altera/12.1sp1/nios2eds/bin/gnu/h-i686-mingw32/bin/../lib/gcc/nios2-elf/4.1.2/../../../../nios2-elf/lib/mno-hw-mul\libc.a(lib_a-impure.o)
 .bss           0x008202d8       0x28 c:/altera/12.1sp1/nios2eds/bin/gnu/h-i686-mingw32/bin/../lib/gcc/nios2-elf/4.1.2/../../../../nios2-elf/lib/mno-hw-mul\libc.a(lib_a-mallocr.o)
                0x008202d8                __malloc_current_mallinfo
 .bss           0x00820300        0x0 c:/altera/12.1sp1/nios2eds/bin/gnu/h-i686-mingw32/bin/../lib/gcc/nios2-elf/4.1.2/../../../../nios2-elf/lib/mno-hw-mul\libc.a(lib_a-memset.o)
 .bss           0x00820300        0x0 c:/altera/12.1sp1/nios2eds/bin/gnu/h-i686-mingw32/bin/../lib/gcc/nios2-elf/4.1.2/../../../../nios2-elf/lib/mno-hw-mul\libc.a(lib_a-printf.o)
 .bss           0x00820300        0x0 c:/altera/12.1sp1/nios2eds/bin/gnu/h-i686-mingw32/bin/../lib/gcc/nios2-elf/4.1.2/../../../../nios2-elf/lib/mno-hw-mul\libc.a(lib_a-puts.o)
 .bss           0x00820300        0x0 c:/altera/12.1sp1/nios2eds/bin/gnu/h-i686-mingw32/bin/../lib/gcc/nios2-elf/4.1.2/../../../../nios2-elf/lib/mno-hw-mul\libc.a(lib_a-sbrkr.o)
 .bss           0x00820300        0x0 c:/altera/12.1sp1/nios2eds/bin/gnu/h-i686-mingw32/bin/../lib/gcc/nios2-elf/4.1.2/../../../../nios2-elf/lib/mno-hw-mul\libc.a(lib_a-strlen.o)
 .bss           0x00820300        0x0 c:/altera/12.1sp1/nios2eds/bin/gnu/h-i686-mingw32/bin/../lib/gcc/nios2-elf/4.1.2/../../../../nios2-elf/lib/mno-hw-mul\libc.a(lib_a-timesr.o)
 .bss           0x00820300        0x0 c:/altera/12.1sp1/nios2eds/bin/gnu/h-i686-mingw32/bin/../lib/gcc/nios2-elf/4.1.2/../../../../nios2-elf/lib/mno-hw-mul\libc.a(lib_a-vfprintf.o)
 .bss           0x00820300        0x0 c:/altera/12.1sp1/nios2eds/bin/gnu/h-i686-mingw32/bin/../lib/gcc/nios2-elf/4.1.2/../../../../nios2-elf/lib/mno-hw-mul\libc.a(lib_a-wsetup.o)
 .bss           0x00820300        0x0 c:/altera/12.1sp1/nios2eds/bin/gnu/h-i686-mingw32/bin/../lib/gcc/nios2-elf/4.1.2/../../../../nios2-elf/lib/mno-hw-mul\libc.a(lib_a-dtoa.o)
 .bss           0x00820300        0x0 c:/altera/12.1sp1/nios2eds/bin/gnu/h-i686-mingw32/bin/../lib/gcc/nios2-elf/4.1.2/../../../../nios2-elf/lib/mno-hw-mul\libc.a(lib_a-fflush.o)
 .bss           0x00820300        0x0 c:/altera/12.1sp1/nios2eds/bin/gnu/h-i686-mingw32/bin/../lib/gcc/nios2-elf/4.1.2/../../../../nios2-elf/lib/mno-hw-mul\libc.a(lib_a-findfp.o)
 .bss           0x00820300        0x0 c:/altera/12.1sp1/nios2eds/bin/gnu/h-i686-mingw32/bin/../lib/gcc/nios2-elf/4.1.2/../../../../nios2-elf/lib/mno-hw-mul\libc.a(lib_a-freer.o)
 .bss           0x00820300        0x0 c:/altera/12.1sp1/nios2eds/bin/gnu/h-i686-mingw32/bin/../lib/gcc/nios2-elf/4.1.2/../../../../nios2-elf/lib/mno-hw-mul\libc.a(lib_a-fvwrite.o)
 .bss           0x00820300        0x0 c:/altera/12.1sp1/nios2eds/bin/gnu/h-i686-mingw32/bin/../lib/gcc/nios2-elf/4.1.2/../../../../nios2-elf/lib/mno-hw-mul\libc.a(lib_a-fwalk.o)
 .bss           0x00820300        0x0 c:/altera/12.1sp1/nios2eds/bin/gnu/h-i686-mingw32/bin/../lib/gcc/nios2-elf/4.1.2/../../../../nios2-elf/lib/mno-hw-mul\libc.a(lib_a-int_errno.o)
 .bss           0x00820300        0x0 c:/altera/12.1sp1/nios2eds/bin/gnu/h-i686-mingw32/bin/../lib/gcc/nios2-elf/4.1.2/../../../../nios2-elf/lib/mno-hw-mul\libc.a(lib_a-locale.o)
 .bss           0x00820300        0x0 c:/altera/12.1sp1/nios2eds/bin/gnu/h-i686-mingw32/bin/../lib/gcc/nios2-elf/4.1.2/../../../../nios2-elf/lib/mno-hw-mul\libc.a(lib_a-makebuf.o)
 .bss           0x00820300        0x0 c:/altera/12.1sp1/nios2eds/bin/gnu/h-i686-mingw32/bin/../lib/gcc/nios2-elf/4.1.2/../../../../nios2-elf/lib/mno-hw-mul\libc.a(lib_a-memchr.o)
 .bss           0x00820300        0x0 c:/altera/12.1sp1/nios2eds/bin/gnu/h-i686-mingw32/bin/../lib/gcc/nios2-elf/4.1.2/../../../../nios2-elf/lib/mno-hw-mul\libc.a(lib_a-memcpy.o)
 .bss           0x00820300        0x0 c:/altera/12.1sp1/nios2eds/bin/gnu/h-i686-mingw32/bin/../lib/gcc/nios2-elf/4.1.2/../../../../nios2-elf/lib/mno-hw-mul\libc.a(lib_a-memmove.o)
 .bss           0x00820300        0x0 c:/altera/12.1sp1/nios2eds/bin/gnu/h-i686-mingw32/bin/../lib/gcc/nios2-elf/4.1.2/../../../../nios2-elf/lib/mno-hw-mul\libc.a(lib_a-mprec.o)
 .bss           0x00820300        0x0 c:/altera/12.1sp1/nios2eds/bin/gnu/h-i686-mingw32/bin/../lib/gcc/nios2-elf/4.1.2/../../../../nios2-elf/lib/mno-hw-mul\libc.a(lib_a-reallocr.o)
 .bss           0x00820300        0x0 c:/altera/12.1sp1/nios2eds/bin/gnu/h-i686-mingw32/bin/../lib/gcc/nios2-elf/4.1.2/../../../../nios2-elf/lib/mno-hw-mul\libc.a(lib_a-s_isinfd.o)
 .bss           0x00820300        0x0 c:/altera/12.1sp1/nios2eds/bin/gnu/h-i686-mingw32/bin/../lib/gcc/nios2-elf/4.1.2/../../../../nios2-elf/lib/mno-hw-mul\libc.a(lib_a-s_isnand.o)
 .bss           0x00820300        0x0 c:/altera/12.1sp1/nios2eds/bin/gnu/h-i686-mingw32/bin/../lib/gcc/nios2-elf/4.1.2/../../../../nios2-elf/lib/mno-hw-mul\libc.a(lib_a-stdio.o)
 .bss           0x00820300        0x0 c:/altera/12.1sp1/nios2eds/bin/gnu/h-i686-mingw32/bin/../lib/gcc/nios2-elf/4.1.2/../../../../nios2-elf/lib/mno-hw-mul\libc.a(lib_a-strcmp.o)
 .bss           0x00820300        0x0 c:/altera/12.1sp1/nios2eds/bin/gnu/h-i686-mingw32/bin/../lib/gcc/nios2-elf/4.1.2/../../../../nios2-elf/lib/mno-hw-mul\libc.a(lib_a-writer.o)
 .bss           0x00820300        0x0 c:/altera/12.1sp1/nios2eds/bin/gnu/h-i686-mingw32/bin/../lib/gcc/nios2-elf/4.1.2/../../../../nios2-elf/lib/mno-hw-mul\libc.a(lib_a-closer.o)
 .bss           0x00820300        0x0 c:/altera/12.1sp1/nios2eds/bin/gnu/h-i686-mingw32/bin/../lib/gcc/nios2-elf/4.1.2/../../../../nios2-elf/lib/mno-hw-mul\libc.a(lib_a-fclose.o)
 .bss           0x00820300        0x0 c:/altera/12.1sp1/nios2eds/bin/gnu/h-i686-mingw32/bin/../lib/gcc/nios2-elf/4.1.2/../../../../nios2-elf/lib/mno-hw-mul\libc.a(lib_a-fstatr.o)
 .bss           0x00820300        0x0 c:/altera/12.1sp1/nios2eds/bin/gnu/h-i686-mingw32/bin/../lib/gcc/nios2-elf/4.1.2/../../../../nios2-elf/lib/mno-hw-mul\libc.a(lib_a-isattyr.o)
 .bss           0x00820300        0x0 c:/altera/12.1sp1/nios2eds/bin/gnu/h-i686-mingw32/bin/../lib/gcc/nios2-elf/4.1.2/../../../../nios2-elf/lib/mno-hw-mul\libc.a(lib_a-lseekr.o)
 .bss           0x00820300        0x0 c:/altera/12.1sp1/nios2eds/bin/gnu/h-i686-mingw32/bin/../lib/gcc/nios2-elf/4.1.2/../../../../nios2-elf/lib/mno-hw-mul\libc.a(lib_a-readr.o)
 .bss           0x00820300        0x0 c:/altera/12.1sp1/nios2eds/bin/gnu/h-i686-mingw32/bin/../lib/gcc/nios2-elf/4.1.2/mno-hw-mul\libgcc.a(_udivdi3.o)
 .bss           0x00820300        0x0 c:/altera/12.1sp1/nios2eds/bin/gnu/h-i686-mingw32/bin/../lib/gcc/nios2-elf/4.1.2/mno-hw-mul\libgcc.a(_umoddi3.o)
 .bss           0x00820300        0x0 c:/altera/12.1sp1/nios2eds/bin/gnu/h-i686-mingw32/bin/../lib/gcc/nios2-elf/4.1.2/mno-hw-mul\libgcc.a(_div_df.o)
 .bss           0x00820300        0x0 c:/altera/12.1sp1/nios2eds/bin/gnu/h-i686-mingw32/bin/../lib/gcc/nios2-elf/4.1.2/mno-hw-mul\libgcc.a(_eq_df.o)
 .bss           0x00820300        0x0 c:/altera/12.1sp1/nios2eds/bin/gnu/h-i686-mingw32/bin/../lib/gcc/nios2-elf/4.1.2/mno-hw-mul\libgcc.a(_ne_df.o)
 .bss           0x00820300        0x0 c:/altera/12.1sp1/nios2eds/bin/gnu/h-i686-mingw32/bin/../lib/gcc/nios2-elf/4.1.2/mno-hw-mul\libgcc.a(_gt_df.o)
 .bss           0x00820300        0x0 c:/altera/12.1sp1/nios2eds/bin/gnu/h-i686-mingw32/bin/../lib/gcc/nios2-elf/4.1.2/mno-hw-mul\libgcc.a(_ge_df.o)
 .bss           0x00820300        0x0 c:/altera/12.1sp1/nios2eds/bin/gnu/h-i686-mingw32/bin/../lib/gcc/nios2-elf/4.1.2/mno-hw-mul\libgcc.a(_lt_df.o)
 .bss           0x00820300        0x0 c:/altera/12.1sp1/nios2eds/bin/gnu/h-i686-mingw32/bin/../lib/gcc/nios2-elf/4.1.2/mno-hw-mul\libgcc.a(_usi_to_df.o)
 .bss           0x00820300        0x0 c:/altera/12.1sp1/nios2eds/bin/gnu/h-i686-mingw32/bin/../lib/gcc/nios2-elf/4.1.2/mno-hw-mul\libgcc.a(lib2-divmod.o)
 .bss           0x00820300        0x0 c:/altera/12.1sp1/nios2eds/bin/gnu/h-i686-mingw32/bin/../lib/gcc/nios2-elf/4.1.2/mno-hw-mul\libgcc.a(_fpcmp_parts_df.o)
 .bss           0x00820300        0x0 C:/Users/jchang3/Documents/ECE492/test/software/accelerometer_pen_bsp/\libucosii_bsp.a(alt_close.o)
 .bss           0x00820300        0x0 C:/Users/jchang3/Documents/ECE492/test/software/accelerometer_pen_bsp/\libucosii_bsp.a(alt_dev.o)
 .bss           0x00820300        0x0 C:/Users/jchang3/Documents/ECE492/test/software/accelerometer_pen_bsp/\libucosii_bsp.a(alt_errno.o)
 .bss           0x00820300        0x0 C:/Users/jchang3/Documents/ECE492/test/software/accelerometer_pen_bsp/\libucosii_bsp.a(alt_fstat.o)
 .bss           0x00820300        0x0 C:/Users/jchang3/Documents/ECE492/test/software/accelerometer_pen_bsp/\libucosii_bsp.a(alt_isatty.o)
 .bss           0x00820300        0x0 C:/Users/jchang3/Documents/ECE492/test/software/accelerometer_pen_bsp/\libucosii_bsp.a(alt_load.o)
 .bss           0x00820300        0x0 C:/Users/jchang3/Documents/ECE492/test/software/accelerometer_pen_bsp/\libucosii_bsp.a(alt_lseek.o)
 .bss           0x00820300        0x0 C:/Users/jchang3/Documents/ECE492/test/software/accelerometer_pen_bsp/\libucosii_bsp.a(alt_main.o)
 .bss           0x00820300        0x0 C:/Users/jchang3/Documents/ECE492/test/software/accelerometer_pen_bsp/\libucosii_bsp.a(alt_printf.o)
 .bss           0x00820300        0x0 C:/Users/jchang3/Documents/ECE492/test/software/accelerometer_pen_bsp/\libucosii_bsp.a(alt_putchar.o)
 .bss           0x00820300        0x0 C:/Users/jchang3/Documents/ECE492/test/software/accelerometer_pen_bsp/\libucosii_bsp.a(alt_read.o)
 .bss           0x00820300        0x0 C:/Users/jchang3/Documents/ECE492/test/software/accelerometer_pen_bsp/\libucosii_bsp.a(alt_release_fd.o)
 .bss           0x00820300        0x0 C:/Users/jchang3/Documents/ECE492/test/software/accelerometer_pen_bsp/\libucosii_bsp.a(alt_sbrk.o)
 .bss           0x00820300        0x0 C:/Users/jchang3/Documents/ECE492/test/software/accelerometer_pen_bsp/\libucosii_bsp.a(alt_times.o)
 .bss           0x00820300        0x0 C:/Users/jchang3/Documents/ECE492/test/software/accelerometer_pen_bsp/\libucosii_bsp.a(alt_write.o)
 .bss           0x00820300        0x0 C:/Users/jchang3/Documents/ECE492/test/software/accelerometer_pen_bsp/\libucosii_bsp.a(alt_env_lock.o)
 .bss           0x00820300        0x0 C:/Users/jchang3/Documents/ECE492/test/software/accelerometer_pen_bsp/\libucosii_bsp.a(alt_malloc_lock.o)
 .bss           0x00820300        0x0 C:/Users/jchang3/Documents/ECE492/test/software/accelerometer_pen_bsp/\libucosii_bsp.a(os_core.o)
 .bss           0x00820300        0x0 C:/Users/jchang3/Documents/ECE492/test/software/accelerometer_pen_bsp/\libucosii_bsp.a(os_dbg.o)
 .bss           0x00820300        0x0 C:/Users/jchang3/Documents/ECE492/test/software/accelerometer_pen_bsp/\libucosii_bsp.a(os_flag.o)
 .bss           0x00820300        0x0 C:/Users/jchang3/Documents/ECE492/test/software/accelerometer_pen_bsp/\libucosii_bsp.a(os_mem.o)
 .bss           0x00820300        0x0 C:/Users/jchang3/Documents/ECE492/test/software/accelerometer_pen_bsp/\libucosii_bsp.a(os_q.o)
 .bss           0x00820300        0x0 C:/Users/jchang3/Documents/ECE492/test/software/accelerometer_pen_bsp/\libucosii_bsp.a(os_sem.o)
 .bss           0x00820300        0x0 C:/Users/jchang3/Documents/ECE492/test/software/accelerometer_pen_bsp/\libucosii_bsp.a(os_task.o)
 .bss           0x00820300        0x0 C:/Users/jchang3/Documents/ECE492/test/software/accelerometer_pen_bsp/\libucosii_bsp.a(os_time.o)
 .bss           0x00820300        0x0 C:/Users/jchang3/Documents/ECE492/test/software/accelerometer_pen_bsp/\libucosii_bsp.a(alt_sys_init.o)
 .bss           0x00820300        0x0 C:/Users/jchang3/Documents/ECE492/test/software/accelerometer_pen_bsp/\libucosii_bsp.a(altera_avalon_jtag_uart_fd.o)
 .bss           0x00820300        0x0 C:/Users/jchang3/Documents/ECE492/test/software/accelerometer_pen_bsp/\libucosii_bsp.a(altera_avalon_jtag_uart_init.o)
 .bss           0x00820300        0x0 C:/Users/jchang3/Documents/ECE492/test/software/accelerometer_pen_bsp/\libucosii_bsp.a(altera_avalon_jtag_uart_ioctl.o)
 .bss           0x00820300        0x0 C:/Users/jchang3/Documents/ECE492/test/software/accelerometer_pen_bsp/\libucosii_bsp.a(altera_avalon_jtag_uart_read.o)
 .bss           0x00820300        0x0 C:/Users/jchang3/Documents/ECE492/test/software/accelerometer_pen_bsp/\libucosii_bsp.a(altera_avalon_jtag_uart_write.o)
 .bss           0x00820300        0x0 C:/Users/jchang3/Documents/ECE492/test/software/accelerometer_pen_bsp/\libucosii_bsp.a(altera_avalon_timer_sc.o)
 .bss           0x00820300        0x0 C:/Users/jchang3/Documents/ECE492/test/software/accelerometer_pen_bsp/\libucosii_bsp.a(altera_up_avalon_character_lcd.o)
 .bss           0x00820300        0x0 C:/Users/jchang3/Documents/ECE492/test/software/accelerometer_pen_bsp/\libucosii_bsp.a(altera_up_avalon_rs232.o)
 .bss           0x00820300        0x0 C:/Users/jchang3/Documents/ECE492/test/software/accelerometer_pen_bsp/\libucosii_bsp.a(altera_up_sd_card_avalon_interface.o)
 .bss           0x00820300        0x0 C:/Users/jchang3/Documents/ECE492/test/software/accelerometer_pen_bsp/\libucosii_bsp.a(alt_alarm_start.o)
 .bss           0x00820300        0x0 C:/Users/jchang3/Documents/ECE492/test/software/accelerometer_pen_bsp/\libucosii_bsp.a(alt_dcache_flush_all.o)
 .bss           0x00820300        0x0 C:/Users/jchang3/Documents/ECE492/test/software/accelerometer_pen_bsp/\libucosii_bsp.a(alt_dev_llist_insert.o)
 .bss           0x00820300        0x0 C:/Users/jchang3/Documents/ECE492/test/software/accelerometer_pen_bsp/\libucosii_bsp.a(alt_do_ctors.o)
 .bss           0x00820300        0x0 C:/Users/jchang3/Documents/ECE492/test/software/accelerometer_pen_bsp/\libucosii_bsp.a(alt_do_dtors.o)
 .bss           0x00820300        0x0 C:/Users/jchang3/Documents/ECE492/test/software/accelerometer_pen_bsp/\libucosii_bsp.a(alt_find_dev.o)
 .bss           0x00820300        0x0 C:/Users/jchang3/Documents/ECE492/test/software/accelerometer_pen_bsp/\libucosii_bsp.a(alt_icache_flush_all.o)
 .bss           0x00820300        0x0 C:/Users/jchang3/Documents/ECE492/test/software/accelerometer_pen_bsp/\libucosii_bsp.a(alt_io_redirect.o)
 .bss           0x00820300        0x0 C:/Users/jchang3/Documents/ECE492/test/software/accelerometer_pen_bsp/\libucosii_bsp.a(alt_irq_register.o)
 .bss           0x00820300        0x0 C:/Users/jchang3/Documents/ECE492/test/software/accelerometer_pen_bsp/\libucosii_bsp.a(alt_irq_vars.o)
 .bss           0x00820300        0x0 C:/Users/jchang3/Documents/ECE492/test/software/accelerometer_pen_bsp/\libucosii_bsp.a(alt_open.o)
 .bss           0x00820300        0x0 C:/Users/jchang3/Documents/ECE492/test/software/accelerometer_pen_bsp/\libucosii_bsp.a(alt_tick.o)
 .bss           0x00820300        0x0 C:/Users/jchang3/Documents/ECE492/test/software/accelerometer_pen_bsp/\libucosii_bsp.a(altera_nios2_qsys_irq.o)
 .bss           0x00820300        0x0 C:/Users/jchang3/Documents/ECE492/test/software/accelerometer_pen_bsp/\libucosii_bsp.a(os_cpu_a.o)
 .bss           0x00820300        0x0 C:/Users/jchang3/Documents/ECE492/test/software/accelerometer_pen_bsp/\libucosii_bsp.a(os_cpu_c.o)
 .bss           0x00820300        0x0 C:/Users/jchang3/Documents/ECE492/test/software/accelerometer_pen_bsp/\libucosii_bsp.a(alt_find_file.o)
 .bss           0x00820300        0x0 C:/Users/jchang3/Documents/ECE492/test/software/accelerometer_pen_bsp/\libucosii_bsp.a(alt_get_fd.o)
 .bss           0x00820300        0x0 C:/Users/jchang3/Documents/ECE492/test/software/accelerometer_pen_bsp/\libucosii_bsp.a(alt_irq_entry.o)
 .bss           0x00820300        0x0 C:/Users/jchang3/Documents/ECE492/test/software/accelerometer_pen_bsp/\libucosii_bsp.a(alt_irq_handler.o)
 .bss           0x00820300        0x0 C:/Users/jchang3/Documents/ECE492/test/software/accelerometer_pen_bsp/\libucosii_bsp.a(alt_exception_entry.o)
 .bss           0x00820300        0x0 c:/altera/12.1sp1/nios2eds/bin/gnu/h-i686-mingw32/bin/../lib/gcc/nios2-elf/4.1.2/../../../../nios2-elf/lib/mno-hw-mul\libc.a(lib_a-atexit.o)
 .bss           0x00820300        0x0 c:/altera/12.1sp1/nios2eds/bin/gnu/h-i686-mingw32/bin/../lib/gcc/nios2-elf/4.1.2/../../../../nios2-elf/lib/mno-hw-mul\libc.a(lib_a-exit.o)
 .bss           0x00820300        0x0 c:/altera/12.1sp1/nios2eds/bin/gnu/h-i686-mingw32/bin/../lib/gcc/nios2-elf/4.1.2/../../../../nios2-elf/lib/mno-hw-mul\libc.a(lib_a-memcmp.o)
 .bss           0x00820300        0x0 c:/altera/12.1sp1/nios2eds/bin/gnu/h-i686-mingw32/bin/../lib/gcc/nios2-elf/4.1.2/../../../../nios2-elf/lib/mno-hw-mul\libc.a(lib_a-putc.o)
 .bss           0x00820300        0x0 c:/altera/12.1sp1/nios2eds/bin/gnu/h-i686-mingw32/bin/../lib/gcc/nios2-elf/4.1.2/../../../../nios2-elf/lib/mno-hw-mul\libc.a(lib_a-wbuf.o)
 .bss           0x00820300        0x0 c:/altera/12.1sp1/nios2eds/bin/gnu/h-i686-mingw32/bin/../lib/gcc/nios2-elf/4.1.2/../../../../nios2-elf/lib/mno-hw-mul\libc.a(lib_a-__atexit.o)
 .bss           0x00820300        0x0 c:/altera/12.1sp1/nios2eds/bin/gnu/h-i686-mingw32/bin/../lib/gcc/nios2-elf/4.1.2/../../../../nios2-elf/lib/mno-hw-mul\libc.a(lib_a-__call_atexit.o)
 .bss           0x00820300        0x0 C:/Users/jchang3/Documents/ECE492/test/software/accelerometer_pen_bsp/\libucosii_bsp.a(alt_exit.o)
 *(COMMON)
 COMMON         0x00820300    0x10910 obj/default/hello_ucosii.o
                0x00820300                taskCalibrate_stk
                0x00822300                taskCharacterRead_stk
                0x00824300                taskModeSelect_stk
                0x00826300                taskTemplateMatch_stk
                0x00828300                taskDTWX_stk
                0x0082a300                taskReadSDCard_stk
                0x0082c300                templates
                0x0082c320                template
                0x0082c398                array
                0x0082c410                SWQ_stk
                0x0082e410                taskDTWY_stk
                0x00830410                messageArray
 COMMON         0x00830c10     0x3224 C:/Users/jchang3/Documents/ECE492/test/software/accelerometer_pen_bsp/\libucosii_bsp.a(os_core.o)
                0x00830c10                OSFlagTbl
                0x00830f80                OSMemTbl
                0x00831bb0                OSTaskStatStk
                0x008323b0                OSQTbl
                0x00832590                OSTaskIdleStk
                0x00832d90                OSEventTbl
                0x008338d0                OSTCBTbl
                0x00833de0                OSTCBPrioTbl
 COMMON         0x00833e34      0x568 C:/Users/jchang3/Documents/ECE492/test/software/accelerometer_pen_bsp/\libucosii_bsp.a(altera_up_sd_card_avalon_interface.o)
                0x00833e34                search_data
                0x00833e48                boot_sector_data
                0x00833e9c                active_files
 COMMON         0x0083439c      0x100 C:/Users/jchang3/Documents/ECE492/test/software/accelerometer_pen_bsp/\libucosii_bsp.a(alt_irq_handler.o)
                0x0083439c                alt_irq
 COMMON         0x0083449c      0x190 c:/altera/12.1sp1/nios2eds/bin/gnu/h-i686-mingw32/bin/../lib/gcc/nios2-elf/4.1.2/../../../../nios2-elf/lib/mno-hw-mul\libc.a(lib_a-atexit.o)
                0x0083449c                _atexit0
                0x0083462c                . = ALIGN (0x4)
                0x0083462c                __bss_end = ABSOLUTE (.)

.sdram_0        0x0083462c        0x0
                0x0083462c                PROVIDE (_alt_partition_sdram_0_start, ABSOLUTE (.))
 *(.sdram_0. sdram_0.*)
                0x0083462c                . = ALIGN (0x4)
                0x0083462c                PROVIDE (_alt_partition_sdram_0_end, ABSOLUTE (.))
                0x0083462c                _end = ABSOLUTE (.)
                0x0083462c                end = ABSOLUTE (.)
                0x0083462c                __alt_stack_base = ABSOLUTE (.)
                0x0083462c                PROVIDE (_alt_partition_sdram_0_load_addr, LOADADDR (.sdram_0))

.generic_tristate_controller_0
                0x01400000        0x0 load address 0x0083462c
                0x01400000                PROVIDE (_alt_partition_generic_tristate_controller_0_start, ABSOLUTE (.))
 *(.generic_tristate_controller_0. generic_tristate_controller_0.*)
                0x01400000                . = ALIGN (0x4)
                0x01400000                PROVIDE (_alt_partition_generic_tristate_controller_0_end, ABSOLUTE (.))
                0x0083462c                PROVIDE (_alt_partition_generic_tristate_controller_0_load_addr, LOADADDR (.generic_tristate_controller_0))

.sram_0         0x01880000        0x0 load address 0x0083462c
                0x01880000                PROVIDE (_alt_partition_sram_0_start, ABSOLUTE (.))
 *(.sram_0. sram_0.*)
                0x01880000                . = ALIGN (0x4)
                0x01880000                PROVIDE (_alt_partition_sram_0_end, ABSOLUTE (.))
                0x0083462c                PROVIDE (_alt_partition_sram_0_load_addr, LOADADDR (.sram_0))

.onchip_memory2_0
                0x019041c0        0x0 load address 0x0083462c
                0x019041c0                PROVIDE (_alt_partition_onchip_memory2_0_start, ABSOLUTE (.))
 *(.onchip_memory2_0. onchip_memory2_0.*)
                0x019041c0                . = ALIGN (0x4)
                0x019041c0                PROVIDE (_alt_partition_onchip_memory2_0_end, ABSOLUTE (.))
                0x0083462c                PROVIDE (_alt_partition_onchip_memory2_0_load_addr, LOADADDR (.onchip_memory2_0))

.stab
 *(.stab)

.stabstr
 *(.stabstr)

.stab.excl
 *(.stab.excl)

.stab.exclstr
 *(.stab.exclstr)

.stab.index
 *(.stab.index)

.stab.indexstr
 *(.stab.indexstr)

.comment        0x00000000       0x26
 *(.comment)
 .comment       0x00000000       0x26 obj/default/dtw.o
                                 0x27 (size before relaxing)
 .comment       0x00000000       0x27 obj/default/hello_ucosii.o
 .comment       0x00000000       0x27 c:/altera/12.1sp1/nios2eds/bin/gnu/h-i686-mingw32/bin/../lib/gcc/nios2-elf/4.1.2/mno-hw-mul\libgcc.a(_div_sf.o)
 .comment       0x00000000       0x27 c:/altera/12.1sp1/nios2eds/bin/gnu/h-i686-mingw32/bin/../lib/gcc/nios2-elf/4.1.2/mno-hw-mul\libgcc.a(_sf_to_df.o)
 .comment       0x00000000       0x27 c:/altera/12.1sp1/nios2eds/bin/gnu/h-i686-mingw32/bin/../lib/gcc/nios2-elf/4.1.2/mno-hw-mul\libgcc.a(_thenan_sf.o)
 .comment       0x00000000       0x27 c:/altera/12.1sp1/nios2eds/bin/gnu/h-i686-mingw32/bin/../lib/gcc/nios2-elf/4.1.2/mno-hw-mul\libgcc.a(_usi_to_sf.o)
 .comment       0x00000000       0x27 c:/altera/12.1sp1/nios2eds/bin/gnu/h-i686-mingw32/bin/../lib/gcc/nios2-elf/4.1.2/mno-hw-mul\libgcc.a(_addsub_df.o)
 .comment       0x00000000       0x27 c:/altera/12.1sp1/nios2eds/bin/gnu/h-i686-mingw32/bin/../lib/gcc/nios2-elf/4.1.2/mno-hw-mul\libgcc.a(_mul_df.o)
 .comment       0x00000000       0x27 c:/altera/12.1sp1/nios2eds/bin/gnu/h-i686-mingw32/bin/../lib/gcc/nios2-elf/4.1.2/mno-hw-mul\libgcc.a(_si_to_df.o)
 .comment       0x00000000       0x27 c:/altera/12.1sp1/nios2eds/bin/gnu/h-i686-mingw32/bin/../lib/gcc/nios2-elf/4.1.2/mno-hw-mul\libgcc.a(_df_to_si.o)
 .comment       0x00000000       0x27 c:/altera/12.1sp1/nios2eds/bin/gnu/h-i686-mingw32/bin/../lib/gcc/nios2-elf/4.1.2/mno-hw-mul\libgcc.a(_make_df.o)
 .comment       0x00000000       0x27 c:/altera/12.1sp1/nios2eds/bin/gnu/h-i686-mingw32/bin/../lib/gcc/nios2-elf/4.1.2/mno-hw-mul\libgcc.a(_thenan_df.o)
 .comment       0x00000000       0x27 c:/altera/12.1sp1/nios2eds/bin/gnu/h-i686-mingw32/bin/../lib/gcc/nios2-elf/4.1.2/mno-hw-mul\libgcc.a(lib2-mul.o)
 .comment       0x00000000       0x27 c:/altera/12.1sp1/nios2eds/bin/gnu/h-i686-mingw32/bin/../lib/gcc/nios2-elf/4.1.2/mno-hw-mul\libgcc.a(_muldi3.o)
 .comment       0x00000000       0x27 c:/altera/12.1sp1/nios2eds/bin/gnu/h-i686-mingw32/bin/../lib/gcc/nios2-elf/4.1.2/mno-hw-mul\libgcc.a(_clzsi2.o)
 .comment       0x00000000       0x27 c:/altera/12.1sp1/nios2eds/bin/gnu/h-i686-mingw32/bin/../lib/gcc/nios2-elf/4.1.2/mno-hw-mul\libgcc.a(_pack_sf.o)
 .comment       0x00000000       0x27 c:/altera/12.1sp1/nios2eds/bin/gnu/h-i686-mingw32/bin/../lib/gcc/nios2-elf/4.1.2/mno-hw-mul\libgcc.a(_unpack_sf.o)
 .comment       0x00000000       0x27 c:/altera/12.1sp1/nios2eds/bin/gnu/h-i686-mingw32/bin/../lib/gcc/nios2-elf/4.1.2/mno-hw-mul\libgcc.a(_pack_df.o)
 .comment       0x00000000       0x27 c:/altera/12.1sp1/nios2eds/bin/gnu/h-i686-mingw32/bin/../lib/gcc/nios2-elf/4.1.2/mno-hw-mul\libgcc.a(_unpack_df.o)
 .comment       0x00000000       0x27 c:/altera/12.1sp1/nios2eds/bin/gnu/h-i686-mingw32/bin/../lib/gcc/nios2-elf/4.1.2/mno-hw-mul\libgcc.a(_clz.o)
 .comment       0x00000000       0x27 c:/altera/12.1sp1/nios2eds/bin/gnu/h-i686-mingw32/bin/../lib/gcc/nios2-elf/4.1.2/../../../../nios2-elf/lib/mno-hw-mul\libc.a(lib_a-calloc.o)
 .comment       0x00000000       0x27 c:/altera/12.1sp1/nios2eds/bin/gnu/h-i686-mingw32/bin/../lib/gcc/nios2-elf/4.1.2/../../../../nios2-elf/lib/mno-hw-mul\libc.a(lib_a-callocr.o)
 .comment       0x00000000       0x27 c:/altera/12.1sp1/nios2eds/bin/gnu/h-i686-mingw32/bin/../lib/gcc/nios2-elf/4.1.2/../../../../nios2-elf/lib/mno-hw-mul\libc.a(lib_a-clock.o)
 .comment       0x00000000       0x27 c:/altera/12.1sp1/nios2eds/bin/gnu/h-i686-mingw32/bin/../lib/gcc/nios2-elf/4.1.2/../../../../nios2-elf/lib/mno-hw-mul\libc.a(lib_a-impure.o)
 .comment       0x00000000       0x27 c:/altera/12.1sp1/nios2eds/bin/gnu/h-i686-mingw32/bin/../lib/gcc/nios2-elf/4.1.2/../../../../nios2-elf/lib/mno-hw-mul\libc.a(lib_a-mallocr.o)
 .comment       0x00000000       0x27 c:/altera/12.1sp1/nios2eds/bin/gnu/h-i686-mingw32/bin/../lib/gcc/nios2-elf/4.1.2/../../../../nios2-elf/lib/mno-hw-mul\libc.a(lib_a-memset.o)
 .comment       0x00000000       0x27 c:/altera/12.1sp1/nios2eds/bin/gnu/h-i686-mingw32/bin/../lib/gcc/nios2-elf/4.1.2/../../../../nios2-elf/lib/mno-hw-mul\libc.a(lib_a-printf.o)
 .comment       0x00000000       0x27 c:/altera/12.1sp1/nios2eds/bin/gnu/h-i686-mingw32/bin/../lib/gcc/nios2-elf/4.1.2/../../../../nios2-elf/lib/mno-hw-mul\libc.a(lib_a-puts.o)
 .comment       0x00000000       0x27 c:/altera/12.1sp1/nios2eds/bin/gnu/h-i686-mingw32/bin/../lib/gcc/nios2-elf/4.1.2/../../../../nios2-elf/lib/mno-hw-mul\libc.a(lib_a-sbrkr.o)
 .comment       0x00000000       0x27 c:/altera/12.1sp1/nios2eds/bin/gnu/h-i686-mingw32/bin/../lib/gcc/nios2-elf/4.1.2/../../../../nios2-elf/lib/mno-hw-mul\libc.a(lib_a-strlen.o)
 .comment       0x00000000       0x27 c:/altera/12.1sp1/nios2eds/bin/gnu/h-i686-mingw32/bin/../lib/gcc/nios2-elf/4.1.2/../../../../nios2-elf/lib/mno-hw-mul\libc.a(lib_a-timesr.o)
 .comment       0x00000000       0x27 c:/altera/12.1sp1/nios2eds/bin/gnu/h-i686-mingw32/bin/../lib/gcc/nios2-elf/4.1.2/../../../../nios2-elf/lib/mno-hw-mul\libc.a(lib_a-vfprintf.o)
 .comment       0x00000000       0x27 c:/altera/12.1sp1/nios2eds/bin/gnu/h-i686-mingw32/bin/../lib/gcc/nios2-elf/4.1.2/../../../../nios2-elf/lib/mno-hw-mul\libc.a(lib_a-wsetup.o)
 .comment       0x00000000       0x27 c:/altera/12.1sp1/nios2eds/bin/gnu/h-i686-mingw32/bin/../lib/gcc/nios2-elf/4.1.2/../../../../nios2-elf/lib/mno-hw-mul\libc.a(lib_a-dtoa.o)
 .comment       0x00000000       0x27 c:/altera/12.1sp1/nios2eds/bin/gnu/h-i686-mingw32/bin/../lib/gcc/nios2-elf/4.1.2/../../../../nios2-elf/lib/mno-hw-mul\libc.a(lib_a-fflush.o)
 .comment       0x00000000       0x27 c:/altera/12.1sp1/nios2eds/bin/gnu/h-i686-mingw32/bin/../lib/gcc/nios2-elf/4.1.2/../../../../nios2-elf/lib/mno-hw-mul\libc.a(lib_a-findfp.o)
 .comment       0x00000000       0x27 c:/altera/12.1sp1/nios2eds/bin/gnu/h-i686-mingw32/bin/../lib/gcc/nios2-elf/4.1.2/../../../../nios2-elf/lib/mno-hw-mul\libc.a(lib_a-freer.o)
 .comment       0x00000000       0x27 c:/altera/12.1sp1/nios2eds/bin/gnu/h-i686-mingw32/bin/../lib/gcc/nios2-elf/4.1.2/../../../../nios2-elf/lib/mno-hw-mul\libc.a(lib_a-fvwrite.o)
 .comment       0x00000000       0x27 c:/altera/12.1sp1/nios2eds/bin/gnu/h-i686-mingw32/bin/../lib/gcc/nios2-elf/4.1.2/../../../../nios2-elf/lib/mno-hw-mul\libc.a(lib_a-fwalk.o)
 .comment       0x00000000       0x27 c:/altera/12.1sp1/nios2eds/bin/gnu/h-i686-mingw32/bin/../lib/gcc/nios2-elf/4.1.2/../../../../nios2-elf/lib/mno-hw-mul\libc.a(lib_a-int_errno.o)
 .comment       0x00000000       0x27 c:/altera/12.1sp1/nios2eds/bin/gnu/h-i686-mingw32/bin/../lib/gcc/nios2-elf/4.1.2/../../../../nios2-elf/lib/mno-hw-mul\libc.a(lib_a-locale.o)
 .comment       0x00000000       0x27 c:/altera/12.1sp1/nios2eds/bin/gnu/h-i686-mingw32/bin/../lib/gcc/nios2-elf/4.1.2/../../../../nios2-elf/lib/mno-hw-mul\libc.a(lib_a-makebuf.o)
 .comment       0x00000000       0x27 c:/altera/12.1sp1/nios2eds/bin/gnu/h-i686-mingw32/bin/../lib/gcc/nios2-elf/4.1.2/../../../../nios2-elf/lib/mno-hw-mul\libc.a(lib_a-memchr.o)
 .comment       0x00000000       0x27 c:/altera/12.1sp1/nios2eds/bin/gnu/h-i686-mingw32/bin/../lib/gcc/nios2-elf/4.1.2/../../../../nios2-elf/lib/mno-hw-mul\libc.a(lib_a-memcpy.o)
 .comment       0x00000000       0x27 c:/altera/12.1sp1/nios2eds/bin/gnu/h-i686-mingw32/bin/../lib/gcc/nios2-elf/4.1.2/../../../../nios2-elf/lib/mno-hw-mul\libc.a(lib_a-memmove.o)
 .comment       0x00000000       0x27 c:/altera/12.1sp1/nios2eds/bin/gnu/h-i686-mingw32/bin/../lib/gcc/nios2-elf/4.1.2/../../../../nios2-elf/lib/mno-hw-mul\libc.a(lib_a-mprec.o)
 .comment       0x00000000       0x27 c:/altera/12.1sp1/nios2eds/bin/gnu/h-i686-mingw32/bin/../lib/gcc/nios2-elf/4.1.2/../../../../nios2-elf/lib/mno-hw-mul\libc.a(lib_a-reallocr.o)
 .comment       0x00000000       0x27 c:/altera/12.1sp1/nios2eds/bin/gnu/h-i686-mingw32/bin/../lib/gcc/nios2-elf/4.1.2/../../../../nios2-elf/lib/mno-hw-mul\libc.a(lib_a-s_isinfd.o)
 .comment       0x00000000       0x27 c:/altera/12.1sp1/nios2eds/bin/gnu/h-i686-mingw32/bin/../lib/gcc/nios2-elf/4.1.2/../../../../nios2-elf/lib/mno-hw-mul\libc.a(lib_a-s_isnand.o)
 .comment       0x00000000       0x27 c:/altera/12.1sp1/nios2eds/bin/gnu/h-i686-mingw32/bin/../lib/gcc/nios2-elf/4.1.2/../../../../nios2-elf/lib/mno-hw-mul\libc.a(lib_a-stdio.o)
 .comment       0x00000000       0x27 c:/altera/12.1sp1/nios2eds/bin/gnu/h-i686-mingw32/bin/../lib/gcc/nios2-elf/4.1.2/../../../../nios2-elf/lib/mno-hw-mul\libc.a(lib_a-strcmp.o)
 .comment       0x00000000       0x27 c:/altera/12.1sp1/nios2eds/bin/gnu/h-i686-mingw32/bin/../lib/gcc/nios2-elf/4.1.2/../../../../nios2-elf/lib/mno-hw-mul\libc.a(lib_a-writer.o)
 .comment       0x00000000       0x27 c:/altera/12.1sp1/nios2eds/bin/gnu/h-i686-mingw32/bin/../lib/gcc/nios2-elf/4.1.2/../../../../nios2-elf/lib/mno-hw-mul\libc.a(lib_a-closer.o)
 .comment       0x00000000       0x27 c:/altera/12.1sp1/nios2eds/bin/gnu/h-i686-mingw32/bin/../lib/gcc/nios2-elf/4.1.2/../../../../nios2-elf/lib/mno-hw-mul\libc.a(lib_a-fclose.o)
 .comment       0x00000000       0x27 c:/altera/12.1sp1/nios2eds/bin/gnu/h-i686-mingw32/bin/../lib/gcc/nios2-elf/4.1.2/../../../../nios2-elf/lib/mno-hw-mul\libc.a(lib_a-fstatr.o)
 .comment       0x00000000       0x27 c:/altera/12.1sp1/nios2eds/bin/gnu/h-i686-mingw32/bin/../lib/gcc/nios2-elf/4.1.2/../../../../nios2-elf/lib/mno-hw-mul\libc.a(lib_a-isattyr.o)
 .comment       0x00000000       0x27 c:/altera/12.1sp1/nios2eds/bin/gnu/h-i686-mingw32/bin/../lib/gcc/nios2-elf/4.1.2/../../../../nios2-elf/lib/mno-hw-mul\libc.a(lib_a-lseekr.o)
 .comment       0x00000000       0x27 c:/altera/12.1sp1/nios2eds/bin/gnu/h-i686-mingw32/bin/../lib/gcc/nios2-elf/4.1.2/../../../../nios2-elf/lib/mno-hw-mul\libc.a(lib_a-readr.o)
 .comment       0x00000000       0x27 c:/altera/12.1sp1/nios2eds/bin/gnu/h-i686-mingw32/bin/../lib/gcc/nios2-elf/4.1.2/mno-hw-mul\libgcc.a(_udivdi3.o)
 .comment       0x00000000       0x27 c:/altera/12.1sp1/nios2eds/bin/gnu/h-i686-mingw32/bin/../lib/gcc/nios2-elf/4.1.2/mno-hw-mul\libgcc.a(_umoddi3.o)
 .comment       0x00000000       0x27 c:/altera/12.1sp1/nios2eds/bin/gnu/h-i686-mingw32/bin/../lib/gcc/nios2-elf/4.1.2/mno-hw-mul\libgcc.a(_div_df.o)
 .comment       0x00000000       0x27 c:/altera/12.1sp1/nios2eds/bin/gnu/h-i686-mingw32/bin/../lib/gcc/nios2-elf/4.1.2/mno-hw-mul\libgcc.a(_eq_df.o)
 .comment       0x00000000       0x27 c:/altera/12.1sp1/nios2eds/bin/gnu/h-i686-mingw32/bin/../lib/gcc/nios2-elf/4.1.2/mno-hw-mul\libgcc.a(_ne_df.o)
 .comment       0x00000000       0x27 c:/altera/12.1sp1/nios2eds/bin/gnu/h-i686-mingw32/bin/../lib/gcc/nios2-elf/4.1.2/mno-hw-mul\libgcc.a(_gt_df.o)
 .comment       0x00000000       0x27 c:/altera/12.1sp1/nios2eds/bin/gnu/h-i686-mingw32/bin/../lib/gcc/nios2-elf/4.1.2/mno-hw-mul\libgcc.a(_ge_df.o)
 .comment       0x00000000       0x27 c:/altera/12.1sp1/nios2eds/bin/gnu/h-i686-mingw32/bin/../lib/gcc/nios2-elf/4.1.2/mno-hw-mul\libgcc.a(_lt_df.o)
 .comment       0x00000000       0x27 c:/altera/12.1sp1/nios2eds/bin/gnu/h-i686-mingw32/bin/../lib/gcc/nios2-elf/4.1.2/mno-hw-mul\libgcc.a(_usi_to_df.o)
 .comment       0x00000000       0x27 c:/altera/12.1sp1/nios2eds/bin/gnu/h-i686-mingw32/bin/../lib/gcc/nios2-elf/4.1.2/mno-hw-mul\libgcc.a(lib2-divmod.o)
 .comment       0x00000000       0x27 c:/altera/12.1sp1/nios2eds/bin/gnu/h-i686-mingw32/bin/../lib/gcc/nios2-elf/4.1.2/mno-hw-mul\libgcc.a(_fpcmp_parts_df.o)
 .comment       0x00000000       0x27 C:/Users/jchang3/Documents/ECE492/test/software/accelerometer_pen_bsp/\libucosii_bsp.a(alt_close.o)
 .comment       0x00000000       0x27 C:/Users/jchang3/Documents/ECE492/test/software/accelerometer_pen_bsp/\libucosii_bsp.a(alt_dev.o)
 .comment       0x00000000       0x27 C:/Users/jchang3/Documents/ECE492/test/software/accelerometer_pen_bsp/\libucosii_bsp.a(alt_errno.o)
 .comment       0x00000000       0x27 C:/Users/jchang3/Documents/ECE492/test/software/accelerometer_pen_bsp/\libucosii_bsp.a(alt_fstat.o)
 .comment       0x00000000       0x27 C:/Users/jchang3/Documents/ECE492/test/software/accelerometer_pen_bsp/\libucosii_bsp.a(alt_isatty.o)
 .comment       0x00000000       0x27 C:/Users/jchang3/Documents/ECE492/test/software/accelerometer_pen_bsp/\libucosii_bsp.a(alt_load.o)
 .comment       0x00000000       0x27 C:/Users/jchang3/Documents/ECE492/test/software/accelerometer_pen_bsp/\libucosii_bsp.a(alt_lseek.o)
 .comment       0x00000000       0x27 C:/Users/jchang3/Documents/ECE492/test/software/accelerometer_pen_bsp/\libucosii_bsp.a(alt_main.o)
 .comment       0x00000000       0x27 C:/Users/jchang3/Documents/ECE492/test/software/accelerometer_pen_bsp/\libucosii_bsp.a(alt_printf.o)
 .comment       0x00000000       0x27 C:/Users/jchang3/Documents/ECE492/test/software/accelerometer_pen_bsp/\libucosii_bsp.a(alt_putchar.o)
 .comment       0x00000000       0x27 C:/Users/jchang3/Documents/ECE492/test/software/accelerometer_pen_bsp/\libucosii_bsp.a(alt_read.o)
 .comment       0x00000000       0x27 C:/Users/jchang3/Documents/ECE492/test/software/accelerometer_pen_bsp/\libucosii_bsp.a(alt_release_fd.o)
 .comment       0x00000000       0x27 C:/Users/jchang3/Documents/ECE492/test/software/accelerometer_pen_bsp/\libucosii_bsp.a(alt_sbrk.o)
 .comment       0x00000000       0x27 C:/Users/jchang3/Documents/ECE492/test/software/accelerometer_pen_bsp/\libucosii_bsp.a(alt_times.o)
 .comment       0x00000000       0x27 C:/Users/jchang3/Documents/ECE492/test/software/accelerometer_pen_bsp/\libucosii_bsp.a(alt_write.o)
 .comment       0x00000000       0x27 C:/Users/jchang3/Documents/ECE492/test/software/accelerometer_pen_bsp/\libucosii_bsp.a(alt_env_lock.o)
 .comment       0x00000000       0x27 C:/Users/jchang3/Documents/ECE492/test/software/accelerometer_pen_bsp/\libucosii_bsp.a(alt_malloc_lock.o)
 .comment       0x00000000       0x27 C:/Users/jchang3/Documents/ECE492/test/software/accelerometer_pen_bsp/\libucosii_bsp.a(os_core.o)
 .comment       0x00000000       0x27 C:/Users/jchang3/Documents/ECE492/test/software/accelerometer_pen_bsp/\libucosii_bsp.a(os_dbg.o)
 .comment       0x00000000       0x27 C:/Users/jchang3/Documents/ECE492/test/software/accelerometer_pen_bsp/\libucosii_bsp.a(os_flag.o)
 .comment       0x00000000       0x27 C:/Users/jchang3/Documents/ECE492/test/software/accelerometer_pen_bsp/\libucosii_bsp.a(os_mem.o)
 .comment       0x00000000       0x27 C:/Users/jchang3/Documents/ECE492/test/software/accelerometer_pen_bsp/\libucosii_bsp.a(os_q.o)
 .comment       0x00000000       0x27 C:/Users/jchang3/Documents/ECE492/test/software/accelerometer_pen_bsp/\libucosii_bsp.a(os_sem.o)
 .comment       0x00000000       0x27 C:/Users/jchang3/Documents/ECE492/test/software/accelerometer_pen_bsp/\libucosii_bsp.a(os_task.o)
 .comment       0x00000000       0x27 C:/Users/jchang3/Documents/ECE492/test/software/accelerometer_pen_bsp/\libucosii_bsp.a(os_time.o)
 .comment       0x00000000       0x27 C:/Users/jchang3/Documents/ECE492/test/software/accelerometer_pen_bsp/\libucosii_bsp.a(alt_sys_init.o)
 .comment       0x00000000       0x27 C:/Users/jchang3/Documents/ECE492/test/software/accelerometer_pen_bsp/\libucosii_bsp.a(altera_avalon_jtag_uart_fd.o)
 .comment       0x00000000       0x27 C:/Users/jchang3/Documents/ECE492/test/software/accelerometer_pen_bsp/\libucosii_bsp.a(altera_avalon_jtag_uart_init.o)
 .comment       0x00000000       0x27 C:/Users/jchang3/Documents/ECE492/test/software/accelerometer_pen_bsp/\libucosii_bsp.a(altera_avalon_jtag_uart_ioctl.o)
 .comment       0x00000000       0x27 C:/Users/jchang3/Documents/ECE492/test/software/accelerometer_pen_bsp/\libucosii_bsp.a(altera_avalon_jtag_uart_read.o)
 .comment       0x00000000       0x27 C:/Users/jchang3/Documents/ECE492/test/software/accelerometer_pen_bsp/\libucosii_bsp.a(altera_avalon_jtag_uart_write.o)
 .comment       0x00000000       0x27 C:/Users/jchang3/Documents/ECE492/test/software/accelerometer_pen_bsp/\libucosii_bsp.a(altera_avalon_timer_sc.o)
 .comment       0x00000000       0x27 C:/Users/jchang3/Documents/ECE492/test/software/accelerometer_pen_bsp/\libucosii_bsp.a(altera_up_avalon_character_lcd.o)
 .comment       0x00000000       0x27 C:/Users/jchang3/Documents/ECE492/test/software/accelerometer_pen_bsp/\libucosii_bsp.a(altera_up_avalon_rs232.o)
 .comment       0x00000000       0x27 C:/Users/jchang3/Documents/ECE492/test/software/accelerometer_pen_bsp/\libucosii_bsp.a(altera_up_sd_card_avalon_interface.o)
 .comment       0x00000000       0x27 C:/Users/jchang3/Documents/ECE492/test/software/accelerometer_pen_bsp/\libucosii_bsp.a(alt_alarm_start.o)
 .comment       0x00000000       0x27 C:/Users/jchang3/Documents/ECE492/test/software/accelerometer_pen_bsp/\libucosii_bsp.a(alt_dcache_flush_all.o)
 .comment       0x00000000       0x27 C:/Users/jchang3/Documents/ECE492/test/software/accelerometer_pen_bsp/\libucosii_bsp.a(alt_dev_llist_insert.o)
 .comment       0x00000000       0x27 C:/Users/jchang3/Documents/ECE492/test/software/accelerometer_pen_bsp/\libucosii_bsp.a(alt_do_ctors.o)
 .comment       0x00000000       0x27 C:/Users/jchang3/Documents/ECE492/test/software/accelerometer_pen_bsp/\libucosii_bsp.a(alt_do_dtors.o)
 .comment       0x00000000       0x27 C:/Users/jchang3/Documents/ECE492/test/software/accelerometer_pen_bsp/\libucosii_bsp.a(alt_find_dev.o)
 .comment       0x00000000       0x27 C:/Users/jchang3/Documents/ECE492/test/software/accelerometer_pen_bsp/\libucosii_bsp.a(alt_icache_flush_all.o)
 .comment       0x00000000       0x27 C:/Users/jchang3/Documents/ECE492/test/software/accelerometer_pen_bsp/\libucosii_bsp.a(alt_io_redirect.o)
 .comment       0x00000000       0x27 C:/Users/jchang3/Documents/ECE492/test/software/accelerometer_pen_bsp/\libucosii_bsp.a(alt_irq_register.o)
 .comment       0x00000000       0x27 C:/Users/jchang3/Documents/ECE492/test/software/accelerometer_pen_bsp/\libucosii_bsp.a(alt_irq_vars.o)
 .comment       0x00000000       0x27 C:/Users/jchang3/Documents/ECE492/test/software/accelerometer_pen_bsp/\libucosii_bsp.a(alt_open.o)
 .comment       0x00000000       0x27 C:/Users/jchang3/Documents/ECE492/test/software/accelerometer_pen_bsp/\libucosii_bsp.a(alt_tick.o)
 .comment       0x00000000       0x27 C:/Users/jchang3/Documents/ECE492/test/software/accelerometer_pen_bsp/\libucosii_bsp.a(altera_nios2_qsys_irq.o)
 .comment       0x00000000       0x27 C:/Users/jchang3/Documents/ECE492/test/software/accelerometer_pen_bsp/\libucosii_bsp.a(os_cpu_c.o)
 .comment       0x00000000       0x27 C:/Users/jchang3/Documents/ECE492/test/software/accelerometer_pen_bsp/\libucosii_bsp.a(alt_find_file.o)
 .comment       0x00000000       0x27 C:/Users/jchang3/Documents/ECE492/test/software/accelerometer_pen_bsp/\libucosii_bsp.a(alt_get_fd.o)
 .comment       0x00000000       0x27 C:/Users/jchang3/Documents/ECE492/test/software/accelerometer_pen_bsp/\libucosii_bsp.a(alt_irq_handler.o)
 .comment       0x00000000       0x27 c:/altera/12.1sp1/nios2eds/bin/gnu/h-i686-mingw32/bin/../lib/gcc/nios2-elf/4.1.2/../../../../nios2-elf/lib/mno-hw-mul\libc.a(lib_a-atexit.o)
 .comment       0x00000000       0x27 c:/altera/12.1sp1/nios2eds/bin/gnu/h-i686-mingw32/bin/../lib/gcc/nios2-elf/4.1.2/../../../../nios2-elf/lib/mno-hw-mul\libc.a(lib_a-exit.o)
 .comment       0x00000000       0x27 c:/altera/12.1sp1/nios2eds/bin/gnu/h-i686-mingw32/bin/../lib/gcc/nios2-elf/4.1.2/../../../../nios2-elf/lib/mno-hw-mul\libc.a(lib_a-memcmp.o)
 .comment       0x00000000       0x27 c:/altera/12.1sp1/nios2eds/bin/gnu/h-i686-mingw32/bin/../lib/gcc/nios2-elf/4.1.2/../../../../nios2-elf/lib/mno-hw-mul\libc.a(lib_a-putc.o)
 .comment       0x00000000       0x27 c:/altera/12.1sp1/nios2eds/bin/gnu/h-i686-mingw32/bin/../lib/gcc/nios2-elf/4.1.2/../../../../nios2-elf/lib/mno-hw-mul\libc.a(lib_a-wbuf.o)
 .comment       0x00000000       0x27 c:/altera/12.1sp1/nios2eds/bin/gnu/h-i686-mingw32/bin/../lib/gcc/nios2-elf/4.1.2/../../../../nios2-elf/lib/mno-hw-mul\libc.a(lib_a-__atexit.o)
 .comment       0x00000000       0x27 c:/altera/12.1sp1/nios2eds/bin/gnu/h-i686-mingw32/bin/../lib/gcc/nios2-elf/4.1.2/../../../../nios2-elf/lib/mno-hw-mul\libc.a(lib_a-__call_atexit.o)
 .comment       0x00000000       0x27 C:/Users/jchang3/Documents/ECE492/test/software/accelerometer_pen_bsp/\libucosii_bsp.a(alt_exit.o)

.debug
 *(.debug)

.line
 *(.line)

.debug_srcinfo
 *(.debug_srcinfo)

.debug_sfnames
 *(.debug_sfnames)

.debug_aranges  0x00000000      0xff8
 *(.debug_aranges)
 .debug_aranges
                0x00000000       0x28 C:/Users/jchang3/Documents/ECE492/test/software/accelerometer_pen_bsp//obj/HAL/src/crt0.o
 .debug_aranges
                0x00000028       0x20 obj/default/dtw.o
 .debug_aranges
                0x00000048       0x20 obj/default/hello_ucosii.o
 .debug_aranges
                0x00000068       0x20 c:/altera/12.1sp1/nios2eds/bin/gnu/h-i686-mingw32/bin/../lib/gcc/nios2-elf/4.1.2/mno-hw-mul\libgcc.a(_div_sf.o)
 .debug_aranges
                0x00000088       0x20 c:/altera/12.1sp1/nios2eds/bin/gnu/h-i686-mingw32/bin/../lib/gcc/nios2-elf/4.1.2/mno-hw-mul\libgcc.a(_sf_to_df.o)
 .debug_aranges
                0x000000a8       0x20 c:/altera/12.1sp1/nios2eds/bin/gnu/h-i686-mingw32/bin/../lib/gcc/nios2-elf/4.1.2/mno-hw-mul\libgcc.a(_usi_to_sf.o)
 .debug_aranges
                0x000000c8       0x20 c:/altera/12.1sp1/nios2eds/bin/gnu/h-i686-mingw32/bin/../lib/gcc/nios2-elf/4.1.2/mno-hw-mul\libgcc.a(_addsub_df.o)
 .debug_aranges
                0x000000e8       0x20 c:/altera/12.1sp1/nios2eds/bin/gnu/h-i686-mingw32/bin/../lib/gcc/nios2-elf/4.1.2/mno-hw-mul\libgcc.a(_mul_df.o)
 .debug_aranges
                0x00000108       0x20 c:/altera/12.1sp1/nios2eds/bin/gnu/h-i686-mingw32/bin/../lib/gcc/nios2-elf/4.1.2/mno-hw-mul\libgcc.a(_si_to_df.o)
 .debug_aranges
                0x00000128       0x20 c:/altera/12.1sp1/nios2eds/bin/gnu/h-i686-mingw32/bin/../lib/gcc/nios2-elf/4.1.2/mno-hw-mul\libgcc.a(_df_to_si.o)
 .debug_aranges
                0x00000148       0x20 c:/altera/12.1sp1/nios2eds/bin/gnu/h-i686-mingw32/bin/../lib/gcc/nios2-elf/4.1.2/mno-hw-mul\libgcc.a(_make_df.o)
 .debug_aranges
                0x00000168       0x20 c:/altera/12.1sp1/nios2eds/bin/gnu/h-i686-mingw32/bin/../lib/gcc/nios2-elf/4.1.2/mno-hw-mul\libgcc.a(lib2-mul.o)
 .debug_aranges
                0x00000188       0x20 c:/altera/12.1sp1/nios2eds/bin/gnu/h-i686-mingw32/bin/../lib/gcc/nios2-elf/4.1.2/mno-hw-mul\libgcc.a(_muldi3.o)
 .debug_aranges
                0x000001a8       0x20 c:/altera/12.1sp1/nios2eds/bin/gnu/h-i686-mingw32/bin/../lib/gcc/nios2-elf/4.1.2/mno-hw-mul\libgcc.a(_clzsi2.o)
 .debug_aranges
                0x000001c8       0x20 c:/altera/12.1sp1/nios2eds/bin/gnu/h-i686-mingw32/bin/../lib/gcc/nios2-elf/4.1.2/mno-hw-mul\libgcc.a(_pack_sf.o)
 .debug_aranges
                0x000001e8       0x20 c:/altera/12.1sp1/nios2eds/bin/gnu/h-i686-mingw32/bin/../lib/gcc/nios2-elf/4.1.2/mno-hw-mul\libgcc.a(_unpack_sf.o)
 .debug_aranges
                0x00000208       0x20 c:/altera/12.1sp1/nios2eds/bin/gnu/h-i686-mingw32/bin/../lib/gcc/nios2-elf/4.1.2/mno-hw-mul\libgcc.a(_pack_df.o)
 .debug_aranges
                0x00000228       0x20 c:/altera/12.1sp1/nios2eds/bin/gnu/h-i686-mingw32/bin/../lib/gcc/nios2-elf/4.1.2/mno-hw-mul\libgcc.a(_unpack_df.o)
 .debug_aranges
                0x00000248       0x20 c:/altera/12.1sp1/nios2eds/bin/gnu/h-i686-mingw32/bin/../lib/gcc/nios2-elf/4.1.2/../../../../nios2-elf/lib/mno-hw-mul\libc.a(lib_a-calloc.o)
 .debug_aranges
                0x00000268       0x20 c:/altera/12.1sp1/nios2eds/bin/gnu/h-i686-mingw32/bin/../lib/gcc/nios2-elf/4.1.2/../../../../nios2-elf/lib/mno-hw-mul\libc.a(lib_a-callocr.o)
 .debug_aranges
                0x00000288       0x20 c:/altera/12.1sp1/nios2eds/bin/gnu/h-i686-mingw32/bin/../lib/gcc/nios2-elf/4.1.2/../../../../nios2-elf/lib/mno-hw-mul\libc.a(lib_a-clock.o)
 .debug_aranges
                0x000002a8       0x20 c:/altera/12.1sp1/nios2eds/bin/gnu/h-i686-mingw32/bin/../lib/gcc/nios2-elf/4.1.2/../../../../nios2-elf/lib/mno-hw-mul\libc.a(lib_a-mallocr.o)
 .debug_aranges
                0x000002c8       0x20 c:/altera/12.1sp1/nios2eds/bin/gnu/h-i686-mingw32/bin/../lib/gcc/nios2-elf/4.1.2/../../../../nios2-elf/lib/mno-hw-mul\libc.a(lib_a-memset.o)
 .debug_aranges
                0x000002e8       0x20 c:/altera/12.1sp1/nios2eds/bin/gnu/h-i686-mingw32/bin/../lib/gcc/nios2-elf/4.1.2/../../../../nios2-elf/lib/mno-hw-mul\libc.a(lib_a-printf.o)
 .debug_aranges
                0x00000308       0x20 c:/altera/12.1sp1/nios2eds/bin/gnu/h-i686-mingw32/bin/../lib/gcc/nios2-elf/4.1.2/../../../../nios2-elf/lib/mno-hw-mul\libc.a(lib_a-puts.o)
 .debug_aranges
                0x00000328       0x20 c:/altera/12.1sp1/nios2eds/bin/gnu/h-i686-mingw32/bin/../lib/gcc/nios2-elf/4.1.2/../../../../nios2-elf/lib/mno-hw-mul\libc.a(lib_a-sbrkr.o)
 .debug_aranges
                0x00000348       0x20 c:/altera/12.1sp1/nios2eds/bin/gnu/h-i686-mingw32/bin/../lib/gcc/nios2-elf/4.1.2/../../../../nios2-elf/lib/mno-hw-mul\libc.a(lib_a-strlen.o)
 .debug_aranges
                0x00000368       0x20 c:/altera/12.1sp1/nios2eds/bin/gnu/h-i686-mingw32/bin/../lib/gcc/nios2-elf/4.1.2/../../../../nios2-elf/lib/mno-hw-mul\libc.a(lib_a-timesr.o)
 .debug_aranges
                0x00000388       0x20 c:/altera/12.1sp1/nios2eds/bin/gnu/h-i686-mingw32/bin/../lib/gcc/nios2-elf/4.1.2/../../../../nios2-elf/lib/mno-hw-mul\libc.a(lib_a-vfprintf.o)
 .debug_aranges
                0x000003a8       0x20 c:/altera/12.1sp1/nios2eds/bin/gnu/h-i686-mingw32/bin/../lib/gcc/nios2-elf/4.1.2/../../../../nios2-elf/lib/mno-hw-mul\libc.a(lib_a-wsetup.o)
 .debug_aranges
                0x000003c8       0x20 c:/altera/12.1sp1/nios2eds/bin/gnu/h-i686-mingw32/bin/../lib/gcc/nios2-elf/4.1.2/../../../../nios2-elf/lib/mno-hw-mul\libc.a(lib_a-dtoa.o)
 .debug_aranges
                0x000003e8       0x20 c:/altera/12.1sp1/nios2eds/bin/gnu/h-i686-mingw32/bin/../lib/gcc/nios2-elf/4.1.2/../../../../nios2-elf/lib/mno-hw-mul\libc.a(lib_a-fflush.o)
 .debug_aranges
                0x00000408       0x20 c:/altera/12.1sp1/nios2eds/bin/gnu/h-i686-mingw32/bin/../lib/gcc/nios2-elf/4.1.2/../../../../nios2-elf/lib/mno-hw-mul\libc.a(lib_a-findfp.o)
 .debug_aranges
                0x00000428       0x20 c:/altera/12.1sp1/nios2eds/bin/gnu/h-i686-mingw32/bin/../lib/gcc/nios2-elf/4.1.2/../../../../nios2-elf/lib/mno-hw-mul\libc.a(lib_a-freer.o)
 .debug_aranges
                0x00000448       0x20 c:/altera/12.1sp1/nios2eds/bin/gnu/h-i686-mingw32/bin/../lib/gcc/nios2-elf/4.1.2/../../../../nios2-elf/lib/mno-hw-mul\libc.a(lib_a-fvwrite.o)
 .debug_aranges
                0x00000468       0x20 c:/altera/12.1sp1/nios2eds/bin/gnu/h-i686-mingw32/bin/../lib/gcc/nios2-elf/4.1.2/../../../../nios2-elf/lib/mno-hw-mul\libc.a(lib_a-fwalk.o)
 .debug_aranges
                0x00000488       0x20 c:/altera/12.1sp1/nios2eds/bin/gnu/h-i686-mingw32/bin/../lib/gcc/nios2-elf/4.1.2/../../../../nios2-elf/lib/mno-hw-mul\libc.a(lib_a-locale.o)
 .debug_aranges
                0x000004a8       0x20 c:/altera/12.1sp1/nios2eds/bin/gnu/h-i686-mingw32/bin/../lib/gcc/nios2-elf/4.1.2/../../../../nios2-elf/lib/mno-hw-mul\libc.a(lib_a-makebuf.o)
 .debug_aranges
                0x000004c8       0x20 c:/altera/12.1sp1/nios2eds/bin/gnu/h-i686-mingw32/bin/../lib/gcc/nios2-elf/4.1.2/../../../../nios2-elf/lib/mno-hw-mul\libc.a(lib_a-memchr.o)
 .debug_aranges
                0x000004e8       0x20 c:/altera/12.1sp1/nios2eds/bin/gnu/h-i686-mingw32/bin/../lib/gcc/nios2-elf/4.1.2/../../../../nios2-elf/lib/mno-hw-mul\libc.a(lib_a-memcpy.o)
 .debug_aranges
                0x00000508       0x20 c:/altera/12.1sp1/nios2eds/bin/gnu/h-i686-mingw32/bin/../lib/gcc/nios2-elf/4.1.2/../../../../nios2-elf/lib/mno-hw-mul\libc.a(lib_a-memmove.o)
 .debug_aranges
                0x00000528       0x20 c:/altera/12.1sp1/nios2eds/bin/gnu/h-i686-mingw32/bin/../lib/gcc/nios2-elf/4.1.2/../../../../nios2-elf/lib/mno-hw-mul\libc.a(lib_a-mprec.o)
 .debug_aranges
                0x00000548       0x20 c:/altera/12.1sp1/nios2eds/bin/gnu/h-i686-mingw32/bin/../lib/gcc/nios2-elf/4.1.2/../../../../nios2-elf/lib/mno-hw-mul\libc.a(lib_a-reallocr.o)
 .debug_aranges
                0x00000568       0x20 c:/altera/12.1sp1/nios2eds/bin/gnu/h-i686-mingw32/bin/../lib/gcc/nios2-elf/4.1.2/../../../../nios2-elf/lib/mno-hw-mul\libc.a(lib_a-s_isinfd.o)
 .debug_aranges
                0x00000588       0x20 c:/altera/12.1sp1/nios2eds/bin/gnu/h-i686-mingw32/bin/../lib/gcc/nios2-elf/4.1.2/../../../../nios2-elf/lib/mno-hw-mul\libc.a(lib_a-s_isnand.o)
 .debug_aranges
                0x000005a8       0x20 c:/altera/12.1sp1/nios2eds/bin/gnu/h-i686-mingw32/bin/../lib/gcc/nios2-elf/4.1.2/../../../../nios2-elf/lib/mno-hw-mul\libc.a(lib_a-stdio.o)
 .debug_aranges
                0x000005c8       0x20 c:/altera/12.1sp1/nios2eds/bin/gnu/h-i686-mingw32/bin/../lib/gcc/nios2-elf/4.1.2/../../../../nios2-elf/lib/mno-hw-mul\libc.a(lib_a-strcmp.o)
 .debug_aranges
                0x000005e8       0x20 c:/altera/12.1sp1/nios2eds/bin/gnu/h-i686-mingw32/bin/../lib/gcc/nios2-elf/4.1.2/../../../../nios2-elf/lib/mno-hw-mul\libc.a(lib_a-writer.o)
 .debug_aranges
                0x00000608       0x20 c:/altera/12.1sp1/nios2eds/bin/gnu/h-i686-mingw32/bin/../lib/gcc/nios2-elf/4.1.2/../../../../nios2-elf/lib/mno-hw-mul\libc.a(lib_a-closer.o)
 .debug_aranges
                0x00000628       0x20 c:/altera/12.1sp1/nios2eds/bin/gnu/h-i686-mingw32/bin/../lib/gcc/nios2-elf/4.1.2/../../../../nios2-elf/lib/mno-hw-mul\libc.a(lib_a-fclose.o)
 .debug_aranges
                0x00000648       0x20 c:/altera/12.1sp1/nios2eds/bin/gnu/h-i686-mingw32/bin/../lib/gcc/nios2-elf/4.1.2/../../../../nios2-elf/lib/mno-hw-mul\libc.a(lib_a-fstatr.o)
 .debug_aranges
                0x00000668       0x20 c:/altera/12.1sp1/nios2eds/bin/gnu/h-i686-mingw32/bin/../lib/gcc/nios2-elf/4.1.2/../../../../nios2-elf/lib/mno-hw-mul\libc.a(lib_a-isattyr.o)
 .debug_aranges
                0x00000688       0x20 c:/altera/12.1sp1/nios2eds/bin/gnu/h-i686-mingw32/bin/../lib/gcc/nios2-elf/4.1.2/../../../../nios2-elf/lib/mno-hw-mul\libc.a(lib_a-lseekr.o)
 .debug_aranges
                0x000006a8       0x20 c:/altera/12.1sp1/nios2eds/bin/gnu/h-i686-mingw32/bin/../lib/gcc/nios2-elf/4.1.2/../../../../nios2-elf/lib/mno-hw-mul\libc.a(lib_a-readr.o)
 .debug_aranges
                0x000006c8       0x20 c:/altera/12.1sp1/nios2eds/bin/gnu/h-i686-mingw32/bin/../lib/gcc/nios2-elf/4.1.2/mno-hw-mul\libgcc.a(_udivdi3.o)
 .debug_aranges
                0x000006e8       0x20 c:/altera/12.1sp1/nios2eds/bin/gnu/h-i686-mingw32/bin/../lib/gcc/nios2-elf/4.1.2/mno-hw-mul\libgcc.a(_umoddi3.o)
 .debug_aranges
                0x00000708       0x20 c:/altera/12.1sp1/nios2eds/bin/gnu/h-i686-mingw32/bin/../lib/gcc/nios2-elf/4.1.2/mno-hw-mul\libgcc.a(_div_df.o)
 .debug_aranges
                0x00000728       0x20 c:/altera/12.1sp1/nios2eds/bin/gnu/h-i686-mingw32/bin/../lib/gcc/nios2-elf/4.1.2/mno-hw-mul\libgcc.a(_eq_df.o)
 .debug_aranges
                0x00000748       0x20 c:/altera/12.1sp1/nios2eds/bin/gnu/h-i686-mingw32/bin/../lib/gcc/nios2-elf/4.1.2/mno-hw-mul\libgcc.a(_ne_df.o)
 .debug_aranges
                0x00000768       0x20 c:/altera/12.1sp1/nios2eds/bin/gnu/h-i686-mingw32/bin/../lib/gcc/nios2-elf/4.1.2/mno-hw-mul\libgcc.a(_gt_df.o)
 .debug_aranges
                0x00000788       0x20 c:/altera/12.1sp1/nios2eds/bin/gnu/h-i686-mingw32/bin/../lib/gcc/nios2-elf/4.1.2/mno-hw-mul\libgcc.a(_ge_df.o)
 .debug_aranges
                0x000007a8       0x20 c:/altera/12.1sp1/nios2eds/bin/gnu/h-i686-mingw32/bin/../lib/gcc/nios2-elf/4.1.2/mno-hw-mul\libgcc.a(_lt_df.o)
 .debug_aranges
                0x000007c8       0x20 c:/altera/12.1sp1/nios2eds/bin/gnu/h-i686-mingw32/bin/../lib/gcc/nios2-elf/4.1.2/mno-hw-mul\libgcc.a(_usi_to_df.o)
 .debug_aranges
                0x000007e8       0x20 c:/altera/12.1sp1/nios2eds/bin/gnu/h-i686-mingw32/bin/../lib/gcc/nios2-elf/4.1.2/mno-hw-mul\libgcc.a(lib2-divmod.o)
 .debug_aranges
                0x00000808       0x20 c:/altera/12.1sp1/nios2eds/bin/gnu/h-i686-mingw32/bin/../lib/gcc/nios2-elf/4.1.2/mno-hw-mul\libgcc.a(_fpcmp_parts_df.o)
 .debug_aranges
                0x00000828       0x20 C:/Users/jchang3/Documents/ECE492/test/software/accelerometer_pen_bsp/\libucosii_bsp.a(alt_close.o)
 .debug_aranges
                0x00000848       0x20 C:/Users/jchang3/Documents/ECE492/test/software/accelerometer_pen_bsp/\libucosii_bsp.a(alt_dev.o)
 .debug_aranges
                0x00000868       0x20 C:/Users/jchang3/Documents/ECE492/test/software/accelerometer_pen_bsp/\libucosii_bsp.a(alt_fstat.o)
 .debug_aranges
                0x00000888       0x20 C:/Users/jchang3/Documents/ECE492/test/software/accelerometer_pen_bsp/\libucosii_bsp.a(alt_isatty.o)
 .debug_aranges
                0x000008a8       0x20 C:/Users/jchang3/Documents/ECE492/test/software/accelerometer_pen_bsp/\libucosii_bsp.a(alt_load.o)
 .debug_aranges
                0x000008c8       0x20 C:/Users/jchang3/Documents/ECE492/test/software/accelerometer_pen_bsp/\libucosii_bsp.a(alt_lseek.o)
 .debug_aranges
                0x000008e8       0x20 C:/Users/jchang3/Documents/ECE492/test/software/accelerometer_pen_bsp/\libucosii_bsp.a(alt_main.o)
 .debug_aranges
                0x00000908       0x20 C:/Users/jchang3/Documents/ECE492/test/software/accelerometer_pen_bsp/\libucosii_bsp.a(alt_printf.o)
 .debug_aranges
                0x00000928       0x20 C:/Users/jchang3/Documents/ECE492/test/software/accelerometer_pen_bsp/\libucosii_bsp.a(alt_putchar.o)
 .debug_aranges
                0x00000948       0x20 C:/Users/jchang3/Documents/ECE492/test/software/accelerometer_pen_bsp/\libucosii_bsp.a(alt_read.o)
 .debug_aranges
                0x00000968       0x20 C:/Users/jchang3/Documents/ECE492/test/software/accelerometer_pen_bsp/\libucosii_bsp.a(alt_release_fd.o)
 .debug_aranges
                0x00000988       0x20 C:/Users/jchang3/Documents/ECE492/test/software/accelerometer_pen_bsp/\libucosii_bsp.a(alt_sbrk.o)
 .debug_aranges
                0x000009a8       0x20 C:/Users/jchang3/Documents/ECE492/test/software/accelerometer_pen_bsp/\libucosii_bsp.a(alt_times.o)
 .debug_aranges
                0x000009c8       0x20 C:/Users/jchang3/Documents/ECE492/test/software/accelerometer_pen_bsp/\libucosii_bsp.a(alt_write.o)
 .debug_aranges
                0x000009e8       0x20 C:/Users/jchang3/Documents/ECE492/test/software/accelerometer_pen_bsp/\libucosii_bsp.a(alt_env_lock.o)
 .debug_aranges
                0x00000a08       0x20 C:/Users/jchang3/Documents/ECE492/test/software/accelerometer_pen_bsp/\libucosii_bsp.a(alt_malloc_lock.o)
 .debug_aranges
                0x00000a28       0x20 C:/Users/jchang3/Documents/ECE492/test/software/accelerometer_pen_bsp/\libucosii_bsp.a(os_core.o)
 .debug_aranges
                0x00000a48       0x20 C:/Users/jchang3/Documents/ECE492/test/software/accelerometer_pen_bsp/\libucosii_bsp.a(os_dbg.o)
 .debug_aranges
                0x00000a68       0x20 C:/Users/jchang3/Documents/ECE492/test/software/accelerometer_pen_bsp/\libucosii_bsp.a(os_flag.o)
 .debug_aranges
                0x00000a88       0x20 C:/Users/jchang3/Documents/ECE492/test/software/accelerometer_pen_bsp/\libucosii_bsp.a(os_mem.o)
 .debug_aranges
                0x00000aa8       0x20 C:/Users/jchang3/Documents/ECE492/test/software/accelerometer_pen_bsp/\libucosii_bsp.a(os_q.o)
 .debug_aranges
                0x00000ac8       0x20 C:/Users/jchang3/Documents/ECE492/test/software/accelerometer_pen_bsp/\libucosii_bsp.a(os_sem.o)
 .debug_aranges
                0x00000ae8       0x20 C:/Users/jchang3/Documents/ECE492/test/software/accelerometer_pen_bsp/\libucosii_bsp.a(os_task.o)
 .debug_aranges
                0x00000b08       0x20 C:/Users/jchang3/Documents/ECE492/test/software/accelerometer_pen_bsp/\libucosii_bsp.a(os_time.o)
 .debug_aranges
                0x00000b28       0x20 C:/Users/jchang3/Documents/ECE492/test/software/accelerometer_pen_bsp/\libucosii_bsp.a(alt_sys_init.o)
 .debug_aranges
                0x00000b48       0x20 C:/Users/jchang3/Documents/ECE492/test/software/accelerometer_pen_bsp/\libucosii_bsp.a(altera_avalon_jtag_uart_fd.o)
 .debug_aranges
                0x00000b68       0x20 C:/Users/jchang3/Documents/ECE492/test/software/accelerometer_pen_bsp/\libucosii_bsp.a(altera_avalon_jtag_uart_init.o)
 .debug_aranges
                0x00000b88       0x20 C:/Users/jchang3/Documents/ECE492/test/software/accelerometer_pen_bsp/\libucosii_bsp.a(altera_avalon_jtag_uart_ioctl.o)
 .debug_aranges
                0x00000ba8       0x20 C:/Users/jchang3/Documents/ECE492/test/software/accelerometer_pen_bsp/\libucosii_bsp.a(altera_avalon_jtag_uart_read.o)
 .debug_aranges
                0x00000bc8       0x20 C:/Users/jchang3/Documents/ECE492/test/software/accelerometer_pen_bsp/\libucosii_bsp.a(altera_avalon_jtag_uart_write.o)
 .debug_aranges
                0x00000be8       0x20 C:/Users/jchang3/Documents/ECE492/test/software/accelerometer_pen_bsp/\libucosii_bsp.a(altera_avalon_timer_sc.o)
 .debug_aranges
                0x00000c08       0x20 C:/Users/jchang3/Documents/ECE492/test/software/accelerometer_pen_bsp/\libucosii_bsp.a(altera_up_avalon_character_lcd.o)
 .debug_aranges
                0x00000c28       0x20 C:/Users/jchang3/Documents/ECE492/test/software/accelerometer_pen_bsp/\libucosii_bsp.a(altera_up_avalon_rs232.o)
 .debug_aranges
                0x00000c48       0x20 C:/Users/jchang3/Documents/ECE492/test/software/accelerometer_pen_bsp/\libucosii_bsp.a(altera_up_sd_card_avalon_interface.o)
 .debug_aranges
                0x00000c68       0x20 C:/Users/jchang3/Documents/ECE492/test/software/accelerometer_pen_bsp/\libucosii_bsp.a(alt_alarm_start.o)
 .debug_aranges
                0x00000c88       0x20 C:/Users/jchang3/Documents/ECE492/test/software/accelerometer_pen_bsp/\libucosii_bsp.a(alt_dcache_flush_all.o)
 .debug_aranges
                0x00000ca8       0x20 C:/Users/jchang3/Documents/ECE492/test/software/accelerometer_pen_bsp/\libucosii_bsp.a(alt_dev_llist_insert.o)
 .debug_aranges
                0x00000cc8       0x20 C:/Users/jchang3/Documents/ECE492/test/software/accelerometer_pen_bsp/\libucosii_bsp.a(alt_do_ctors.o)
 .debug_aranges
                0x00000ce8       0x20 C:/Users/jchang3/Documents/ECE492/test/software/accelerometer_pen_bsp/\libucosii_bsp.a(alt_do_dtors.o)
 .debug_aranges
                0x00000d08       0x20 C:/Users/jchang3/Documents/ECE492/test/software/accelerometer_pen_bsp/\libucosii_bsp.a(alt_find_dev.o)
 .debug_aranges
                0x00000d28       0x20 C:/Users/jchang3/Documents/ECE492/test/software/accelerometer_pen_bsp/\libucosii_bsp.a(alt_icache_flush_all.o)
 .debug_aranges
                0x00000d48       0x20 C:/Users/jchang3/Documents/ECE492/test/software/accelerometer_pen_bsp/\libucosii_bsp.a(alt_io_redirect.o)
 .debug_aranges
                0x00000d68       0x20 C:/Users/jchang3/Documents/ECE492/test/software/accelerometer_pen_bsp/\libucosii_bsp.a(alt_irq_register.o)
 .debug_aranges
                0x00000d88       0x20 C:/Users/jchang3/Documents/ECE492/test/software/accelerometer_pen_bsp/\libucosii_bsp.a(alt_open.o)
 .debug_aranges
                0x00000da8       0x20 C:/Users/jchang3/Documents/ECE492/test/software/accelerometer_pen_bsp/\libucosii_bsp.a(alt_tick.o)
 .debug_aranges
                0x00000dc8       0x20 C:/Users/jchang3/Documents/ECE492/test/software/accelerometer_pen_bsp/\libucosii_bsp.a(altera_nios2_qsys_irq.o)
 .debug_aranges
                0x00000de8       0x20 C:/Users/jchang3/Documents/ECE492/test/software/accelerometer_pen_bsp/\libucosii_bsp.a(os_cpu_a.o)
 .debug_aranges
                0x00000e08       0x20 C:/Users/jchang3/Documents/ECE492/test/software/accelerometer_pen_bsp/\libucosii_bsp.a(os_cpu_c.o)
 .debug_aranges
                0x00000e28       0x20 C:/Users/jchang3/Documents/ECE492/test/software/accelerometer_pen_bsp/\libucosii_bsp.a(alt_find_file.o)
 .debug_aranges
                0x00000e48       0x20 C:/Users/jchang3/Documents/ECE492/test/software/accelerometer_pen_bsp/\libucosii_bsp.a(alt_get_fd.o)
 .debug_aranges
                0x00000e68       0x30 C:/Users/jchang3/Documents/ECE492/test/software/accelerometer_pen_bsp/\libucosii_bsp.a(alt_irq_entry.o)
 .debug_aranges
                0x00000e98       0x28 C:/Users/jchang3/Documents/ECE492/test/software/accelerometer_pen_bsp/\libucosii_bsp.a(alt_irq_handler.o)
 .debug_aranges
                0x00000ec0       0x38 C:/Users/jchang3/Documents/ECE492/test/software/accelerometer_pen_bsp/\libucosii_bsp.a(alt_exception_entry.o)
 .debug_aranges
                0x00000ef8       0x20 c:/altera/12.1sp1/nios2eds/bin/gnu/h-i686-mingw32/bin/../lib/gcc/nios2-elf/4.1.2/../../../../nios2-elf/lib/mno-hw-mul\libc.a(lib_a-atexit.o)
 .debug_aranges
                0x00000f18       0x20 c:/altera/12.1sp1/nios2eds/bin/gnu/h-i686-mingw32/bin/../lib/gcc/nios2-elf/4.1.2/../../../../nios2-elf/lib/mno-hw-mul\libc.a(lib_a-exit.o)
 .debug_aranges
                0x00000f38       0x20 c:/altera/12.1sp1/nios2eds/bin/gnu/h-i686-mingw32/bin/../lib/gcc/nios2-elf/4.1.2/../../../../nios2-elf/lib/mno-hw-mul\libc.a(lib_a-memcmp.o)
 .debug_aranges
                0x00000f58       0x20 c:/altera/12.1sp1/nios2eds/bin/gnu/h-i686-mingw32/bin/../lib/gcc/nios2-elf/4.1.2/../../../../nios2-elf/lib/mno-hw-mul\libc.a(lib_a-putc.o)
 .debug_aranges
                0x00000f78       0x20 c:/altera/12.1sp1/nios2eds/bin/gnu/h-i686-mingw32/bin/../lib/gcc/nios2-elf/4.1.2/../../../../nios2-elf/lib/mno-hw-mul\libc.a(lib_a-wbuf.o)
 .debug_aranges
                0x00000f98       0x20 c:/altera/12.1sp1/nios2eds/bin/gnu/h-i686-mingw32/bin/../lib/gcc/nios2-elf/4.1.2/../../../../nios2-elf/lib/mno-hw-mul\libc.a(lib_a-__atexit.o)
 .debug_aranges
                0x00000fb8       0x20 c:/altera/12.1sp1/nios2eds/bin/gnu/h-i686-mingw32/bin/../lib/gcc/nios2-elf/4.1.2/../../../../nios2-elf/lib/mno-hw-mul\libc.a(lib_a-__call_atexit.o)
 .debug_aranges
                0x00000fd8       0x20 C:/Users/jchang3/Documents/ECE492/test/software/accelerometer_pen_bsp/\libucosii_bsp.a(alt_exit.o)

.debug_pubnames
                0x00000000     0x2c69
 *(.debug_pubnames)
 .debug_pubnames
                0x00000000       0x41 obj/default/dtw.o
 .debug_pubnames
                0x00000041      0x255 obj/default/hello_ucosii.o
 .debug_pubnames
                0x00000296       0x1f c:/altera/12.1sp1/nios2eds/bin/gnu/h-i686-mingw32/bin/../lib/gcc/nios2-elf/4.1.2/mno-hw-mul\libgcc.a(_div_sf.o)
 .debug_pubnames
                0x000002b5       0x24 c:/altera/12.1sp1/nios2eds/bin/gnu/h-i686-mingw32/bin/../lib/gcc/nios2-elf/4.1.2/mno-hw-mul\libgcc.a(_sf_to_df.o)
 .debug_pubnames
                0x000002d9       0x22 c:/altera/12.1sp1/nios2eds/bin/gnu/h-i686-mingw32/bin/../lib/gcc/nios2-elf/4.1.2/mno-hw-mul\libgcc.a(_thenan_sf.o)
 .debug_pubnames
                0x000002fb       0x24 c:/altera/12.1sp1/nios2eds/bin/gnu/h-i686-mingw32/bin/../lib/gcc/nios2-elf/4.1.2/mno-hw-mul\libgcc.a(_usi_to_sf.o)
 .debug_pubnames
                0x0000031f       0x2c c:/altera/12.1sp1/nios2eds/bin/gnu/h-i686-mingw32/bin/../lib/gcc/nios2-elf/4.1.2/mno-hw-mul\libgcc.a(_addsub_df.o)
 .debug_pubnames
                0x0000034b       0x1f c:/altera/12.1sp1/nios2eds/bin/gnu/h-i686-mingw32/bin/../lib/gcc/nios2-elf/4.1.2/mno-hw-mul\libgcc.a(_mul_df.o)
 .debug_pubnames
                0x0000036a       0x22 c:/altera/12.1sp1/nios2eds/bin/gnu/h-i686-mingw32/bin/../lib/gcc/nios2-elf/4.1.2/mno-hw-mul\libgcc.a(_si_to_df.o)
 .debug_pubnames
                0x0000038c       0x20 c:/altera/12.1sp1/nios2eds/bin/gnu/h-i686-mingw32/bin/../lib/gcc/nios2-elf/4.1.2/mno-hw-mul\libgcc.a(_df_to_si.o)
 .debug_pubnames
                0x000003ac       0x20 c:/altera/12.1sp1/nios2eds/bin/gnu/h-i686-mingw32/bin/../lib/gcc/nios2-elf/4.1.2/mno-hw-mul\libgcc.a(_make_df.o)
 .debug_pubnames
                0x000003cc       0x22 c:/altera/12.1sp1/nios2eds/bin/gnu/h-i686-mingw32/bin/../lib/gcc/nios2-elf/4.1.2/mno-hw-mul\libgcc.a(_thenan_df.o)
 .debug_pubnames
                0x000003ee       0x1f c:/altera/12.1sp1/nios2eds/bin/gnu/h-i686-mingw32/bin/../lib/gcc/nios2-elf/4.1.2/mno-hw-mul\libgcc.a(lib2-mul.o)
 .debug_pubnames
                0x0000040d       0x1f c:/altera/12.1sp1/nios2eds/bin/gnu/h-i686-mingw32/bin/../lib/gcc/nios2-elf/4.1.2/mno-hw-mul\libgcc.a(_muldi3.o)
 .debug_pubnames
                0x0000042c       0x1f c:/altera/12.1sp1/nios2eds/bin/gnu/h-i686-mingw32/bin/../lib/gcc/nios2-elf/4.1.2/mno-hw-mul\libgcc.a(_clzsi2.o)
 .debug_pubnames
                0x0000044b       0x1f c:/altera/12.1sp1/nios2eds/bin/gnu/h-i686-mingw32/bin/../lib/gcc/nios2-elf/4.1.2/mno-hw-mul\libgcc.a(_pack_sf.o)
 .debug_pubnames
                0x0000046a       0x21 c:/altera/12.1sp1/nios2eds/bin/gnu/h-i686-mingw32/bin/../lib/gcc/nios2-elf/4.1.2/mno-hw-mul\libgcc.a(_unpack_sf.o)
 .debug_pubnames
                0x0000048b       0x1f c:/altera/12.1sp1/nios2eds/bin/gnu/h-i686-mingw32/bin/../lib/gcc/nios2-elf/4.1.2/mno-hw-mul\libgcc.a(_pack_df.o)
 .debug_pubnames
                0x000004aa       0x21 c:/altera/12.1sp1/nios2eds/bin/gnu/h-i686-mingw32/bin/../lib/gcc/nios2-elf/4.1.2/mno-hw-mul\libgcc.a(_unpack_df.o)
 .debug_pubnames
                0x000004cb       0x20 c:/altera/12.1sp1/nios2eds/bin/gnu/h-i686-mingw32/bin/../lib/gcc/nios2-elf/4.1.2/mno-hw-mul\libgcc.a(_clz.o)
 .debug_pubnames
                0x000004eb       0x1d c:/altera/12.1sp1/nios2eds/bin/gnu/h-i686-mingw32/bin/../lib/gcc/nios2-elf/4.1.2/../../../../nios2-elf/lib/mno-hw-mul\libc.a(lib_a-calloc.o)
 .debug_pubnames
                0x00000508       0x20 c:/altera/12.1sp1/nios2eds/bin/gnu/h-i686-mingw32/bin/../lib/gcc/nios2-elf/4.1.2/../../../../nios2-elf/lib/mno-hw-mul\libc.a(lib_a-callocr.o)
 .debug_pubnames
                0x00000528       0x1c c:/altera/12.1sp1/nios2eds/bin/gnu/h-i686-mingw32/bin/../lib/gcc/nios2-elf/4.1.2/../../../../nios2-elf/lib/mno-hw-mul\libc.a(lib_a-clock.o)
 .debug_pubnames
                0x00000544       0x39 c:/altera/12.1sp1/nios2eds/bin/gnu/h-i686-mingw32/bin/../lib/gcc/nios2-elf/4.1.2/../../../../nios2-elf/lib/mno-hw-mul\libc.a(lib_a-impure.o)
 .debug_pubnames
                0x0000057d       0xce c:/altera/12.1sp1/nios2eds/bin/gnu/h-i686-mingw32/bin/../lib/gcc/nios2-elf/4.1.2/../../../../nios2-elf/lib/mno-hw-mul\libc.a(lib_a-mallocr.o)
 .debug_pubnames
                0x0000064b       0x1d c:/altera/12.1sp1/nios2eds/bin/gnu/h-i686-mingw32/bin/../lib/gcc/nios2-elf/4.1.2/../../../../nios2-elf/lib/mno-hw-mul\libc.a(lib_a-memset.o)
 .debug_pubnames
                0x00000668       0x2b c:/altera/12.1sp1/nios2eds/bin/gnu/h-i686-mingw32/bin/../lib/gcc/nios2-elf/4.1.2/../../../../nios2-elf/lib/mno-hw-mul\libc.a(lib_a-printf.o)
 .debug_pubnames
                0x00000693       0x27 c:/altera/12.1sp1/nios2eds/bin/gnu/h-i686-mingw32/bin/../lib/gcc/nios2-elf/4.1.2/../../../../nios2-elf/lib/mno-hw-mul\libc.a(lib_a-puts.o)
 .debug_pubnames
                0x000006ba       0x1e c:/altera/12.1sp1/nios2eds/bin/gnu/h-i686-mingw32/bin/../lib/gcc/nios2-elf/4.1.2/../../../../nios2-elf/lib/mno-hw-mul\libc.a(lib_a-sbrkr.o)
 .debug_pubnames
                0x000006d8       0x1d c:/altera/12.1sp1/nios2eds/bin/gnu/h-i686-mingw32/bin/../lib/gcc/nios2-elf/4.1.2/../../../../nios2-elf/lib/mno-hw-mul\libc.a(lib_a-strlen.o)
 .debug_pubnames
                0x000006f5       0x1f c:/altera/12.1sp1/nios2eds/bin/gnu/h-i686-mingw32/bin/../lib/gcc/nios2-elf/4.1.2/../../../../nios2-elf/lib/mno-hw-mul\libc.a(lib_a-timesr.o)
 .debug_pubnames
                0x00000714       0x45 c:/altera/12.1sp1/nios2eds/bin/gnu/h-i686-mingw32/bin/../lib/gcc/nios2-elf/4.1.2/../../../../nios2-elf/lib/mno-hw-mul\libc.a(lib_a-vfprintf.o)
 .debug_pubnames
                0x00000759       0x22 c:/altera/12.1sp1/nios2eds/bin/gnu/h-i686-mingw32/bin/../lib/gcc/nios2-elf/4.1.2/../../../../nios2-elf/lib/mno-hw-mul\libc.a(lib_a-wsetup.o)
 .debug_pubnames
                0x0000077b       0x1e c:/altera/12.1sp1/nios2eds/bin/gnu/h-i686-mingw32/bin/../lib/gcc/nios2-elf/4.1.2/../../../../nios2-elf/lib/mno-hw-mul\libc.a(lib_a-dtoa.o)
 .debug_pubnames
                0x00000799       0x2b c:/altera/12.1sp1/nios2eds/bin/gnu/h-i686-mingw32/bin/../lib/gcc/nios2-elf/4.1.2/../../../../nios2-elf/lib/mno-hw-mul\libc.a(lib_a-fflush.o)
 .debug_pubnames
                0x000007c4       0xdb c:/altera/12.1sp1/nios2eds/bin/gnu/h-i686-mingw32/bin/../lib/gcc/nios2-elf/4.1.2/../../../../nios2-elf/lib/mno-hw-mul\libc.a(lib_a-findfp.o)
 .debug_pubnames
                0x0000089f       0x31 c:/altera/12.1sp1/nios2eds/bin/gnu/h-i686-mingw32/bin/../lib/gcc/nios2-elf/4.1.2/../../../../nios2-elf/lib/mno-hw-mul\libc.a(lib_a-freer.o)
 .debug_pubnames
                0x000008d0       0x23 c:/altera/12.1sp1/nios2eds/bin/gnu/h-i686-mingw32/bin/../lib/gcc/nios2-elf/4.1.2/../../../../nios2-elf/lib/mno-hw-mul\libc.a(lib_a-fvwrite.o)
 .debug_pubnames
                0x000008f3       0x2e c:/altera/12.1sp1/nios2eds/bin/gnu/h-i686-mingw32/bin/../lib/gcc/nios2-elf/4.1.2/../../../../nios2-elf/lib/mno-hw-mul\libc.a(lib_a-fwalk.o)
 .debug_pubnames
                0x00000921       0x1c c:/altera/12.1sp1/nios2eds/bin/gnu/h-i686-mingw32/bin/../lib/gcc/nios2-elf/4.1.2/../../../../nios2-elf/lib/mno-hw-mul\libc.a(lib_a-int_errno.o)
 .debug_pubnames
                0x0000093d       0xc3 c:/altera/12.1sp1/nios2eds/bin/gnu/h-i686-mingw32/bin/../lib/gcc/nios2-elf/4.1.2/../../../../nios2-elf/lib/mno-hw-mul\libc.a(lib_a-locale.o)
 .debug_pubnames
                0x00000a00       0x23 c:/altera/12.1sp1/nios2eds/bin/gnu/h-i686-mingw32/bin/../lib/gcc/nios2-elf/4.1.2/../../../../nios2-elf/lib/mno-hw-mul\libc.a(lib_a-makebuf.o)
 .debug_pubnames
                0x00000a23       0x1d c:/altera/12.1sp1/nios2eds/bin/gnu/h-i686-mingw32/bin/../lib/gcc/nios2-elf/4.1.2/../../../../nios2-elf/lib/mno-hw-mul\libc.a(lib_a-memchr.o)
 .debug_pubnames
                0x00000a40       0x1d c:/altera/12.1sp1/nios2eds/bin/gnu/h-i686-mingw32/bin/../lib/gcc/nios2-elf/4.1.2/../../../../nios2-elf/lib/mno-hw-mul\libc.a(lib_a-memcpy.o)
 .debug_pubnames
                0x00000a5d       0x1e c:/altera/12.1sp1/nios2eds/bin/gnu/h-i686-mingw32/bin/../lib/gcc/nios2-elf/4.1.2/../../../../nios2-elf/lib/mno-hw-mul\libc.a(lib_a-memmove.o)
 .debug_pubnames
                0x00000a7b      0x13a c:/altera/12.1sp1/nios2eds/bin/gnu/h-i686-mingw32/bin/../lib/gcc/nios2-elf/4.1.2/../../../../nios2-elf/lib/mno-hw-mul\libc.a(lib_a-mprec.o)
 .debug_pubnames
                0x00000bb5       0x21 c:/altera/12.1sp1/nios2eds/bin/gnu/h-i686-mingw32/bin/../lib/gcc/nios2-elf/4.1.2/../../../../nios2-elf/lib/mno-hw-mul\libc.a(lib_a-reallocr.o)
 .debug_pubnames
                0x00000bd6       0x1f c:/altera/12.1sp1/nios2eds/bin/gnu/h-i686-mingw32/bin/../lib/gcc/nios2-elf/4.1.2/../../../../nios2-elf/lib/mno-hw-mul\libc.a(lib_a-s_isinfd.o)
 .debug_pubnames
                0x00000bf5       0x1f c:/altera/12.1sp1/nios2eds/bin/gnu/h-i686-mingw32/bin/../lib/gcc/nios2-elf/4.1.2/../../../../nios2-elf/lib/mno-hw-mul\libc.a(lib_a-s_isnand.o)
 .debug_pubnames
                0x00000c14       0x44 c:/altera/12.1sp1/nios2eds/bin/gnu/h-i686-mingw32/bin/../lib/gcc/nios2-elf/4.1.2/../../../../nios2-elf/lib/mno-hw-mul\libc.a(lib_a-stdio.o)
 .debug_pubnames
                0x00000c58       0x1d c:/altera/12.1sp1/nios2eds/bin/gnu/h-i686-mingw32/bin/../lib/gcc/nios2-elf/4.1.2/../../../../nios2-elf/lib/mno-hw-mul\libc.a(lib_a-strcmp.o)
 .debug_pubnames
                0x00000c75       0x1f c:/altera/12.1sp1/nios2eds/bin/gnu/h-i686-mingw32/bin/../lib/gcc/nios2-elf/4.1.2/../../../../nios2-elf/lib/mno-hw-mul\libc.a(lib_a-writer.o)
 .debug_pubnames
                0x00000c94       0x1f c:/altera/12.1sp1/nios2eds/bin/gnu/h-i686-mingw32/bin/../lib/gcc/nios2-elf/4.1.2/../../../../nios2-elf/lib/mno-hw-mul\libc.a(lib_a-closer.o)
 .debug_pubnames
                0x00000cb3       0x2b c:/altera/12.1sp1/nios2eds/bin/gnu/h-i686-mingw32/bin/../lib/gcc/nios2-elf/4.1.2/../../../../nios2-elf/lib/mno-hw-mul\libc.a(lib_a-fclose.o)
 .debug_pubnames
                0x00000cde       0x1f c:/altera/12.1sp1/nios2eds/bin/gnu/h-i686-mingw32/bin/../lib/gcc/nios2-elf/4.1.2/../../../../nios2-elf/lib/mno-hw-mul\libc.a(lib_a-fstatr.o)
 .debug_pubnames
                0x00000cfd       0x20 c:/altera/12.1sp1/nios2eds/bin/gnu/h-i686-mingw32/bin/../lib/gcc/nios2-elf/4.1.2/../../../../nios2-elf/lib/mno-hw-mul\libc.a(lib_a-isattyr.o)
 .debug_pubnames
                0x00000d1d       0x1f c:/altera/12.1sp1/nios2eds/bin/gnu/h-i686-mingw32/bin/../lib/gcc/nios2-elf/4.1.2/../../../../nios2-elf/lib/mno-hw-mul\libc.a(lib_a-lseekr.o)
 .debug_pubnames
                0x00000d3c       0x1e c:/altera/12.1sp1/nios2eds/bin/gnu/h-i686-mingw32/bin/../lib/gcc/nios2-elf/4.1.2/../../../../nios2-elf/lib/mno-hw-mul\libc.a(lib_a-readr.o)
 .debug_pubnames
                0x00000d5a       0x20 c:/altera/12.1sp1/nios2eds/bin/gnu/h-i686-mingw32/bin/../lib/gcc/nios2-elf/4.1.2/mno-hw-mul\libgcc.a(_udivdi3.o)
 .debug_pubnames
                0x00000d7a       0x20 c:/altera/12.1sp1/nios2eds/bin/gnu/h-i686-mingw32/bin/../lib/gcc/nios2-elf/4.1.2/mno-hw-mul\libgcc.a(_umoddi3.o)
 .debug_pubnames
                0x00000d9a       0x1f c:/altera/12.1sp1/nios2eds/bin/gnu/h-i686-mingw32/bin/../lib/gcc/nios2-elf/4.1.2/mno-hw-mul\libgcc.a(_div_df.o)
 .debug_pubnames
                0x00000db9       0x1e c:/altera/12.1sp1/nios2eds/bin/gnu/h-i686-mingw32/bin/../lib/gcc/nios2-elf/4.1.2/mno-hw-mul\libgcc.a(_eq_df.o)
 .debug_pubnames
                0x00000dd7       0x1e c:/altera/12.1sp1/nios2eds/bin/gnu/h-i686-mingw32/bin/../lib/gcc/nios2-elf/4.1.2/mno-hw-mul\libgcc.a(_ne_df.o)
 .debug_pubnames
                0x00000df5       0x1e c:/altera/12.1sp1/nios2eds/bin/gnu/h-i686-mingw32/bin/../lib/gcc/nios2-elf/4.1.2/mno-hw-mul\libgcc.a(_gt_df.o)
 .debug_pubnames
                0x00000e13       0x1e c:/altera/12.1sp1/nios2eds/bin/gnu/h-i686-mingw32/bin/../lib/gcc/nios2-elf/4.1.2/mno-hw-mul\libgcc.a(_ge_df.o)
 .debug_pubnames
                0x00000e31       0x1e c:/altera/12.1sp1/nios2eds/bin/gnu/h-i686-mingw32/bin/../lib/gcc/nios2-elf/4.1.2/mno-hw-mul\libgcc.a(_lt_df.o)
 .debug_pubnames
                0x00000e4f       0x24 c:/altera/12.1sp1/nios2eds/bin/gnu/h-i686-mingw32/bin/../lib/gcc/nios2-elf/4.1.2/mno-hw-mul\libgcc.a(_usi_to_df.o)
 .debug_pubnames
                0x00000e73       0x48 c:/altera/12.1sp1/nios2eds/bin/gnu/h-i686-mingw32/bin/../lib/gcc/nios2-elf/4.1.2/mno-hw-mul\libgcc.a(lib2-divmod.o)
 .debug_pubnames
                0x00000ebb       0x26 c:/altera/12.1sp1/nios2eds/bin/gnu/h-i686-mingw32/bin/../lib/gcc/nios2-elf/4.1.2/mno-hw-mul\libgcc.a(_fpcmp_parts_df.o)
 .debug_pubnames
                0x00000ee1       0x1c C:/Users/jchang3/Documents/ECE492/test/software/accelerometer_pen_bsp/\libucosii_bsp.a(alt_close.o)
 .debug_pubnames
                0x00000efd       0x78 C:/Users/jchang3/Documents/ECE492/test/software/accelerometer_pen_bsp/\libucosii_bsp.a(alt_dev.o)
 .debug_pubnames
                0x00000f75       0x20 C:/Users/jchang3/Documents/ECE492/test/software/accelerometer_pen_bsp/\libucosii_bsp.a(alt_errno.o)
 .debug_pubnames
                0x00000f95       0x1c C:/Users/jchang3/Documents/ECE492/test/software/accelerometer_pen_bsp/\libucosii_bsp.a(alt_fstat.o)
 .debug_pubnames
                0x00000fb1       0x1d C:/Users/jchang3/Documents/ECE492/test/software/accelerometer_pen_bsp/\libucosii_bsp.a(alt_isatty.o)
 .debug_pubnames
                0x00000fce       0x1f C:/Users/jchang3/Documents/ECE492/test/software/accelerometer_pen_bsp/\libucosii_bsp.a(alt_load.o)
 .debug_pubnames
                0x00000fed       0x1c C:/Users/jchang3/Documents/ECE492/test/software/accelerometer_pen_bsp/\libucosii_bsp.a(alt_lseek.o)
 .debug_pubnames
                0x00001009       0x46 C:/Users/jchang3/Documents/ECE492/test/software/accelerometer_pen_bsp/\libucosii_bsp.a(alt_main.o)
 .debug_pubnames
                0x0000104f       0x21 C:/Users/jchang3/Documents/ECE492/test/software/accelerometer_pen_bsp/\libucosii_bsp.a(alt_printf.o)
 .debug_pubnames
                0x00001070       0x22 C:/Users/jchang3/Documents/ECE492/test/software/accelerometer_pen_bsp/\libucosii_bsp.a(alt_putchar.o)
 .debug_pubnames
                0x00001092       0x1b C:/Users/jchang3/Documents/ECE492/test/software/accelerometer_pen_bsp/\libucosii_bsp.a(alt_read.o)
 .debug_pubnames
                0x000010ad       0x25 C:/Users/jchang3/Documents/ECE492/test/software/accelerometer_pen_bsp/\libucosii_bsp.a(alt_release_fd.o)
 .debug_pubnames
                0x000010d2       0x1b C:/Users/jchang3/Documents/ECE492/test/software/accelerometer_pen_bsp/\libucosii_bsp.a(alt_sbrk.o)
 .debug_pubnames
                0x000010ed       0x1c C:/Users/jchang3/Documents/ECE492/test/software/accelerometer_pen_bsp/\libucosii_bsp.a(alt_times.o)
 .debug_pubnames
                0x00001109       0x1c C:/Users/jchang3/Documents/ECE492/test/software/accelerometer_pen_bsp/\libucosii_bsp.a(alt_write.o)
 .debug_pubnames
                0x00001125       0x41 C:/Users/jchang3/Documents/ECE492/test/software/accelerometer_pen_bsp/\libucosii_bsp.a(alt_env_lock.o)
 .debug_pubnames
                0x00001166       0x48 C:/Users/jchang3/Documents/ECE492/test/software/accelerometer_pen_bsp/\libucosii_bsp.a(alt_malloc_lock.o)
 .debug_pubnames
                0x000011ae      0x3f8 C:/Users/jchang3/Documents/ECE492/test/software/accelerometer_pen_bsp/\libucosii_bsp.a(os_core.o)
 .debug_pubnames
                0x000015a6      0x3c5 C:/Users/jchang3/Documents/ECE492/test/software/accelerometer_pen_bsp/\libucosii_bsp.a(os_dbg.o)
 .debug_pubnames
                0x0000196b       0xd0 C:/Users/jchang3/Documents/ECE492/test/software/accelerometer_pen_bsp/\libucosii_bsp.a(os_flag.o)
 .debug_pubnames
                0x00001a3b       0x7c C:/Users/jchang3/Documents/ECE492/test/software/accelerometer_pen_bsp/\libucosii_bsp.a(os_mem.o)
 .debug_pubnames
                0x00001ab7       0xa9 C:/Users/jchang3/Documents/ECE492/test/software/accelerometer_pen_bsp/\libucosii_bsp.a(os_q.o)
 .debug_pubnames
                0x00001b60       0x8a C:/Users/jchang3/Documents/ECE492/test/software/accelerometer_pen_bsp/\libucosii_bsp.a(os_sem.o)
 .debug_pubnames
                0x00001bea       0xe5 C:/Users/jchang3/Documents/ECE492/test/software/accelerometer_pen_bsp/\libucosii_bsp.a(os_task.o)
 .debug_pubnames
                0x00001ccf       0x62 C:/Users/jchang3/Documents/ECE492/test/software/accelerometer_pen_bsp/\libucosii_bsp.a(os_time.o)
 .debug_pubnames
                0x00001d31       0x34 C:/Users/jchang3/Documents/ECE492/test/software/accelerometer_pen_bsp/\libucosii_bsp.a(alt_sys_init.o)
 .debug_pubnames
                0x00001d65       0xa5 C:/Users/jchang3/Documents/ECE492/test/software/accelerometer_pen_bsp/\libucosii_bsp.a(altera_avalon_jtag_uart_fd.o)
 .debug_pubnames
                0x00001e0a       0x55 C:/Users/jchang3/Documents/ECE492/test/software/accelerometer_pen_bsp/\libucosii_bsp.a(altera_avalon_jtag_uart_init.o)
 .debug_pubnames
                0x00001e5f       0x34 C:/Users/jchang3/Documents/ECE492/test/software/accelerometer_pen_bsp/\libucosii_bsp.a(altera_avalon_jtag_uart_ioctl.o)
 .debug_pubnames
                0x00001e93       0x33 C:/Users/jchang3/Documents/ECE492/test/software/accelerometer_pen_bsp/\libucosii_bsp.a(altera_avalon_jtag_uart_read.o)
 .debug_pubnames
                0x00001ec6       0x34 C:/Users/jchang3/Documents/ECE492/test/software/accelerometer_pen_bsp/\libucosii_bsp.a(altera_avalon_jtag_uart_write.o)
 .debug_pubnames
                0x00001efa       0x2f C:/Users/jchang3/Documents/ECE492/test/software/accelerometer_pen_bsp/\libucosii_bsp.a(altera_avalon_timer_sc.o)
 .debug_pubnames
                0x00001f29      0x1cd C:/Users/jchang3/Documents/ECE492/test/software/accelerometer_pen_bsp/\libucosii_bsp.a(altera_up_avalon_character_lcd.o)
 .debug_pubnames
                0x000020f6      0x163 C:/Users/jchang3/Documents/ECE492/test/software/accelerometer_pen_bsp/\libucosii_bsp.a(altera_up_avalon_rs232.o)
 .debug_pubnames
                0x00002259      0x564 C:/Users/jchang3/Documents/ECE492/test/software/accelerometer_pen_bsp/\libucosii_bsp.a(altera_up_sd_card_avalon_interface.o)
 .debug_pubnames
                0x000027bd       0x26 C:/Users/jchang3/Documents/ECE492/test/software/accelerometer_pen_bsp/\libucosii_bsp.a(alt_alarm_start.o)
 .debug_pubnames
                0x000027e3       0x2b C:/Users/jchang3/Documents/ECE492/test/software/accelerometer_pen_bsp/\libucosii_bsp.a(alt_dcache_flush_all.o)
 .debug_pubnames
                0x0000280e       0x2b C:/Users/jchang3/Documents/ECE492/test/software/accelerometer_pen_bsp/\libucosii_bsp.a(alt_dev_llist_insert.o)
 .debug_pubnames
                0x00002839       0x20 C:/Users/jchang3/Documents/ECE492/test/software/accelerometer_pen_bsp/\libucosii_bsp.a(alt_do_ctors.o)
 .debug_pubnames
                0x00002859       0x20 C:/Users/jchang3/Documents/ECE492/test/software/accelerometer_pen_bsp/\libucosii_bsp.a(alt_do_dtors.o)
 .debug_pubnames
                0x00002879       0x23 C:/Users/jchang3/Documents/ECE492/test/software/accelerometer_pen_bsp/\libucosii_bsp.a(alt_find_dev.o)
 .debug_pubnames
                0x0000289c       0x2b C:/Users/jchang3/Documents/ECE492/test/software/accelerometer_pen_bsp/\libucosii_bsp.a(alt_icache_flush_all.o)
 .debug_pubnames
                0x000028c7       0x26 C:/Users/jchang3/Documents/ECE492/test/software/accelerometer_pen_bsp/\libucosii_bsp.a(alt_io_redirect.o)
 .debug_pubnames
                0x000028ed       0x27 C:/Users/jchang3/Documents/ECE492/test/software/accelerometer_pen_bsp/\libucosii_bsp.a(alt_irq_register.o)
 .debug_pubnames
                0x00002914       0x3b C:/Users/jchang3/Documents/ECE492/test/software/accelerometer_pen_bsp/\libucosii_bsp.a(alt_irq_vars.o)
 .debug_pubnames
                0x0000294f       0x1b C:/Users/jchang3/Documents/ECE492/test/software/accelerometer_pen_bsp/\libucosii_bsp.a(alt_open.o)
 .debug_pubnames
                0x0000296a       0x68 C:/Users/jchang3/Documents/ECE492/test/software/accelerometer_pen_bsp/\libucosii_bsp.a(alt_tick.o)
 .debug_pubnames
                0x000029d2       0x31 C:/Users/jchang3/Documents/ECE492/test/software/accelerometer_pen_bsp/\libucosii_bsp.a(altera_nios2_qsys_irq.o)
 .debug_pubnames
                0x00002a03       0xcd C:/Users/jchang3/Documents/ECE492/test/software/accelerometer_pen_bsp/\libucosii_bsp.a(os_cpu_c.o)
 .debug_pubnames
                0x00002ad0       0x24 C:/Users/jchang3/Documents/ECE492/test/software/accelerometer_pen_bsp/\libucosii_bsp.a(alt_find_file.o)
 .debug_pubnames
                0x00002af4       0x21 C:/Users/jchang3/Documents/ECE492/test/software/accelerometer_pen_bsp/\libucosii_bsp.a(alt_get_fd.o)
 .debug_pubnames
                0x00002b15       0x32 C:/Users/jchang3/Documents/ECE492/test/software/accelerometer_pen_bsp/\libucosii_bsp.a(alt_irq_handler.o)
 .debug_pubnames
                0x00002b47       0x2a c:/altera/12.1sp1/nios2eds/bin/gnu/h-i686-mingw32/bin/../lib/gcc/nios2-elf/4.1.2/../../../../nios2-elf/lib/mno-hw-mul\libc.a(lib_a-atexit.o)
 .debug_pubnames
                0x00002b71       0x1b c:/altera/12.1sp1/nios2eds/bin/gnu/h-i686-mingw32/bin/../lib/gcc/nios2-elf/4.1.2/../../../../nios2-elf/lib/mno-hw-mul\libc.a(lib_a-exit.o)
 .debug_pubnames
                0x00002b8c       0x1d c:/altera/12.1sp1/nios2eds/bin/gnu/h-i686-mingw32/bin/../lib/gcc/nios2-elf/4.1.2/../../../../nios2-elf/lib/mno-hw-mul\libc.a(lib_a-memcmp.o)
 .debug_pubnames
                0x00002ba9       0x27 c:/altera/12.1sp1/nios2eds/bin/gnu/h-i686-mingw32/bin/../lib/gcc/nios2-elf/4.1.2/../../../../nios2-elf/lib/mno-hw-mul\libc.a(lib_a-putc.o)
 .debug_pubnames
                0x00002bd0       0x2c c:/altera/12.1sp1/nios2eds/bin/gnu/h-i686-mingw32/bin/../lib/gcc/nios2-elf/4.1.2/../../../../nios2-elf/lib/mno-hw-mul\libc.a(lib_a-wbuf.o)
 .debug_pubnames
                0x00002bfc       0x2a c:/altera/12.1sp1/nios2eds/bin/gnu/h-i686-mingw32/bin/../lib/gcc/nios2-elf/4.1.2/../../../../nios2-elf/lib/mno-hw-mul\libc.a(lib_a-__atexit.o)
 .debug_pubnames
                0x00002c26       0x27 c:/altera/12.1sp1/nios2eds/bin/gnu/h-i686-mingw32/bin/../lib/gcc/nios2-elf/4.1.2/../../../../nios2-elf/lib/mno-hw-mul\libc.a(lib_a-__call_atexit.o)
 .debug_pubnames
                0x00002c4d       0x1c C:/Users/jchang3/Documents/ECE492/test/software/accelerometer_pen_bsp/\libucosii_bsp.a(alt_exit.o)

.debug_info     0x00000000    0x38adf
 *(.debug_info .gnu.linkonce.wi.*)
 .debug_info    0x00000000       0x77 C:/Users/jchang3/Documents/ECE492/test/software/accelerometer_pen_bsp//obj/HAL/src/crt0.o
 .debug_info    0x00000077      0x376 obj/default/dtw.o
 .debug_info    0x000003ed      0xe6f obj/default/hello_ucosii.o
 .debug_info    0x0000125c      0x391 c:/altera/12.1sp1/nios2eds/bin/gnu/h-i686-mingw32/bin/../lib/gcc/nios2-elf/4.1.2/mno-hw-mul\libgcc.a(_div_sf.o)
 .debug_info    0x000015ed      0x245 c:/altera/12.1sp1/nios2eds/bin/gnu/h-i686-mingw32/bin/../lib/gcc/nios2-elf/4.1.2/mno-hw-mul\libgcc.a(_sf_to_df.o)
 .debug_info    0x00001832      0x164 c:/altera/12.1sp1/nios2eds/bin/gnu/h-i686-mingw32/bin/../lib/gcc/nios2-elf/4.1.2/mno-hw-mul\libgcc.a(_thenan_sf.o)
 .debug_info    0x00001996      0x213 c:/altera/12.1sp1/nios2eds/bin/gnu/h-i686-mingw32/bin/../lib/gcc/nios2-elf/4.1.2/mno-hw-mul\libgcc.a(_usi_to_sf.o)
 .debug_info    0x00001ba9      0x493 c:/altera/12.1sp1/nios2eds/bin/gnu/h-i686-mingw32/bin/../lib/gcc/nios2-elf/4.1.2/mno-hw-mul\libgcc.a(_addsub_df.o)
 .debug_info    0x0000203c      0x488 c:/altera/12.1sp1/nios2eds/bin/gnu/h-i686-mingw32/bin/../lib/gcc/nios2-elf/4.1.2/mno-hw-mul\libgcc.a(_mul_df.o)
 .debug_info    0x000024c4      0x218 c:/altera/12.1sp1/nios2eds/bin/gnu/h-i686-mingw32/bin/../lib/gcc/nios2-elf/4.1.2/mno-hw-mul\libgcc.a(_si_to_df.o)
 .debug_info    0x000026dc      0x2cd c:/altera/12.1sp1/nios2eds/bin/gnu/h-i686-mingw32/bin/../lib/gcc/nios2-elf/4.1.2/mno-hw-mul\libgcc.a(_df_to_si.o)
 .debug_info    0x000029a9      0x1d6 c:/altera/12.1sp1/nios2eds/bin/gnu/h-i686-mingw32/bin/../lib/gcc/nios2-elf/4.1.2/mno-hw-mul\libgcc.a(_make_df.o)
 .debug_info    0x00002b7f      0x164 c:/altera/12.1sp1/nios2eds/bin/gnu/h-i686-mingw32/bin/../lib/gcc/nios2-elf/4.1.2/mno-hw-mul\libgcc.a(_thenan_df.o)
 .debug_info    0x00002ce3       0xf3 c:/altera/12.1sp1/nios2eds/bin/gnu/h-i686-mingw32/bin/../lib/gcc/nios2-elf/4.1.2/mno-hw-mul\libgcc.a(lib2-mul.o)
 .debug_info    0x00002dd6      0x210 c:/altera/12.1sp1/nios2eds/bin/gnu/h-i686-mingw32/bin/../lib/gcc/nios2-elf/4.1.2/mno-hw-mul\libgcc.a(_muldi3.o)
 .debug_info    0x00002fe6      0x130 c:/altera/12.1sp1/nios2eds/bin/gnu/h-i686-mingw32/bin/../lib/gcc/nios2-elf/4.1.2/mno-hw-mul\libgcc.a(_clzsi2.o)
 .debug_info    0x00003116      0x2f2 c:/altera/12.1sp1/nios2eds/bin/gnu/h-i686-mingw32/bin/../lib/gcc/nios2-elf/4.1.2/mno-hw-mul\libgcc.a(_pack_sf.o)
 .debug_info    0x00003408      0x25a c:/altera/12.1sp1/nios2eds/bin/gnu/h-i686-mingw32/bin/../lib/gcc/nios2-elf/4.1.2/mno-hw-mul\libgcc.a(_unpack_sf.o)
 .debug_info    0x00003662      0x2fc c:/altera/12.1sp1/nios2eds/bin/gnu/h-i686-mingw32/bin/../lib/gcc/nios2-elf/4.1.2/mno-hw-mul\libgcc.a(_pack_df.o)
 .debug_info    0x0000395e      0x268 c:/altera/12.1sp1/nios2eds/bin/gnu/h-i686-mingw32/bin/../lib/gcc/nios2-elf/4.1.2/mno-hw-mul\libgcc.a(_unpack_df.o)
 .debug_info    0x00003bc6       0xc9 c:/altera/12.1sp1/nios2eds/bin/gnu/h-i686-mingw32/bin/../lib/gcc/nios2-elf/4.1.2/mno-hw-mul\libgcc.a(_clz.o)
 .debug_info    0x00003c8f      0x954 c:/altera/12.1sp1/nios2eds/bin/gnu/h-i686-mingw32/bin/../lib/gcc/nios2-elf/4.1.2/../../../../nios2-elf/lib/mno-hw-mul\libc.a(lib_a-calloc.o)
 .debug_info    0x000045e3      0xa1b c:/altera/12.1sp1/nios2eds/bin/gnu/h-i686-mingw32/bin/../lib/gcc/nios2-elf/4.1.2/../../../../nios2-elf/lib/mno-hw-mul\libc.a(lib_a-callocr.o)
 .debug_info    0x00004ffe      0x99c c:/altera/12.1sp1/nios2eds/bin/gnu/h-i686-mingw32/bin/../lib/gcc/nios2-elf/4.1.2/../../../../nios2-elf/lib/mno-hw-mul\libc.a(lib_a-clock.o)
 .debug_info    0x0000599a      0x93d c:/altera/12.1sp1/nios2eds/bin/gnu/h-i686-mingw32/bin/../lib/gcc/nios2-elf/4.1.2/../../../../nios2-elf/lib/mno-hw-mul\libc.a(lib_a-impure.o)
 .debug_info    0x000062d7      0xcd0 c:/altera/12.1sp1/nios2eds/bin/gnu/h-i686-mingw32/bin/../lib/gcc/nios2-elf/4.1.2/../../../../nios2-elf/lib/mno-hw-mul\libc.a(lib_a-mallocr.o)
 .debug_info    0x00006fa7      0x113 c:/altera/12.1sp1/nios2eds/bin/gnu/h-i686-mingw32/bin/../lib/gcc/nios2-elf/4.1.2/../../../../nios2-elf/lib/mno-hw-mul\libc.a(lib_a-memset.o)
 .debug_info    0x000070ba      0x9d1 c:/altera/12.1sp1/nios2eds/bin/gnu/h-i686-mingw32/bin/../lib/gcc/nios2-elf/4.1.2/../../../../nios2-elf/lib/mno-hw-mul\libc.a(lib_a-printf.o)
 .debug_info    0x00007a8b      0xa25 c:/altera/12.1sp1/nios2eds/bin/gnu/h-i686-mingw32/bin/../lib/gcc/nios2-elf/4.1.2/../../../../nios2-elf/lib/mno-hw-mul\libc.a(lib_a-puts.o)
 .debug_info    0x000084b0      0x962 c:/altera/12.1sp1/nios2eds/bin/gnu/h-i686-mingw32/bin/../lib/gcc/nios2-elf/4.1.2/../../../../nios2-elf/lib/mno-hw-mul\libc.a(lib_a-sbrkr.o)
 .debug_info    0x00008e12       0xdb c:/altera/12.1sp1/nios2eds/bin/gnu/h-i686-mingw32/bin/../lib/gcc/nios2-elf/4.1.2/../../../../nios2-elf/lib/mno-hw-mul\libc.a(lib_a-strlen.o)
 .debug_info    0x00008eed      0x99e c:/altera/12.1sp1/nios2eds/bin/gnu/h-i686-mingw32/bin/../lib/gcc/nios2-elf/4.1.2/../../../../nios2-elf/lib/mno-hw-mul\libc.a(lib_a-timesr.o)
 .debug_info    0x0000988b     0x10d5 c:/altera/12.1sp1/nios2eds/bin/gnu/h-i686-mingw32/bin/../lib/gcc/nios2-elf/4.1.2/../../../../nios2-elf/lib/mno-hw-mul\libc.a(lib_a-vfprintf.o)
 .debug_info    0x0000a960      0x95d c:/altera/12.1sp1/nios2eds/bin/gnu/h-i686-mingw32/bin/../lib/gcc/nios2-elf/4.1.2/../../../../nios2-elf/lib/mno-hw-mul\libc.a(lib_a-wsetup.o)
 .debug_info    0x0000b2bd      0xd6f c:/altera/12.1sp1/nios2eds/bin/gnu/h-i686-mingw32/bin/../lib/gcc/nios2-elf/4.1.2/../../../../nios2-elf/lib/mno-hw-mul\libc.a(lib_a-dtoa.o)
 .debug_info    0x0000c02c      0x9fe c:/altera/12.1sp1/nios2eds/bin/gnu/h-i686-mingw32/bin/../lib/gcc/nios2-elf/4.1.2/../../../../nios2-elf/lib/mno-hw-mul\libc.a(lib_a-fflush.o)
 .debug_info    0x0000ca2a      0xb72 c:/altera/12.1sp1/nios2eds/bin/gnu/h-i686-mingw32/bin/../lib/gcc/nios2-elf/4.1.2/../../../../nios2-elf/lib/mno-hw-mul\libc.a(lib_a-findfp.o)
 .debug_info    0x0000d59c      0xbc9 c:/altera/12.1sp1/nios2eds/bin/gnu/h-i686-mingw32/bin/../lib/gcc/nios2-elf/4.1.2/../../../../nios2-elf/lib/mno-hw-mul\libc.a(lib_a-freer.o)
 .debug_info    0x0000e165      0xa88 c:/altera/12.1sp1/nios2eds/bin/gnu/h-i686-mingw32/bin/../lib/gcc/nios2-elf/4.1.2/../../../../nios2-elf/lib/mno-hw-mul\libc.a(lib_a-fvwrite.o)
 .debug_info    0x0000ebed      0xaed c:/altera/12.1sp1/nios2eds/bin/gnu/h-i686-mingw32/bin/../lib/gcc/nios2-elf/4.1.2/../../../../nios2-elf/lib/mno-hw-mul\libc.a(lib_a-fwalk.o)
 .debug_info    0x0000f6da       0x8c c:/altera/12.1sp1/nios2eds/bin/gnu/h-i686-mingw32/bin/../lib/gcc/nios2-elf/4.1.2/../../../../nios2-elf/lib/mno-hw-mul\libc.a(lib_a-int_errno.o)
 .debug_info    0x0000f766      0xb97 c:/altera/12.1sp1/nios2eds/bin/gnu/h-i686-mingw32/bin/../lib/gcc/nios2-elf/4.1.2/../../../../nios2-elf/lib/mno-hw-mul\libc.a(lib_a-locale.o)
 .debug_info    0x000102fd      0xb1a c:/altera/12.1sp1/nios2eds/bin/gnu/h-i686-mingw32/bin/../lib/gcc/nios2-elf/4.1.2/../../../../nios2-elf/lib/mno-hw-mul\libc.a(lib_a-makebuf.o)
 .debug_info    0x00010e17      0x138 c:/altera/12.1sp1/nios2eds/bin/gnu/h-i686-mingw32/bin/../lib/gcc/nios2-elf/4.1.2/../../../../nios2-elf/lib/mno-hw-mul\libc.a(lib_a-memchr.o)
 .debug_info    0x00010f4f      0x106 c:/altera/12.1sp1/nios2eds/bin/gnu/h-i686-mingw32/bin/../lib/gcc/nios2-elf/4.1.2/../../../../nios2-elf/lib/mno-hw-mul\libc.a(lib_a-memcpy.o)
 .debug_info    0x00011055      0x13e c:/altera/12.1sp1/nios2eds/bin/gnu/h-i686-mingw32/bin/../lib/gcc/nios2-elf/4.1.2/../../../../nios2-elf/lib/mno-hw-mul\libc.a(lib_a-memmove.o)
 .debug_info    0x00011193     0x143b c:/altera/12.1sp1/nios2eds/bin/gnu/h-i686-mingw32/bin/../lib/gcc/nios2-elf/4.1.2/../../../../nios2-elf/lib/mno-hw-mul\libc.a(lib_a-mprec.o)
 .debug_info    0x000125ce      0xbd7 c:/altera/12.1sp1/nios2eds/bin/gnu/h-i686-mingw32/bin/../lib/gcc/nios2-elf/4.1.2/../../../../nios2-elf/lib/mno-hw-mul\libc.a(lib_a-reallocr.o)
 .debug_info    0x000131a5       0xd7 c:/altera/12.1sp1/nios2eds/bin/gnu/h-i686-mingw32/bin/../lib/gcc/nios2-elf/4.1.2/../../../../nios2-elf/lib/mno-hw-mul\libc.a(lib_a-s_isinfd.o)
 .debug_info    0x0001327c       0xd5 c:/altera/12.1sp1/nios2eds/bin/gnu/h-i686-mingw32/bin/../lib/gcc/nios2-elf/4.1.2/../../../../nios2-elf/lib/mno-hw-mul\libc.a(lib_a-s_isnand.o)
 .debug_info    0x00013351      0xaac c:/altera/12.1sp1/nios2eds/bin/gnu/h-i686-mingw32/bin/../lib/gcc/nios2-elf/4.1.2/../../../../nios2-elf/lib/mno-hw-mul\libc.a(lib_a-stdio.o)
 .debug_info    0x00013dfd       0xdd c:/altera/12.1sp1/nios2eds/bin/gnu/h-i686-mingw32/bin/../lib/gcc/nios2-elf/4.1.2/../../../../nios2-elf/lib/mno-hw-mul\libc.a(lib_a-strcmp.o)
 .debug_info    0x00013eda      0x993 c:/altera/12.1sp1/nios2eds/bin/gnu/h-i686-mingw32/bin/../lib/gcc/nios2-elf/4.1.2/../../../../nios2-elf/lib/mno-hw-mul\libc.a(lib_a-writer.o)
 .debug_info    0x0001486d      0x958 c:/altera/12.1sp1/nios2eds/bin/gnu/h-i686-mingw32/bin/../lib/gcc/nios2-elf/4.1.2/../../../../nios2-elf/lib/mno-hw-mul\libc.a(lib_a-closer.o)
 .debug_info    0x000151c5      0x994 c:/altera/12.1sp1/nios2eds/bin/gnu/h-i686-mingw32/bin/../lib/gcc/nios2-elf/4.1.2/../../../../nios2-elf/lib/mno-hw-mul\libc.a(lib_a-fclose.o)
 .debug_info    0x00015b59      0xafc c:/altera/12.1sp1/nios2eds/bin/gnu/h-i686-mingw32/bin/../lib/gcc/nios2-elf/4.1.2/../../../../nios2-elf/lib/mno-hw-mul\libc.a(lib_a-fstatr.o)
 .debug_info    0x00016655      0x958 c:/altera/12.1sp1/nios2eds/bin/gnu/h-i686-mingw32/bin/../lib/gcc/nios2-elf/4.1.2/../../../../nios2-elf/lib/mno-hw-mul\libc.a(lib_a-isattyr.o)
 .debug_info    0x00016fad      0x981 c:/altera/12.1sp1/nios2eds/bin/gnu/h-i686-mingw32/bin/../lib/gcc/nios2-elf/4.1.2/../../../../nios2-elf/lib/mno-hw-mul\libc.a(lib_a-lseekr.o)
 .debug_info    0x0001792e      0x98c c:/altera/12.1sp1/nios2eds/bin/gnu/h-i686-mingw32/bin/../lib/gcc/nios2-elf/4.1.2/../../../../nios2-elf/lib/mno-hw-mul\libc.a(lib_a-readr.o)
 .debug_info    0x000182ba      0x71c c:/altera/12.1sp1/nios2eds/bin/gnu/h-i686-mingw32/bin/../lib/gcc/nios2-elf/4.1.2/mno-hw-mul\libgcc.a(_udivdi3.o)
 .debug_info    0x000189d6      0x749 c:/altera/12.1sp1/nios2eds/bin/gnu/h-i686-mingw32/bin/../lib/gcc/nios2-elf/4.1.2/mno-hw-mul\libgcc.a(_umoddi3.o)
 .debug_info    0x0001911f      0x39b c:/altera/12.1sp1/nios2eds/bin/gnu/h-i686-mingw32/bin/../lib/gcc/nios2-elf/4.1.2/mno-hw-mul\libgcc.a(_div_df.o)
 .debug_info    0x000194ba      0x29d c:/altera/12.1sp1/nios2eds/bin/gnu/h-i686-mingw32/bin/../lib/gcc/nios2-elf/4.1.2/mno-hw-mul\libgcc.a(_eq_df.o)
 .debug_info    0x00019757      0x29d c:/altera/12.1sp1/nios2eds/bin/gnu/h-i686-mingw32/bin/../lib/gcc/nios2-elf/4.1.2/mno-hw-mul\libgcc.a(_ne_df.o)
 .debug_info    0x000199f4      0x29d c:/altera/12.1sp1/nios2eds/bin/gnu/h-i686-mingw32/bin/../lib/gcc/nios2-elf/4.1.2/mno-hw-mul\libgcc.a(_gt_df.o)
 .debug_info    0x00019c91      0x29d c:/altera/12.1sp1/nios2eds/bin/gnu/h-i686-mingw32/bin/../lib/gcc/nios2-elf/4.1.2/mno-hw-mul\libgcc.a(_ge_df.o)
 .debug_info    0x00019f2e      0x29d c:/altera/12.1sp1/nios2eds/bin/gnu/h-i686-mingw32/bin/../lib/gcc/nios2-elf/4.1.2/mno-hw-mul\libgcc.a(_lt_df.o)
 .debug_info    0x0001a1cb      0x213 c:/altera/12.1sp1/nios2eds/bin/gnu/h-i686-mingw32/bin/../lib/gcc/nios2-elf/4.1.2/mno-hw-mul\libgcc.a(_usi_to_df.o)
 .debug_info    0x0001a3de      0x21c c:/altera/12.1sp1/nios2eds/bin/gnu/h-i686-mingw32/bin/../lib/gcc/nios2-elf/4.1.2/mno-hw-mul\libgcc.a(lib2-divmod.o)
 .debug_info    0x0001a5fa      0x21b c:/altera/12.1sp1/nios2eds/bin/gnu/h-i686-mingw32/bin/../lib/gcc/nios2-elf/4.1.2/mno-hw-mul\libgcc.a(_fpcmp_parts_df.o)
 .debug_info    0x0001a815      0x4ea C:/Users/jchang3/Documents/ECE492/test/software/accelerometer_pen_bsp/\libucosii_bsp.a(alt_close.o)
 .debug_info    0x0001acff      0x80c C:/Users/jchang3/Documents/ECE492/test/software/accelerometer_pen_bsp/\libucosii_bsp.a(alt_dev.o)
 .debug_info    0x0001b50b      0x160 C:/Users/jchang3/Documents/ECE492/test/software/accelerometer_pen_bsp/\libucosii_bsp.a(alt_errno.o)
 .debug_info    0x0001b66b      0x6e3 C:/Users/jchang3/Documents/ECE492/test/software/accelerometer_pen_bsp/\libucosii_bsp.a(alt_fstat.o)
 .debug_info    0x0001bd4e      0x6e9 C:/Users/jchang3/Documents/ECE492/test/software/accelerometer_pen_bsp/\libucosii_bsp.a(alt_isatty.o)
 .debug_info    0x0001c437      0x289 C:/Users/jchang3/Documents/ECE492/test/software/accelerometer_pen_bsp/\libucosii_bsp.a(alt_load.o)
 .debug_info    0x0001c6c0      0x51d C:/Users/jchang3/Documents/ECE492/test/software/accelerometer_pen_bsp/\libucosii_bsp.a(alt_lseek.o)
 .debug_info    0x0001cbdd      0x40c C:/Users/jchang3/Documents/ECE492/test/software/accelerometer_pen_bsp/\libucosii_bsp.a(alt_main.o)
 .debug_info    0x0001cfe9      0x1a4 C:/Users/jchang3/Documents/ECE492/test/software/accelerometer_pen_bsp/\libucosii_bsp.a(alt_printf.o)
 .debug_info    0x0001d18d      0xbf8 C:/Users/jchang3/Documents/ECE492/test/software/accelerometer_pen_bsp/\libucosii_bsp.a(alt_putchar.o)
 .debug_info    0x0001dd85      0x70d C:/Users/jchang3/Documents/ECE492/test/software/accelerometer_pen_bsp/\libucosii_bsp.a(alt_read.o)
 .debug_info    0x0001e492      0x47e C:/Users/jchang3/Documents/ECE492/test/software/accelerometer_pen_bsp/\libucosii_bsp.a(alt_release_fd.o)
 .debug_info    0x0001e910      0x2fa C:/Users/jchang3/Documents/ECE492/test/software/accelerometer_pen_bsp/\libucosii_bsp.a(alt_sbrk.o)
 .debug_info    0x0001ec0a      0x2c0 C:/Users/jchang3/Documents/ECE492/test/software/accelerometer_pen_bsp/\libucosii_bsp.a(alt_times.o)
 .debug_info    0x0001eeca      0x716 C:/Users/jchang3/Documents/ECE492/test/software/accelerometer_pen_bsp/\libucosii_bsp.a(alt_write.o)
 .debug_info    0x0001f5e0     0x1202 C:/Users/jchang3/Documents/ECE492/test/software/accelerometer_pen_bsp/\libucosii_bsp.a(alt_env_lock.o)
 .debug_info    0x000207e2     0x135e C:/Users/jchang3/Documents/ECE492/test/software/accelerometer_pen_bsp/\libucosii_bsp.a(alt_malloc_lock.o)
 .debug_info    0x00021b40     0x1c18 C:/Users/jchang3/Documents/ECE492/test/software/accelerometer_pen_bsp/\libucosii_bsp.a(os_core.o)
 .debug_info    0x00023758     0x115d C:/Users/jchang3/Documents/ECE492/test/software/accelerometer_pen_bsp/\libucosii_bsp.a(os_dbg.o)
 .debug_info    0x000248b5     0x1273 C:/Users/jchang3/Documents/ECE492/test/software/accelerometer_pen_bsp/\libucosii_bsp.a(os_flag.o)
 .debug_info    0x00025b28      0x83d C:/Users/jchang3/Documents/ECE492/test/software/accelerometer_pen_bsp/\libucosii_bsp.a(os_mem.o)
 .debug_info    0x00026365     0x10ad C:/Users/jchang3/Documents/ECE492/test/software/accelerometer_pen_bsp/\libucosii_bsp.a(os_q.o)
 .debug_info    0x00027412      0xd15 C:/Users/jchang3/Documents/ECE492/test/software/accelerometer_pen_bsp/\libucosii_bsp.a(os_sem.o)
 .debug_info    0x00028127     0x138b C:/Users/jchang3/Documents/ECE492/test/software/accelerometer_pen_bsp/\libucosii_bsp.a(os_task.o)
 .debug_info    0x000294b2      0xa0f C:/Users/jchang3/Documents/ECE492/test/software/accelerometer_pen_bsp/\libucosii_bsp.a(os_time.o)
 .debug_info    0x00029ec1      0xa4d C:/Users/jchang3/Documents/ECE492/test/software/accelerometer_pen_bsp/\libucosii_bsp.a(alt_sys_init.o)
 .debug_info    0x0002a90e      0xa01 C:/Users/jchang3/Documents/ECE492/test/software/accelerometer_pen_bsp/\libucosii_bsp.a(altera_avalon_jtag_uart_fd.o)
 .debug_info    0x0002b30f      0x98c C:/Users/jchang3/Documents/ECE492/test/software/accelerometer_pen_bsp/\libucosii_bsp.a(altera_avalon_jtag_uart_init.o)
 .debug_info    0x0002bc9b      0x66b C:/Users/jchang3/Documents/ECE492/test/software/accelerometer_pen_bsp/\libucosii_bsp.a(altera_avalon_jtag_uart_ioctl.o)
 .debug_info    0x0002c306      0x827 C:/Users/jchang3/Documents/ECE492/test/software/accelerometer_pen_bsp/\libucosii_bsp.a(altera_avalon_jtag_uart_read.o)
 .debug_info    0x0002cb2d      0x81e C:/Users/jchang3/Documents/ECE492/test/software/accelerometer_pen_bsp/\libucosii_bsp.a(altera_avalon_jtag_uart_write.o)
 .debug_info    0x0002d34b      0x3c7 C:/Users/jchang3/Documents/ECE492/test/software/accelerometer_pen_bsp/\libucosii_bsp.a(altera_avalon_timer_sc.o)
 .debug_info    0x0002d712      0x92b C:/Users/jchang3/Documents/ECE492/test/software/accelerometer_pen_bsp/\libucosii_bsp.a(altera_up_avalon_character_lcd.o)
 .debug_info    0x0002e03d      0x853 C:/Users/jchang3/Documents/ECE492/test/software/accelerometer_pen_bsp/\libucosii_bsp.a(altera_up_avalon_rs232.o)
 .debug_info    0x0002e890     0x2222 C:/Users/jchang3/Documents/ECE492/test/software/accelerometer_pen_bsp/\libucosii_bsp.a(altera_up_sd_card_avalon_interface.o)
 .debug_info    0x00030ab2      0x471 C:/Users/jchang3/Documents/ECE492/test/software/accelerometer_pen_bsp/\libucosii_bsp.a(alt_alarm_start.o)
 .debug_info    0x00030f23      0x158 C:/Users/jchang3/Documents/ECE492/test/software/accelerometer_pen_bsp/\libucosii_bsp.a(alt_dcache_flush_all.o)
 .debug_info    0x0003107b      0x2b3 C:/Users/jchang3/Documents/ECE492/test/software/accelerometer_pen_bsp/\libucosii_bsp.a(alt_dev_llist_insert.o)
 .debug_info    0x0003132e      0x10b C:/Users/jchang3/Documents/ECE492/test/software/accelerometer_pen_bsp/\libucosii_bsp.a(alt_do_ctors.o)
 .debug_info    0x00031439      0x10a C:/Users/jchang3/Documents/ECE492/test/software/accelerometer_pen_bsp/\libucosii_bsp.a(alt_do_dtors.o)
 .debug_info    0x00031543      0x49b C:/Users/jchang3/Documents/ECE492/test/software/accelerometer_pen_bsp/\libucosii_bsp.a(alt_find_dev.o)
 .debug_info    0x000319de      0x158 C:/Users/jchang3/Documents/ECE492/test/software/accelerometer_pen_bsp/\libucosii_bsp.a(alt_icache_flush_all.o)
 .debug_info    0x00031b36      0x718 C:/Users/jchang3/Documents/ECE492/test/software/accelerometer_pen_bsp/\libucosii_bsp.a(alt_io_redirect.o)
 .debug_info    0x0003224e      0x46b C:/Users/jchang3/Documents/ECE492/test/software/accelerometer_pen_bsp/\libucosii_bsp.a(alt_irq_register.o)
 .debug_info    0x000326b9      0x163 C:/Users/jchang3/Documents/ECE492/test/software/accelerometer_pen_bsp/\libucosii_bsp.a(alt_irq_vars.o)
 .debug_info    0x0003281c      0x599 C:/Users/jchang3/Documents/ECE492/test/software/accelerometer_pen_bsp/\libucosii_bsp.a(alt_open.o)
 .debug_info    0x00032db5      0x440 C:/Users/jchang3/Documents/ECE492/test/software/accelerometer_pen_bsp/\libucosii_bsp.a(alt_tick.o)
 .debug_info    0x000331f5      0x1a6 C:/Users/jchang3/Documents/ECE492/test/software/accelerometer_pen_bsp/\libucosii_bsp.a(altera_nios2_qsys_irq.o)
 .debug_info    0x0003339b       0x7f C:/Users/jchang3/Documents/ECE492/test/software/accelerometer_pen_bsp/\libucosii_bsp.a(os_cpu_a.o)
 .debug_info    0x0003341a     0x1302 C:/Users/jchang3/Documents/ECE492/test/software/accelerometer_pen_bsp/\libucosii_bsp.a(os_cpu_c.o)
 .debug_info    0x0003471c      0x4a2 C:/Users/jchang3/Documents/ECE492/test/software/accelerometer_pen_bsp/\libucosii_bsp.a(alt_find_file.o)
 .debug_info    0x00034bbe      0x634 C:/Users/jchang3/Documents/ECE492/test/software/accelerometer_pen_bsp/\libucosii_bsp.a(alt_get_fd.o)
 .debug_info    0x000351f2       0x80 C:/Users/jchang3/Documents/ECE492/test/software/accelerometer_pen_bsp/\libucosii_bsp.a(alt_irq_entry.o)
 .debug_info    0x00035272      0x2ee C:/Users/jchang3/Documents/ECE492/test/software/accelerometer_pen_bsp/\libucosii_bsp.a(alt_irq_handler.o)
 .debug_info    0x00035560       0x86 C:/Users/jchang3/Documents/ECE492/test/software/accelerometer_pen_bsp/\libucosii_bsp.a(alt_exception_entry.o)
 .debug_info    0x000355e6      0x181 c:/altera/12.1sp1/nios2eds/bin/gnu/h-i686-mingw32/bin/../lib/gcc/nios2-elf/4.1.2/../../../../nios2-elf/lib/mno-hw-mul\libc.a(lib_a-atexit.o)
 .debug_info    0x00035767      0x93f c:/altera/12.1sp1/nios2eds/bin/gnu/h-i686-mingw32/bin/../lib/gcc/nios2-elf/4.1.2/../../../../nios2-elf/lib/mno-hw-mul\libc.a(lib_a-exit.o)
 .debug_info    0x000360a6      0x115 c:/altera/12.1sp1/nios2eds/bin/gnu/h-i686-mingw32/bin/../lib/gcc/nios2-elf/4.1.2/../../../../nios2-elf/lib/mno-hw-mul\libc.a(lib_a-memcmp.o)
 .debug_info    0x000361bb      0x9c1 c:/altera/12.1sp1/nios2eds/bin/gnu/h-i686-mingw32/bin/../lib/gcc/nios2-elf/4.1.2/../../../../nios2-elf/lib/mno-hw-mul\libc.a(lib_a-putc.o)
 .debug_info    0x00036b7c      0x9ae c:/altera/12.1sp1/nios2eds/bin/gnu/h-i686-mingw32/bin/../lib/gcc/nios2-elf/4.1.2/../../../../nios2-elf/lib/mno-hw-mul\libc.a(lib_a-wbuf.o)
 .debug_info    0x0003752a      0x99c c:/altera/12.1sp1/nios2eds/bin/gnu/h-i686-mingw32/bin/../lib/gcc/nios2-elf/4.1.2/../../../../nios2-elf/lib/mno-hw-mul\libc.a(lib_a-__atexit.o)
 .debug_info    0x00037ec6      0x9e2 c:/altera/12.1sp1/nios2eds/bin/gnu/h-i686-mingw32/bin/../lib/gcc/nios2-elf/4.1.2/../../../../nios2-elf/lib/mno-hw-mul\libc.a(lib_a-__call_atexit.o)
 .debug_info    0x000388a8      0x237 C:/Users/jchang3/Documents/ECE492/test/software/accelerometer_pen_bsp/\libucosii_bsp.a(alt_exit.o)

.debug_abbrev   0x00000000     0xaa99
 *(.debug_abbrev)
 .debug_abbrev  0x00000000       0x12 C:/Users/jchang3/Documents/ECE492/test/software/accelerometer_pen_bsp//obj/HAL/src/crt0.o
 .debug_abbrev  0x00000012       0x8f obj/default/dtw.o
 .debug_abbrev  0x000000a1      0x1d6 obj/default/hello_ucosii.o
 .debug_abbrev  0x00000277      0x1e5 c:/altera/12.1sp1/nios2eds/bin/gnu/h-i686-mingw32/bin/../lib/gcc/nios2-elf/4.1.2/mno-hw-mul\libgcc.a(_div_sf.o)
 .debug_abbrev  0x0000045c      0x128 c:/altera/12.1sp1/nios2eds/bin/gnu/h-i686-mingw32/bin/../lib/gcc/nios2-elf/4.1.2/mno-hw-mul\libgcc.a(_sf_to_df.o)
 .debug_abbrev  0x00000584       0xba c:/altera/12.1sp1/nios2eds/bin/gnu/h-i686-mingw32/bin/../lib/gcc/nios2-elf/4.1.2/mno-hw-mul\libgcc.a(_thenan_sf.o)
 .debug_abbrev  0x0000063e      0x155 c:/altera/12.1sp1/nios2eds/bin/gnu/h-i686-mingw32/bin/../lib/gcc/nios2-elf/4.1.2/mno-hw-mul\libgcc.a(_usi_to_sf.o)
 .debug_abbrev  0x00000793      0x1d2 c:/altera/12.1sp1/nios2eds/bin/gnu/h-i686-mingw32/bin/../lib/gcc/nios2-elf/4.1.2/mno-hw-mul\libgcc.a(_addsub_df.o)
 .debug_abbrev  0x00000965      0x204 c:/altera/12.1sp1/nios2eds/bin/gnu/h-i686-mingw32/bin/../lib/gcc/nios2-elf/4.1.2/mno-hw-mul\libgcc.a(_mul_df.o)
 .debug_abbrev  0x00000b69      0x13f c:/altera/12.1sp1/nios2eds/bin/gnu/h-i686-mingw32/bin/../lib/gcc/nios2-elf/4.1.2/mno-hw-mul\libgcc.a(_si_to_df.o)
 .debug_abbrev  0x00000ca8      0x176 c:/altera/12.1sp1/nios2eds/bin/gnu/h-i686-mingw32/bin/../lib/gcc/nios2-elf/4.1.2/mno-hw-mul\libgcc.a(_df_to_si.o)
 .debug_abbrev  0x00000e1e      0x10f c:/altera/12.1sp1/nios2eds/bin/gnu/h-i686-mingw32/bin/../lib/gcc/nios2-elf/4.1.2/mno-hw-mul\libgcc.a(_make_df.o)
 .debug_abbrev  0x00000f2d       0xba c:/altera/12.1sp1/nios2eds/bin/gnu/h-i686-mingw32/bin/../lib/gcc/nios2-elf/4.1.2/mno-hw-mul\libgcc.a(_thenan_df.o)
 .debug_abbrev  0x00000fe7       0x7b c:/altera/12.1sp1/nios2eds/bin/gnu/h-i686-mingw32/bin/../lib/gcc/nios2-elf/4.1.2/mno-hw-mul\libgcc.a(lib2-mul.o)
 .debug_abbrev  0x00001062       0xfb c:/altera/12.1sp1/nios2eds/bin/gnu/h-i686-mingw32/bin/../lib/gcc/nios2-elf/4.1.2/mno-hw-mul\libgcc.a(_muldi3.o)
 .debug_abbrev  0x0000115d       0xb9 c:/altera/12.1sp1/nios2eds/bin/gnu/h-i686-mingw32/bin/../lib/gcc/nios2-elf/4.1.2/mno-hw-mul\libgcc.a(_clzsi2.o)
 .debug_abbrev  0x00001216      0x1aa c:/altera/12.1sp1/nios2eds/bin/gnu/h-i686-mingw32/bin/../lib/gcc/nios2-elf/4.1.2/mno-hw-mul\libgcc.a(_pack_sf.o)
 .debug_abbrev  0x000013c0      0x158 c:/altera/12.1sp1/nios2eds/bin/gnu/h-i686-mingw32/bin/../lib/gcc/nios2-elf/4.1.2/mno-hw-mul\libgcc.a(_unpack_sf.o)
 .debug_abbrev  0x00001518      0x1b1 c:/altera/12.1sp1/nios2eds/bin/gnu/h-i686-mingw32/bin/../lib/gcc/nios2-elf/4.1.2/mno-hw-mul\libgcc.a(_pack_df.o)
 .debug_abbrev  0x000016c9      0x149 c:/altera/12.1sp1/nios2eds/bin/gnu/h-i686-mingw32/bin/../lib/gcc/nios2-elf/4.1.2/mno-hw-mul\libgcc.a(_unpack_df.o)
 .debug_abbrev  0x00001812       0x61 c:/altera/12.1sp1/nios2eds/bin/gnu/h-i686-mingw32/bin/../lib/gcc/nios2-elf/4.1.2/mno-hw-mul\libgcc.a(_clz.o)
 .debug_abbrev  0x00001873      0x17f c:/altera/12.1sp1/nios2eds/bin/gnu/h-i686-mingw32/bin/../lib/gcc/nios2-elf/4.1.2/../../../../nios2-elf/lib/mno-hw-mul\libc.a(lib_a-calloc.o)
 .debug_abbrev  0x000019f2      0x1b8 c:/altera/12.1sp1/nios2eds/bin/gnu/h-i686-mingw32/bin/../lib/gcc/nios2-elf/4.1.2/../../../../nios2-elf/lib/mno-hw-mul\libc.a(lib_a-callocr.o)
 .debug_abbrev  0x00001baa      0x18e c:/altera/12.1sp1/nios2eds/bin/gnu/h-i686-mingw32/bin/../lib/gcc/nios2-elf/4.1.2/../../../../nios2-elf/lib/mno-hw-mul\libc.a(lib_a-clock.o)
 .debug_abbrev  0x00001d38      0x157 c:/altera/12.1sp1/nios2eds/bin/gnu/h-i686-mingw32/bin/../lib/gcc/nios2-elf/4.1.2/../../../../nios2-elf/lib/mno-hw-mul\libc.a(lib_a-impure.o)
 .debug_abbrev  0x00001e8f      0x216 c:/altera/12.1sp1/nios2eds/bin/gnu/h-i686-mingw32/bin/../lib/gcc/nios2-elf/4.1.2/../../../../nios2-elf/lib/mno-hw-mul\libc.a(lib_a-mallocr.o)
 .debug_abbrev  0x000020a5       0xb8 c:/altera/12.1sp1/nios2eds/bin/gnu/h-i686-mingw32/bin/../lib/gcc/nios2-elf/4.1.2/../../../../nios2-elf/lib/mno-hw-mul\libc.a(lib_a-memset.o)
 .debug_abbrev  0x0000215d      0x191 c:/altera/12.1sp1/nios2eds/bin/gnu/h-i686-mingw32/bin/../lib/gcc/nios2-elf/4.1.2/../../../../nios2-elf/lib/mno-hw-mul\libc.a(lib_a-printf.o)
 .debug_abbrev  0x000022ee      0x1ac c:/altera/12.1sp1/nios2eds/bin/gnu/h-i686-mingw32/bin/../lib/gcc/nios2-elf/4.1.2/../../../../nios2-elf/lib/mno-hw-mul\libc.a(lib_a-puts.o)
 .debug_abbrev  0x0000249a      0x18c c:/altera/12.1sp1/nios2eds/bin/gnu/h-i686-mingw32/bin/../lib/gcc/nios2-elf/4.1.2/../../../../nios2-elf/lib/mno-hw-mul\libc.a(lib_a-sbrkr.o)
 .debug_abbrev  0x00002626       0x8b c:/altera/12.1sp1/nios2eds/bin/gnu/h-i686-mingw32/bin/../lib/gcc/nios2-elf/4.1.2/../../../../nios2-elf/lib/mno-hw-mul\libc.a(lib_a-strlen.o)
 .debug_abbrev  0x000026b1      0x18a c:/altera/12.1sp1/nios2eds/bin/gnu/h-i686-mingw32/bin/../lib/gcc/nios2-elf/4.1.2/../../../../nios2-elf/lib/mno-hw-mul\libc.a(lib_a-timesr.o)
 .debug_abbrev  0x0000283b      0x30a c:/altera/12.1sp1/nios2eds/bin/gnu/h-i686-mingw32/bin/../lib/gcc/nios2-elf/4.1.2/../../../../nios2-elf/lib/mno-hw-mul\libc.a(lib_a-vfprintf.o)
 .debug_abbrev  0x00002b45      0x170 c:/altera/12.1sp1/nios2eds/bin/gnu/h-i686-mingw32/bin/../lib/gcc/nios2-elf/4.1.2/../../../../nios2-elf/lib/mno-hw-mul\libc.a(lib_a-wsetup.o)
 .debug_abbrev  0x00002cb5      0x232 c:/altera/12.1sp1/nios2eds/bin/gnu/h-i686-mingw32/bin/../lib/gcc/nios2-elf/4.1.2/../../../../nios2-elf/lib/mno-hw-mul\libc.a(lib_a-dtoa.o)
 .debug_abbrev  0x00002ee7      0x1c6 c:/altera/12.1sp1/nios2eds/bin/gnu/h-i686-mingw32/bin/../lib/gcc/nios2-elf/4.1.2/../../../../nios2-elf/lib/mno-hw-mul\libc.a(lib_a-fflush.o)
 .debug_abbrev  0x000030ad      0x24c c:/altera/12.1sp1/nios2eds/bin/gnu/h-i686-mingw32/bin/../lib/gcc/nios2-elf/4.1.2/../../../../nios2-elf/lib/mno-hw-mul\libc.a(lib_a-findfp.o)
 .debug_abbrev  0x000032f9      0x1d9 c:/altera/12.1sp1/nios2eds/bin/gnu/h-i686-mingw32/bin/../lib/gcc/nios2-elf/4.1.2/../../../../nios2-elf/lib/mno-hw-mul\libc.a(lib_a-freer.o)
 .debug_abbrev  0x000034d2      0x1a3 c:/altera/12.1sp1/nios2eds/bin/gnu/h-i686-mingw32/bin/../lib/gcc/nios2-elf/4.1.2/../../../../nios2-elf/lib/mno-hw-mul\libc.a(lib_a-fvwrite.o)
 .debug_abbrev  0x00003675      0x1e3 c:/altera/12.1sp1/nios2eds/bin/gnu/h-i686-mingw32/bin/../lib/gcc/nios2-elf/4.1.2/../../../../nios2-elf/lib/mno-hw-mul\libc.a(lib_a-fwalk.o)
 .debug_abbrev  0x00003858       0x3b c:/altera/12.1sp1/nios2eds/bin/gnu/h-i686-mingw32/bin/../lib/gcc/nios2-elf/4.1.2/../../../../nios2-elf/lib/mno-hw-mul\libc.a(lib_a-int_errno.o)
 .debug_abbrev  0x00003893      0x1ed c:/altera/12.1sp1/nios2eds/bin/gnu/h-i686-mingw32/bin/../lib/gcc/nios2-elf/4.1.2/../../../../nios2-elf/lib/mno-hw-mul\libc.a(lib_a-locale.o)
 .debug_abbrev  0x00003a80      0x197 c:/altera/12.1sp1/nios2eds/bin/gnu/h-i686-mingw32/bin/../lib/gcc/nios2-elf/4.1.2/../../../../nios2-elf/lib/mno-hw-mul\libc.a(lib_a-makebuf.o)
 .debug_abbrev  0x00003c17       0xb5 c:/altera/12.1sp1/nios2eds/bin/gnu/h-i686-mingw32/bin/../lib/gcc/nios2-elf/4.1.2/../../../../nios2-elf/lib/mno-hw-mul\libc.a(lib_a-memchr.o)
 .debug_abbrev  0x00003ccc       0xb5 c:/altera/12.1sp1/nios2eds/bin/gnu/h-i686-mingw32/bin/../lib/gcc/nios2-elf/4.1.2/../../../../nios2-elf/lib/mno-hw-mul\libc.a(lib_a-memcpy.o)
 .debug_abbrev  0x00003d81       0xb5 c:/altera/12.1sp1/nios2eds/bin/gnu/h-i686-mingw32/bin/../lib/gcc/nios2-elf/4.1.2/../../../../nios2-elf/lib/mno-hw-mul\libc.a(lib_a-memmove.o)
 .debug_abbrev  0x00003e36      0x297 c:/altera/12.1sp1/nios2eds/bin/gnu/h-i686-mingw32/bin/../lib/gcc/nios2-elf/4.1.2/../../../../nios2-elf/lib/mno-hw-mul\libc.a(lib_a-mprec.o)
 .debug_abbrev  0x000040cd      0x1c3 c:/altera/12.1sp1/nios2eds/bin/gnu/h-i686-mingw32/bin/../lib/gcc/nios2-elf/4.1.2/../../../../nios2-elf/lib/mno-hw-mul\libc.a(lib_a-reallocr.o)
 .debug_abbrev  0x00004290       0x79 c:/altera/12.1sp1/nios2eds/bin/gnu/h-i686-mingw32/bin/../lib/gcc/nios2-elf/4.1.2/../../../../nios2-elf/lib/mno-hw-mul\libc.a(lib_a-s_isinfd.o)
 .debug_abbrev  0x00004309       0x79 c:/altera/12.1sp1/nios2eds/bin/gnu/h-i686-mingw32/bin/../lib/gcc/nios2-elf/4.1.2/../../../../nios2-elf/lib/mno-hw-mul\libc.a(lib_a-s_isnand.o)
 .debug_abbrev  0x00004382      0x1c9 c:/altera/12.1sp1/nios2eds/bin/gnu/h-i686-mingw32/bin/../lib/gcc/nios2-elf/4.1.2/../../../../nios2-elf/lib/mno-hw-mul\libc.a(lib_a-stdio.o)
 .debug_abbrev  0x0000454b       0x80 c:/altera/12.1sp1/nios2eds/bin/gnu/h-i686-mingw32/bin/../lib/gcc/nios2-elf/4.1.2/../../../../nios2-elf/lib/mno-hw-mul\libc.a(lib_a-strcmp.o)
 .debug_abbrev  0x000045cb      0x184 c:/altera/12.1sp1/nios2eds/bin/gnu/h-i686-mingw32/bin/../lib/gcc/nios2-elf/4.1.2/../../../../nios2-elf/lib/mno-hw-mul\libc.a(lib_a-writer.o)
 .debug_abbrev  0x0000474f      0x17f c:/altera/12.1sp1/nios2eds/bin/gnu/h-i686-mingw32/bin/../lib/gcc/nios2-elf/4.1.2/../../../../nios2-elf/lib/mno-hw-mul\libc.a(lib_a-closer.o)
 .debug_abbrev  0x000048ce      0x1a7 c:/altera/12.1sp1/nios2eds/bin/gnu/h-i686-mingw32/bin/../lib/gcc/nios2-elf/4.1.2/../../../../nios2-elf/lib/mno-hw-mul\libc.a(lib_a-fclose.o)
 .debug_abbrev  0x00004a75      0x18e c:/altera/12.1sp1/nios2eds/bin/gnu/h-i686-mingw32/bin/../lib/gcc/nios2-elf/4.1.2/../../../../nios2-elf/lib/mno-hw-mul\libc.a(lib_a-fstatr.o)
 .debug_abbrev  0x00004c03      0x17f c:/altera/12.1sp1/nios2eds/bin/gnu/h-i686-mingw32/bin/../lib/gcc/nios2-elf/4.1.2/../../../../nios2-elf/lib/mno-hw-mul\libc.a(lib_a-isattyr.o)
 .debug_abbrev  0x00004d82      0x18e c:/altera/12.1sp1/nios2eds/bin/gnu/h-i686-mingw32/bin/../lib/gcc/nios2-elf/4.1.2/../../../../nios2-elf/lib/mno-hw-mul\libc.a(lib_a-lseekr.o)
 .debug_abbrev  0x00004f10      0x17f c:/altera/12.1sp1/nios2eds/bin/gnu/h-i686-mingw32/bin/../lib/gcc/nios2-elf/4.1.2/../../../../nios2-elf/lib/mno-hw-mul\libc.a(lib_a-readr.o)
 .debug_abbrev  0x0000508f      0x16b c:/altera/12.1sp1/nios2eds/bin/gnu/h-i686-mingw32/bin/../lib/gcc/nios2-elf/4.1.2/mno-hw-mul\libgcc.a(_udivdi3.o)
 .debug_abbrev  0x000051fa      0x18e c:/altera/12.1sp1/nios2eds/bin/gnu/h-i686-mingw32/bin/../lib/gcc/nios2-elf/4.1.2/mno-hw-mul\libgcc.a(_umoddi3.o)
 .debug_abbrev  0x00005388      0x1e3 c:/altera/12.1sp1/nios2eds/bin/gnu/h-i686-mingw32/bin/../lib/gcc/nios2-elf/4.1.2/mno-hw-mul\libgcc.a(_div_df.o)
 .debug_abbrev  0x0000556b      0x151 c:/altera/12.1sp1/nios2eds/bin/gnu/h-i686-mingw32/bin/../lib/gcc/nios2-elf/4.1.2/mno-hw-mul\libgcc.a(_eq_df.o)
 .debug_abbrev  0x000056bc      0x151 c:/altera/12.1sp1/nios2eds/bin/gnu/h-i686-mingw32/bin/../lib/gcc/nios2-elf/4.1.2/mno-hw-mul\libgcc.a(_ne_df.o)
 .debug_abbrev  0x0000580d      0x151 c:/altera/12.1sp1/nios2eds/bin/gnu/h-i686-mingw32/bin/../lib/gcc/nios2-elf/4.1.2/mno-hw-mul\libgcc.a(_gt_df.o)
 .debug_abbrev  0x0000595e      0x151 c:/altera/12.1sp1/nios2eds/bin/gnu/h-i686-mingw32/bin/../lib/gcc/nios2-elf/4.1.2/mno-hw-mul\libgcc.a(_ge_df.o)
 .debug_abbrev  0x00005aaf      0x151 c:/altera/12.1sp1/nios2eds/bin/gnu/h-i686-mingw32/bin/../lib/gcc/nios2-elf/4.1.2/mno-hw-mul\libgcc.a(_lt_df.o)
 .debug_abbrev  0x00005c00      0x155 c:/altera/12.1sp1/nios2eds/bin/gnu/h-i686-mingw32/bin/../lib/gcc/nios2-elf/4.1.2/mno-hw-mul\libgcc.a(_usi_to_df.o)
 .debug_abbrev  0x00005d55       0xe0 c:/altera/12.1sp1/nios2eds/bin/gnu/h-i686-mingw32/bin/../lib/gcc/nios2-elf/4.1.2/mno-hw-mul\libgcc.a(lib2-divmod.o)
 .debug_abbrev  0x00005e35      0x132 c:/altera/12.1sp1/nios2eds/bin/gnu/h-i686-mingw32/bin/../lib/gcc/nios2-elf/4.1.2/mno-hw-mul\libgcc.a(_fpcmp_parts_df.o)
 .debug_abbrev  0x00005f67      0x102 C:/Users/jchang3/Documents/ECE492/test/software/accelerometer_pen_bsp/\libucosii_bsp.a(alt_close.o)
 .debug_abbrev  0x00006069      0x10a C:/Users/jchang3/Documents/ECE492/test/software/accelerometer_pen_bsp/\libucosii_bsp.a(alt_dev.o)
 .debug_abbrev  0x00006173       0x5e C:/Users/jchang3/Documents/ECE492/test/software/accelerometer_pen_bsp/\libucosii_bsp.a(alt_errno.o)
 .debug_abbrev  0x000061d1      0x102 C:/Users/jchang3/Documents/ECE492/test/software/accelerometer_pen_bsp/\libucosii_bsp.a(alt_fstat.o)
 .debug_abbrev  0x000062d3      0x102 C:/Users/jchang3/Documents/ECE492/test/software/accelerometer_pen_bsp/\libucosii_bsp.a(alt_isatty.o)
 .debug_abbrev  0x000063d5       0x88 C:/Users/jchang3/Documents/ECE492/test/software/accelerometer_pen_bsp/\libucosii_bsp.a(alt_load.o)
 .debug_abbrev  0x0000645d      0x102 C:/Users/jchang3/Documents/ECE492/test/software/accelerometer_pen_bsp/\libucosii_bsp.a(alt_lseek.o)
 .debug_abbrev  0x0000655f      0x120 C:/Users/jchang3/Documents/ECE492/test/software/accelerometer_pen_bsp/\libucosii_bsp.a(alt_main.o)
 .debug_abbrev  0x0000667f       0x91 C:/Users/jchang3/Documents/ECE492/test/software/accelerometer_pen_bsp/\libucosii_bsp.a(alt_printf.o)
 .debug_abbrev  0x00006710      0x17f C:/Users/jchang3/Documents/ECE492/test/software/accelerometer_pen_bsp/\libucosii_bsp.a(alt_putchar.o)
 .debug_abbrev  0x0000688f      0x102 C:/Users/jchang3/Documents/ECE492/test/software/accelerometer_pen_bsp/\libucosii_bsp.a(alt_read.o)
 .debug_abbrev  0x00006991       0xd3 C:/Users/jchang3/Documents/ECE492/test/software/accelerometer_pen_bsp/\libucosii_bsp.a(alt_release_fd.o)
 .debug_abbrev  0x00006a64      0x11c C:/Users/jchang3/Documents/ECE492/test/software/accelerometer_pen_bsp/\libucosii_bsp.a(alt_sbrk.o)
 .debug_abbrev  0x00006b80       0xeb C:/Users/jchang3/Documents/ECE492/test/software/accelerometer_pen_bsp/\libucosii_bsp.a(alt_times.o)
 .debug_abbrev  0x00006c6b      0x107 C:/Users/jchang3/Documents/ECE492/test/software/accelerometer_pen_bsp/\libucosii_bsp.a(alt_write.o)
 .debug_abbrev  0x00006d72      0x1b3 C:/Users/jchang3/Documents/ECE492/test/software/accelerometer_pen_bsp/\libucosii_bsp.a(alt_env_lock.o)
 .debug_abbrev  0x00006f25      0x234 C:/Users/jchang3/Documents/ECE492/test/software/accelerometer_pen_bsp/\libucosii_bsp.a(alt_malloc_lock.o)
 .debug_abbrev  0x00007159      0x2aa C:/Users/jchang3/Documents/ECE492/test/software/accelerometer_pen_bsp/\libucosii_bsp.a(os_core.o)
 .debug_abbrev  0x00007403      0x114 C:/Users/jchang3/Documents/ECE492/test/software/accelerometer_pen_bsp/\libucosii_bsp.a(os_dbg.o)
 .debug_abbrev  0x00007517      0x21b C:/Users/jchang3/Documents/ECE492/test/software/accelerometer_pen_bsp/\libucosii_bsp.a(os_flag.o)
 .debug_abbrev  0x00007732      0x235 C:/Users/jchang3/Documents/ECE492/test/software/accelerometer_pen_bsp/\libucosii_bsp.a(os_mem.o)
 .debug_abbrev  0x00007967      0x20d C:/Users/jchang3/Documents/ECE492/test/software/accelerometer_pen_bsp/\libucosii_bsp.a(os_q.o)
 .debug_abbrev  0x00007b74      0x20d C:/Users/jchang3/Documents/ECE492/test/software/accelerometer_pen_bsp/\libucosii_bsp.a(os_sem.o)
 .debug_abbrev  0x00007d81      0x20e C:/Users/jchang3/Documents/ECE492/test/software/accelerometer_pen_bsp/\libucosii_bsp.a(os_task.o)
 .debug_abbrev  0x00007f8f      0x1de C:/Users/jchang3/Documents/ECE492/test/software/accelerometer_pen_bsp/\libucosii_bsp.a(os_time.o)
 .debug_abbrev  0x0000816d      0x1a3 C:/Users/jchang3/Documents/ECE492/test/software/accelerometer_pen_bsp/\libucosii_bsp.a(alt_sys_init.o)
 .debug_abbrev  0x00008310      0x13c C:/Users/jchang3/Documents/ECE492/test/software/accelerometer_pen_bsp/\libucosii_bsp.a(altera_avalon_jtag_uart_fd.o)
 .debug_abbrev  0x0000844c      0x21e C:/Users/jchang3/Documents/ECE492/test/software/accelerometer_pen_bsp/\libucosii_bsp.a(altera_avalon_jtag_uart_init.o)
 .debug_abbrev  0x0000866a      0x135 C:/Users/jchang3/Documents/ECE492/test/software/accelerometer_pen_bsp/\libucosii_bsp.a(altera_avalon_jtag_uart_ioctl.o)
 .debug_abbrev  0x0000879f      0x1ee C:/Users/jchang3/Documents/ECE492/test/software/accelerometer_pen_bsp/\libucosii_bsp.a(altera_avalon_jtag_uart_read.o)
 .debug_abbrev  0x0000898d      0x1ea C:/Users/jchang3/Documents/ECE492/test/software/accelerometer_pen_bsp/\libucosii_bsp.a(altera_avalon_jtag_uart_write.o)
 .debug_abbrev  0x00008b77      0x137 C:/Users/jchang3/Documents/ECE492/test/software/accelerometer_pen_bsp/\libucosii_bsp.a(altera_avalon_timer_sc.o)
 .debug_abbrev  0x00008cae      0x127 C:/Users/jchang3/Documents/ECE492/test/software/accelerometer_pen_bsp/\libucosii_bsp.a(altera_up_avalon_character_lcd.o)
 .debug_abbrev  0x00008dd5      0x127 C:/Users/jchang3/Documents/ECE492/test/software/accelerometer_pen_bsp/\libucosii_bsp.a(altera_up_avalon_rs232.o)
 .debug_abbrev  0x00008efc      0x1f9 C:/Users/jchang3/Documents/ECE492/test/software/accelerometer_pen_bsp/\libucosii_bsp.a(altera_up_sd_card_avalon_interface.o)
 .debug_abbrev  0x000090f5      0x172 C:/Users/jchang3/Documents/ECE492/test/software/accelerometer_pen_bsp/\libucosii_bsp.a(alt_alarm_start.o)
 .debug_abbrev  0x00009267       0x3f C:/Users/jchang3/Documents/ECE492/test/software/accelerometer_pen_bsp/\libucosii_bsp.a(alt_dcache_flush_all.o)
 .debug_abbrev  0x000092a6       0xf6 C:/Users/jchang3/Documents/ECE492/test/software/accelerometer_pen_bsp/\libucosii_bsp.a(alt_dev_llist_insert.o)
 .debug_abbrev  0x0000939c       0x76 C:/Users/jchang3/Documents/ECE492/test/software/accelerometer_pen_bsp/\libucosii_bsp.a(alt_do_ctors.o)
 .debug_abbrev  0x00009412       0x76 C:/Users/jchang3/Documents/ECE492/test/software/accelerometer_pen_bsp/\libucosii_bsp.a(alt_do_dtors.o)
 .debug_abbrev  0x00009488       0xd6 C:/Users/jchang3/Documents/ECE492/test/software/accelerometer_pen_bsp/\libucosii_bsp.a(alt_find_dev.o)
 .debug_abbrev  0x0000955e       0x3f C:/Users/jchang3/Documents/ECE492/test/software/accelerometer_pen_bsp/\libucosii_bsp.a(alt_icache_flush_all.o)
 .debug_abbrev  0x0000959d       0xf7 C:/Users/jchang3/Documents/ECE492/test/software/accelerometer_pen_bsp/\libucosii_bsp.a(alt_io_redirect.o)
 .debug_abbrev  0x00009694      0x180 C:/Users/jchang3/Documents/ECE492/test/software/accelerometer_pen_bsp/\libucosii_bsp.a(alt_irq_register.o)
 .debug_abbrev  0x00009814       0x44 C:/Users/jchang3/Documents/ECE492/test/software/accelerometer_pen_bsp/\libucosii_bsp.a(alt_irq_vars.o)
 .debug_abbrev  0x00009858      0x119 C:/Users/jchang3/Documents/ECE492/test/software/accelerometer_pen_bsp/\libucosii_bsp.a(alt_open.o)
 .debug_abbrev  0x00009971      0x161 C:/Users/jchang3/Documents/ECE492/test/software/accelerometer_pen_bsp/\libucosii_bsp.a(alt_tick.o)
 .debug_abbrev  0x00009ad2       0x64 C:/Users/jchang3/Documents/ECE492/test/software/accelerometer_pen_bsp/\libucosii_bsp.a(altera_nios2_qsys_irq.o)
 .debug_abbrev  0x00009b36       0x14 C:/Users/jchang3/Documents/ECE492/test/software/accelerometer_pen_bsp/\libucosii_bsp.a(os_cpu_a.o)
 .debug_abbrev  0x00009b4a      0x1d0 C:/Users/jchang3/Documents/ECE492/test/software/accelerometer_pen_bsp/\libucosii_bsp.a(os_cpu_c.o)
 .debug_abbrev  0x00009d1a       0xd6 C:/Users/jchang3/Documents/ECE492/test/software/accelerometer_pen_bsp/\libucosii_bsp.a(alt_find_file.o)
 .debug_abbrev  0x00009df0      0x173 C:/Users/jchang3/Documents/ECE492/test/software/accelerometer_pen_bsp/\libucosii_bsp.a(alt_get_fd.o)
 .debug_abbrev  0x00009f63       0x12 C:/Users/jchang3/Documents/ECE492/test/software/accelerometer_pen_bsp/\libucosii_bsp.a(alt_irq_entry.o)
 .debug_abbrev  0x00009f75      0x124 C:/Users/jchang3/Documents/ECE492/test/software/accelerometer_pen_bsp/\libucosii_bsp.a(alt_irq_handler.o)
 .debug_abbrev  0x0000a099       0x12 C:/Users/jchang3/Documents/ECE492/test/software/accelerometer_pen_bsp/\libucosii_bsp.a(alt_exception_entry.o)
 .debug_abbrev  0x0000a0ab       0xb7 c:/altera/12.1sp1/nios2eds/bin/gnu/h-i686-mingw32/bin/../lib/gcc/nios2-elf/4.1.2/../../../../nios2-elf/lib/mno-hw-mul\libc.a(lib_a-atexit.o)
 .debug_abbrev  0x0000a162      0x16e c:/altera/12.1sp1/nios2eds/bin/gnu/h-i686-mingw32/bin/../lib/gcc/nios2-elf/4.1.2/../../../../nios2-elf/lib/mno-hw-mul\libc.a(lib_a-exit.o)
 .debug_abbrev  0x0000a2d0       0x7c c:/altera/12.1sp1/nios2eds/bin/gnu/h-i686-mingw32/bin/../lib/gcc/nios2-elf/4.1.2/../../../../nios2-elf/lib/mno-hw-mul\libc.a(lib_a-memcmp.o)
 .debug_abbrev  0x0000a34c      0x17f c:/altera/12.1sp1/nios2eds/bin/gnu/h-i686-mingw32/bin/../lib/gcc/nios2-elf/4.1.2/../../../../nios2-elf/lib/mno-hw-mul\libc.a(lib_a-putc.o)
 .debug_abbrev  0x0000a4cb      0x198 c:/altera/12.1sp1/nios2eds/bin/gnu/h-i686-mingw32/bin/../lib/gcc/nios2-elf/4.1.2/../../../../nios2-elf/lib/mno-hw-mul\libc.a(lib_a-wbuf.o)
 .debug_abbrev  0x0000a663      0x1ae c:/altera/12.1sp1/nios2eds/bin/gnu/h-i686-mingw32/bin/../lib/gcc/nios2-elf/4.1.2/../../../../nios2-elf/lib/mno-hw-mul\libc.a(lib_a-__atexit.o)
 .debug_abbrev  0x0000a811      0x1de c:/altera/12.1sp1/nios2eds/bin/gnu/h-i686-mingw32/bin/../lib/gcc/nios2-elf/4.1.2/../../../../nios2-elf/lib/mno-hw-mul\libc.a(lib_a-__call_atexit.o)
 .debug_abbrev  0x0000a9ef       0xaa C:/Users/jchang3/Documents/ECE492/test/software/accelerometer_pen_bsp/\libucosii_bsp.a(alt_exit.o)

.debug_line     0x00000000    0x1f9eb
 *(.debug_line)
 .debug_line    0x00000000       0x66 C:/Users/jchang3/Documents/ECE492/test/software/accelerometer_pen_bsp//obj/HAL/src/crt0.o
 .debug_line    0x00000066      0x3f5 obj/default/dtw.o
 .debug_line    0x0000045b      0xb5d obj/default/hello_ucosii.o
 .debug_line    0x00000fb8      0x26a c:/altera/12.1sp1/nios2eds/bin/gnu/h-i686-mingw32/bin/../lib/gcc/nios2-elf/4.1.2/mno-hw-mul\libgcc.a(_div_sf.o)
 .debug_line    0x00001222       0xd1 c:/altera/12.1sp1/nios2eds/bin/gnu/h-i686-mingw32/bin/../lib/gcc/nios2-elf/4.1.2/mno-hw-mul\libgcc.a(_sf_to_df.o)
 .debug_line    0x000012f3       0x94 c:/altera/12.1sp1/nios2eds/bin/gnu/h-i686-mingw32/bin/../lib/gcc/nios2-elf/4.1.2/mno-hw-mul\libgcc.a(_thenan_sf.o)
 .debug_line    0x00001387      0x183 c:/altera/12.1sp1/nios2eds/bin/gnu/h-i686-mingw32/bin/../lib/gcc/nios2-elf/4.1.2/mno-hw-mul\libgcc.a(_usi_to_sf.o)
 .debug_line    0x0000150a      0x430 c:/altera/12.1sp1/nios2eds/bin/gnu/h-i686-mingw32/bin/../lib/gcc/nios2-elf/4.1.2/mno-hw-mul\libgcc.a(_addsub_df.o)
 .debug_line    0x0000193a      0x3e5 c:/altera/12.1sp1/nios2eds/bin/gnu/h-i686-mingw32/bin/../lib/gcc/nios2-elf/4.1.2/mno-hw-mul\libgcc.a(_mul_df.o)
 .debug_line    0x00001d1f      0x175 c:/altera/12.1sp1/nios2eds/bin/gnu/h-i686-mingw32/bin/../lib/gcc/nios2-elf/4.1.2/mno-hw-mul\libgcc.a(_si_to_df.o)
 .debug_line    0x00001e94      0x149 c:/altera/12.1sp1/nios2eds/bin/gnu/h-i686-mingw32/bin/../lib/gcc/nios2-elf/4.1.2/mno-hw-mul\libgcc.a(_df_to_si.o)
 .debug_line    0x00001fdd       0xe9 c:/altera/12.1sp1/nios2eds/bin/gnu/h-i686-mingw32/bin/../lib/gcc/nios2-elf/4.1.2/mno-hw-mul\libgcc.a(_make_df.o)
 .debug_line    0x000020c6       0x94 c:/altera/12.1sp1/nios2eds/bin/gnu/h-i686-mingw32/bin/../lib/gcc/nios2-elf/4.1.2/mno-hw-mul\libgcc.a(_thenan_df.o)
 .debug_line    0x0000215a      0x11a c:/altera/12.1sp1/nios2eds/bin/gnu/h-i686-mingw32/bin/../lib/gcc/nios2-elf/4.1.2/mno-hw-mul\libgcc.a(lib2-mul.o)
 .debug_line    0x00002274      0x14f c:/altera/12.1sp1/nios2eds/bin/gnu/h-i686-mingw32/bin/../lib/gcc/nios2-elf/4.1.2/mno-hw-mul\libgcc.a(_muldi3.o)
 .debug_line    0x000023c3      0x105 c:/altera/12.1sp1/nios2eds/bin/gnu/h-i686-mingw32/bin/../lib/gcc/nios2-elf/4.1.2/mno-hw-mul\libgcc.a(_clzsi2.o)
 .debug_line    0x000024c8      0x1ca c:/altera/12.1sp1/nios2eds/bin/gnu/h-i686-mingw32/bin/../lib/gcc/nios2-elf/4.1.2/mno-hw-mul\libgcc.a(_pack_sf.o)
 .debug_line    0x00002692      0x197 c:/altera/12.1sp1/nios2eds/bin/gnu/h-i686-mingw32/bin/../lib/gcc/nios2-elf/4.1.2/mno-hw-mul\libgcc.a(_unpack_sf.o)
 .debug_line    0x00002829      0x222 c:/altera/12.1sp1/nios2eds/bin/gnu/h-i686-mingw32/bin/../lib/gcc/nios2-elf/4.1.2/mno-hw-mul\libgcc.a(_pack_df.o)
 .debug_line    0x00002a4b      0x1e4 c:/altera/12.1sp1/nios2eds/bin/gnu/h-i686-mingw32/bin/../lib/gcc/nios2-elf/4.1.2/mno-hw-mul\libgcc.a(_unpack_df.o)
 .debug_line    0x00002c2f       0xaa c:/altera/12.1sp1/nios2eds/bin/gnu/h-i686-mingw32/bin/../lib/gcc/nios2-elf/4.1.2/mno-hw-mul\libgcc.a(_clz.o)
 .debug_line    0x00002cd9      0x20f c:/altera/12.1sp1/nios2eds/bin/gnu/h-i686-mingw32/bin/../lib/gcc/nios2-elf/4.1.2/../../../../nios2-elf/lib/mno-hw-mul\libc.a(lib_a-calloc.o)
 .debug_line    0x00002ee8      0x25f c:/altera/12.1sp1/nios2eds/bin/gnu/h-i686-mingw32/bin/../lib/gcc/nios2-elf/4.1.2/../../../../nios2-elf/lib/mno-hw-mul\libc.a(lib_a-callocr.o)
 .debug_line    0x00003147      0x23b c:/altera/12.1sp1/nios2eds/bin/gnu/h-i686-mingw32/bin/../lib/gcc/nios2-elf/4.1.2/../../../../nios2-elf/lib/mno-hw-mul\libc.a(lib_a-clock.o)
 .debug_line    0x00003382      0x230 c:/altera/12.1sp1/nios2eds/bin/gnu/h-i686-mingw32/bin/../lib/gcc/nios2-elf/4.1.2/../../../../nios2-elf/lib/mno-hw-mul\libc.a(lib_a-impure.o)
 .debug_line    0x000035b2      0x80d c:/altera/12.1sp1/nios2eds/bin/gnu/h-i686-mingw32/bin/../lib/gcc/nios2-elf/4.1.2/../../../../nios2-elf/lib/mno-hw-mul\libc.a(lib_a-mallocr.o)
 .debug_line    0x00003dbf      0x304 c:/altera/12.1sp1/nios2eds/bin/gnu/h-i686-mingw32/bin/../lib/gcc/nios2-elf/4.1.2/../../../../nios2-elf/lib/mno-hw-mul\libc.a(lib_a-memset.o)
 .debug_line    0x000040c3      0x29e c:/altera/12.1sp1/nios2eds/bin/gnu/h-i686-mingw32/bin/../lib/gcc/nios2-elf/4.1.2/../../../../nios2-elf/lib/mno-hw-mul\libc.a(lib_a-printf.o)
 .debug_line    0x00004361      0x2fa c:/altera/12.1sp1/nios2eds/bin/gnu/h-i686-mingw32/bin/../lib/gcc/nios2-elf/4.1.2/../../../../nios2-elf/lib/mno-hw-mul\libc.a(lib_a-puts.o)
 .debug_line    0x0000465b      0x29c c:/altera/12.1sp1/nios2eds/bin/gnu/h-i686-mingw32/bin/../lib/gcc/nios2-elf/4.1.2/../../../../nios2-elf/lib/mno-hw-mul\libc.a(lib_a-sbrkr.o)
 .debug_line    0x000048f7      0x270 c:/altera/12.1sp1/nios2eds/bin/gnu/h-i686-mingw32/bin/../lib/gcc/nios2-elf/4.1.2/../../../../nios2-elf/lib/mno-hw-mul\libc.a(lib_a-strlen.o)
 .debug_line    0x00004b67      0x236 c:/altera/12.1sp1/nios2eds/bin/gnu/h-i686-mingw32/bin/../lib/gcc/nios2-elf/4.1.2/../../../../nios2-elf/lib/mno-hw-mul\libc.a(lib_a-timesr.o)
 .debug_line    0x00004d9d     0x110f c:/altera/12.1sp1/nios2eds/bin/gnu/h-i686-mingw32/bin/../lib/gcc/nios2-elf/4.1.2/../../../../nios2-elf/lib/mno-hw-mul\libc.a(lib_a-vfprintf.o)
 .debug_line    0x00005eac      0x2f3 c:/altera/12.1sp1/nios2eds/bin/gnu/h-i686-mingw32/bin/../lib/gcc/nios2-elf/4.1.2/../../../../nios2-elf/lib/mno-hw-mul\libc.a(lib_a-wsetup.o)
 .debug_line    0x0000619f     0x1309 c:/altera/12.1sp1/nios2eds/bin/gnu/h-i686-mingw32/bin/../lib/gcc/nios2-elf/4.1.2/../../../../nios2-elf/lib/mno-hw-mul\libc.a(lib_a-dtoa.o)
 .debug_line    0x000074a8      0x410 c:/altera/12.1sp1/nios2eds/bin/gnu/h-i686-mingw32/bin/../lib/gcc/nios2-elf/4.1.2/../../../../nios2-elf/lib/mno-hw-mul\libc.a(lib_a-fflush.o)
 .debug_line    0x000078b8      0x60c c:/altera/12.1sp1/nios2eds/bin/gnu/h-i686-mingw32/bin/../lib/gcc/nios2-elf/4.1.2/../../../../nios2-elf/lib/mno-hw-mul\libc.a(lib_a-findfp.o)
 .debug_line    0x00007ec4      0x5ee c:/altera/12.1sp1/nios2eds/bin/gnu/h-i686-mingw32/bin/../lib/gcc/nios2-elf/4.1.2/../../../../nios2-elf/lib/mno-hw-mul\libc.a(lib_a-freer.o)
 .debug_line    0x000084b2      0x644 c:/altera/12.1sp1/nios2eds/bin/gnu/h-i686-mingw32/bin/../lib/gcc/nios2-elf/4.1.2/../../../../nios2-elf/lib/mno-hw-mul\libc.a(lib_a-fvwrite.o)
 .debug_line    0x00008af6      0x34d c:/altera/12.1sp1/nios2eds/bin/gnu/h-i686-mingw32/bin/../lib/gcc/nios2-elf/4.1.2/../../../../nios2-elf/lib/mno-hw-mul\libc.a(lib_a-fwalk.o)
 .debug_line    0x00008e43      0x1e2 c:/altera/12.1sp1/nios2eds/bin/gnu/h-i686-mingw32/bin/../lib/gcc/nios2-elf/4.1.2/../../../../nios2-elf/lib/mno-hw-mul\libc.a(lib_a-int_errno.o)
 .debug_line    0x00009025      0x2cb c:/altera/12.1sp1/nios2eds/bin/gnu/h-i686-mingw32/bin/../lib/gcc/nios2-elf/4.1.2/../../../../nios2-elf/lib/mno-hw-mul\libc.a(lib_a-locale.o)
 .debug_line    0x000092f0      0x3c6 c:/altera/12.1sp1/nios2eds/bin/gnu/h-i686-mingw32/bin/../lib/gcc/nios2-elf/4.1.2/../../../../nios2-elf/lib/mno-hw-mul\libc.a(lib_a-makebuf.o)
 .debug_line    0x000096b6      0x306 c:/altera/12.1sp1/nios2eds/bin/gnu/h-i686-mingw32/bin/../lib/gcc/nios2-elf/4.1.2/../../../../nios2-elf/lib/mno-hw-mul\libc.a(lib_a-memchr.o)
 .debug_line    0x000099bc      0x1af c:/altera/12.1sp1/nios2eds/bin/gnu/h-i686-mingw32/bin/../lib/gcc/nios2-elf/4.1.2/../../../../nios2-elf/lib/mno-hw-mul\libc.a(lib_a-memcpy.o)
 .debug_line    0x00009b6b      0x30d c:/altera/12.1sp1/nios2eds/bin/gnu/h-i686-mingw32/bin/../lib/gcc/nios2-elf/4.1.2/../../../../nios2-elf/lib/mno-hw-mul\libc.a(lib_a-memmove.o)
 .debug_line    0x00009e78     0x125e c:/altera/12.1sp1/nios2eds/bin/gnu/h-i686-mingw32/bin/../lib/gcc/nios2-elf/4.1.2/../../../../nios2-elf/lib/mno-hw-mul\libc.a(lib_a-mprec.o)
 .debug_line    0x0000b0d6      0x58d c:/altera/12.1sp1/nios2eds/bin/gnu/h-i686-mingw32/bin/../lib/gcc/nios2-elf/4.1.2/../../../../nios2-elf/lib/mno-hw-mul\libc.a(lib_a-reallocr.o)
 .debug_line    0x0000b663      0x225 c:/altera/12.1sp1/nios2eds/bin/gnu/h-i686-mingw32/bin/../lib/gcc/nios2-elf/4.1.2/../../../../nios2-elf/lib/mno-hw-mul\libc.a(lib_a-s_isinfd.o)
 .debug_line    0x0000b888      0x21d c:/altera/12.1sp1/nios2eds/bin/gnu/h-i686-mingw32/bin/../lib/gcc/nios2-elf/4.1.2/../../../../nios2-elf/lib/mno-hw-mul\libc.a(lib_a-s_isnand.o)
 .debug_line    0x0000baa5      0x38f c:/altera/12.1sp1/nios2eds/bin/gnu/h-i686-mingw32/bin/../lib/gcc/nios2-elf/4.1.2/../../../../nios2-elf/lib/mno-hw-mul\libc.a(lib_a-stdio.o)
 .debug_line    0x0000be34      0x2d8 c:/altera/12.1sp1/nios2eds/bin/gnu/h-i686-mingw32/bin/../lib/gcc/nios2-elf/4.1.2/../../../../nios2-elf/lib/mno-hw-mul\libc.a(lib_a-strcmp.o)
 .debug_line    0x0000c10c      0x29d c:/altera/12.1sp1/nios2eds/bin/gnu/h-i686-mingw32/bin/../lib/gcc/nios2-elf/4.1.2/../../../../nios2-elf/lib/mno-hw-mul\libc.a(lib_a-writer.o)
 .debug_line    0x0000c3a9      0x29d c:/altera/12.1sp1/nios2eds/bin/gnu/h-i686-mingw32/bin/../lib/gcc/nios2-elf/4.1.2/../../../../nios2-elf/lib/mno-hw-mul\libc.a(lib_a-closer.o)
 .debug_line    0x0000c646      0x2eb c:/altera/12.1sp1/nios2eds/bin/gnu/h-i686-mingw32/bin/../lib/gcc/nios2-elf/4.1.2/../../../../nios2-elf/lib/mno-hw-mul\libc.a(lib_a-fclose.o)
 .debug_line    0x0000c931      0x267 c:/altera/12.1sp1/nios2eds/bin/gnu/h-i686-mingw32/bin/../lib/gcc/nios2-elf/4.1.2/../../../../nios2-elf/lib/mno-hw-mul\libc.a(lib_a-fstatr.o)
 .debug_line    0x0000cb98      0x29e c:/altera/12.1sp1/nios2eds/bin/gnu/h-i686-mingw32/bin/../lib/gcc/nios2-elf/4.1.2/../../../../nios2-elf/lib/mno-hw-mul\libc.a(lib_a-isattyr.o)
 .debug_line    0x0000ce36      0x29d c:/altera/12.1sp1/nios2eds/bin/gnu/h-i686-mingw32/bin/../lib/gcc/nios2-elf/4.1.2/../../../../nios2-elf/lib/mno-hw-mul\libc.a(lib_a-lseekr.o)
 .debug_line    0x0000d0d3      0x29c c:/altera/12.1sp1/nios2eds/bin/gnu/h-i686-mingw32/bin/../lib/gcc/nios2-elf/4.1.2/../../../../nios2-elf/lib/mno-hw-mul\libc.a(lib_a-readr.o)
 .debug_line    0x0000d36f      0x2f2 c:/altera/12.1sp1/nios2eds/bin/gnu/h-i686-mingw32/bin/../lib/gcc/nios2-elf/4.1.2/mno-hw-mul\libgcc.a(_udivdi3.o)
 .debug_line    0x0000d661      0x405 c:/altera/12.1sp1/nios2eds/bin/gnu/h-i686-mingw32/bin/../lib/gcc/nios2-elf/4.1.2/mno-hw-mul\libgcc.a(_umoddi3.o)
 .debug_line    0x0000da66      0x301 c:/altera/12.1sp1/nios2eds/bin/gnu/h-i686-mingw32/bin/../lib/gcc/nios2-elf/4.1.2/mno-hw-mul\libgcc.a(_div_df.o)
 .debug_line    0x0000dd67      0x129 c:/altera/12.1sp1/nios2eds/bin/gnu/h-i686-mingw32/bin/../lib/gcc/nios2-elf/4.1.2/mno-hw-mul\libgcc.a(_eq_df.o)
 .debug_line    0x0000de90      0x129 c:/altera/12.1sp1/nios2eds/bin/gnu/h-i686-mingw32/bin/../lib/gcc/nios2-elf/4.1.2/mno-hw-mul\libgcc.a(_ne_df.o)
 .debug_line    0x0000dfb9      0x129 c:/altera/12.1sp1/nios2eds/bin/gnu/h-i686-mingw32/bin/../lib/gcc/nios2-elf/4.1.2/mno-hw-mul\libgcc.a(_gt_df.o)
 .debug_line    0x0000e0e2      0x129 c:/altera/12.1sp1/nios2eds/bin/gnu/h-i686-mingw32/bin/../lib/gcc/nios2-elf/4.1.2/mno-hw-mul\libgcc.a(_ge_df.o)
 .debug_line    0x0000e20b      0x129 c:/altera/12.1sp1/nios2eds/bin/gnu/h-i686-mingw32/bin/../lib/gcc/nios2-elf/4.1.2/mno-hw-mul\libgcc.a(_lt_df.o)
 .debug_line    0x0000e334      0x189 c:/altera/12.1sp1/nios2eds/bin/gnu/h-i686-mingw32/bin/../lib/gcc/nios2-elf/4.1.2/mno-hw-mul\libgcc.a(_usi_to_df.o)
 .debug_line    0x0000e4bd      0x24f c:/altera/12.1sp1/nios2eds/bin/gnu/h-i686-mingw32/bin/../lib/gcc/nios2-elf/4.1.2/mno-hw-mul\libgcc.a(lib2-divmod.o)
 .debug_line    0x0000e70c      0x187 c:/altera/12.1sp1/nios2eds/bin/gnu/h-i686-mingw32/bin/../lib/gcc/nios2-elf/4.1.2/mno-hw-mul\libgcc.a(_fpcmp_parts_df.o)
 .debug_line    0x0000e893      0x30d C:/Users/jchang3/Documents/ECE492/test/software/accelerometer_pen_bsp/\libucosii_bsp.a(alt_close.o)
 .debug_line    0x0000eba0      0x2d1 C:/Users/jchang3/Documents/ECE492/test/software/accelerometer_pen_bsp/\libucosii_bsp.a(alt_dev.o)
 .debug_line    0x0000ee71      0x1aa C:/Users/jchang3/Documents/ECE492/test/software/accelerometer_pen_bsp/\libucosii_bsp.a(alt_errno.o)
 .debug_line    0x0000f01b      0x315 C:/Users/jchang3/Documents/ECE492/test/software/accelerometer_pen_bsp/\libucosii_bsp.a(alt_fstat.o)
 .debug_line    0x0000f330      0x316 C:/Users/jchang3/Documents/ECE492/test/software/accelerometer_pen_bsp/\libucosii_bsp.a(alt_isatty.o)
 .debug_line    0x0000f646      0x217 C:/Users/jchang3/Documents/ECE492/test/software/accelerometer_pen_bsp/\libucosii_bsp.a(alt_load.o)
 .debug_line    0x0000f85d      0x315 C:/Users/jchang3/Documents/ECE492/test/software/accelerometer_pen_bsp/\libucosii_bsp.a(alt_lseek.o)
 .debug_line    0x0000fb72      0x35d C:/Users/jchang3/Documents/ECE492/test/software/accelerometer_pen_bsp/\libucosii_bsp.a(alt_main.o)
 .debug_line    0x0000fecf      0x1da C:/Users/jchang3/Documents/ECE492/test/software/accelerometer_pen_bsp/\libucosii_bsp.a(alt_printf.o)
 .debug_line    0x000100a9      0x1ca C:/Users/jchang3/Documents/ECE492/test/software/accelerometer_pen_bsp/\libucosii_bsp.a(alt_putchar.o)
 .debug_line    0x00010273      0x33c C:/Users/jchang3/Documents/ECE492/test/software/accelerometer_pen_bsp/\libucosii_bsp.a(alt_read.o)
 .debug_line    0x000105af      0x28d C:/Users/jchang3/Documents/ECE492/test/software/accelerometer_pen_bsp/\libucosii_bsp.a(alt_release_fd.o)
 .debug_line    0x0001083c      0x27a C:/Users/jchang3/Documents/ECE492/test/software/accelerometer_pen_bsp/\libucosii_bsp.a(alt_sbrk.o)
 .debug_line    0x00010ab6      0x296 C:/Users/jchang3/Documents/ECE492/test/software/accelerometer_pen_bsp/\libucosii_bsp.a(alt_times.o)
 .debug_line    0x00010d4c      0x33d C:/Users/jchang3/Documents/ECE492/test/software/accelerometer_pen_bsp/\libucosii_bsp.a(alt_write.o)
 .debug_line    0x00011089      0x2d8 C:/Users/jchang3/Documents/ECE492/test/software/accelerometer_pen_bsp/\libucosii_bsp.a(alt_env_lock.o)
 .debug_line    0x00011361      0x394 C:/Users/jchang3/Documents/ECE492/test/software/accelerometer_pen_bsp/\libucosii_bsp.a(alt_malloc_lock.o)
 .debug_line    0x000116f5     0x167c C:/Users/jchang3/Documents/ECE492/test/software/accelerometer_pen_bsp/\libucosii_bsp.a(os_core.o)
 .debug_line    0x00012d71      0x3a1 C:/Users/jchang3/Documents/ECE492/test/software/accelerometer_pen_bsp/\libucosii_bsp.a(os_dbg.o)
 .debug_line    0x00013112     0x1200 C:/Users/jchang3/Documents/ECE492/test/software/accelerometer_pen_bsp/\libucosii_bsp.a(os_flag.o)
 .debug_line    0x00014312      0x7a3 C:/Users/jchang3/Documents/ECE492/test/software/accelerometer_pen_bsp/\libucosii_bsp.a(os_mem.o)
 .debug_line    0x00014ab5      0xe84 C:/Users/jchang3/Documents/ECE492/test/software/accelerometer_pen_bsp/\libucosii_bsp.a(os_q.o)
 .debug_line    0x00015939      0xa3c C:/Users/jchang3/Documents/ECE492/test/software/accelerometer_pen_bsp/\libucosii_bsp.a(os_sem.o)
 .debug_line    0x00016375     0x1145 C:/Users/jchang3/Documents/ECE492/test/software/accelerometer_pen_bsp/\libucosii_bsp.a(os_task.o)
 .debug_line    0x000174ba      0x548 C:/Users/jchang3/Documents/ECE492/test/software/accelerometer_pen_bsp/\libucosii_bsp.a(os_time.o)
 .debug_line    0x00017a02      0x390 C:/Users/jchang3/Documents/ECE492/test/software/accelerometer_pen_bsp/\libucosii_bsp.a(alt_sys_init.o)
 .debug_line    0x00017d92      0x330 C:/Users/jchang3/Documents/ECE492/test/software/accelerometer_pen_bsp/\libucosii_bsp.a(altera_avalon_jtag_uart_fd.o)
 .debug_line    0x000180c2      0x5af C:/Users/jchang3/Documents/ECE492/test/software/accelerometer_pen_bsp/\libucosii_bsp.a(altera_avalon_jtag_uart_init.o)
 .debug_line    0x00018671      0x36d C:/Users/jchang3/Documents/ECE492/test/software/accelerometer_pen_bsp/\libucosii_bsp.a(altera_avalon_jtag_uart_ioctl.o)
 .debug_line    0x000189de      0x4ab C:/Users/jchang3/Documents/ECE492/test/software/accelerometer_pen_bsp/\libucosii_bsp.a(altera_avalon_jtag_uart_read.o)
 .debug_line    0x00018e89      0x4b9 C:/Users/jchang3/Documents/ECE492/test/software/accelerometer_pen_bsp/\libucosii_bsp.a(altera_avalon_jtag_uart_write.o)
 .debug_line    0x00019342      0x2ca C:/Users/jchang3/Documents/ECE492/test/software/accelerometer_pen_bsp/\libucosii_bsp.a(altera_avalon_timer_sc.o)
 .debug_line    0x0001960c      0x4d9 C:/Users/jchang3/Documents/ECE492/test/software/accelerometer_pen_bsp/\libucosii_bsp.a(altera_up_avalon_character_lcd.o)
 .debug_line    0x00019ae5      0x461 C:/Users/jchang3/Documents/ECE492/test/software/accelerometer_pen_bsp/\libucosii_bsp.a(altera_up_avalon_rs232.o)
 .debug_line    0x00019f46     0x1a68 C:/Users/jchang3/Documents/ECE492/test/software/accelerometer_pen_bsp/\libucosii_bsp.a(altera_up_sd_card_avalon_interface.o)
 .debug_line    0x0001b9ae      0x2f5 C:/Users/jchang3/Documents/ECE492/test/software/accelerometer_pen_bsp/\libucosii_bsp.a(alt_alarm_start.o)
 .debug_line    0x0001bca3      0x1b5 C:/Users/jchang3/Documents/ECE492/test/software/accelerometer_pen_bsp/\libucosii_bsp.a(alt_dcache_flush_all.o)
 .debug_line    0x0001be58      0x25a C:/Users/jchang3/Documents/ECE492/test/software/accelerometer_pen_bsp/\libucosii_bsp.a(alt_dev_llist_insert.o)
 .debug_line    0x0001c0b2       0x83 C:/Users/jchang3/Documents/ECE492/test/software/accelerometer_pen_bsp/\libucosii_bsp.a(alt_do_ctors.o)
 .debug_line    0x0001c135       0x83 C:/Users/jchang3/Documents/ECE492/test/software/accelerometer_pen_bsp/\libucosii_bsp.a(alt_do_dtors.o)
 .debug_line    0x0001c1b8      0x2ee C:/Users/jchang3/Documents/ECE492/test/software/accelerometer_pen_bsp/\libucosii_bsp.a(alt_find_dev.o)
 .debug_line    0x0001c4a6      0x1b5 C:/Users/jchang3/Documents/ECE492/test/software/accelerometer_pen_bsp/\libucosii_bsp.a(alt_icache_flush_all.o)
 .debug_line    0x0001c65b      0x337 C:/Users/jchang3/Documents/ECE492/test/software/accelerometer_pen_bsp/\libucosii_bsp.a(alt_io_redirect.o)
 .debug_line    0x0001c992      0x36d C:/Users/jchang3/Documents/ECE492/test/software/accelerometer_pen_bsp/\libucosii_bsp.a(alt_irq_register.o)
 .debug_line    0x0001ccff       0x72 C:/Users/jchang3/Documents/ECE492/test/software/accelerometer_pen_bsp/\libucosii_bsp.a(alt_irq_vars.o)
 .debug_line    0x0001cd71      0x373 C:/Users/jchang3/Documents/ECE492/test/software/accelerometer_pen_bsp/\libucosii_bsp.a(alt_open.o)
 .debug_line    0x0001d0e4      0x32f C:/Users/jchang3/Documents/ECE492/test/software/accelerometer_pen_bsp/\libucosii_bsp.a(alt_tick.o)
 .debug_line    0x0001d413      0x1e7 C:/Users/jchang3/Documents/ECE492/test/software/accelerometer_pen_bsp/\libucosii_bsp.a(altera_nios2_qsys_irq.o)
 .debug_line    0x0001d5fa       0x86 C:/Users/jchang3/Documents/ECE492/test/software/accelerometer_pen_bsp/\libucosii_bsp.a(os_cpu_a.o)
 .debug_line    0x0001d680      0x341 C:/Users/jchang3/Documents/ECE492/test/software/accelerometer_pen_bsp/\libucosii_bsp.a(os_cpu_c.o)
 .debug_line    0x0001d9c1      0x2ff C:/Users/jchang3/Documents/ECE492/test/software/accelerometer_pen_bsp/\libucosii_bsp.a(alt_find_file.o)
 .debug_line    0x0001dcc0      0x32f C:/Users/jchang3/Documents/ECE492/test/software/accelerometer_pen_bsp/\libucosii_bsp.a(alt_get_fd.o)
 .debug_line    0x0001dfef       0x6b C:/Users/jchang3/Documents/ECE492/test/software/accelerometer_pen_bsp/\libucosii_bsp.a(alt_irq_entry.o)
 .debug_line    0x0001e05a      0x2dd C:/Users/jchang3/Documents/ECE492/test/software/accelerometer_pen_bsp/\libucosii_bsp.a(alt_irq_handler.o)
 .debug_line    0x0001e337       0xab C:/Users/jchang3/Documents/ECE492/test/software/accelerometer_pen_bsp/\libucosii_bsp.a(alt_exception_entry.o)
 .debug_line    0x0001e3e2      0x203 c:/altera/12.1sp1/nios2eds/bin/gnu/h-i686-mingw32/bin/../lib/gcc/nios2-elf/4.1.2/../../../../nios2-elf/lib/mno-hw-mul\libc.a(lib_a-atexit.o)
 .debug_line    0x0001e5e5      0x23b c:/altera/12.1sp1/nios2eds/bin/gnu/h-i686-mingw32/bin/../lib/gcc/nios2-elf/4.1.2/../../../../nios2-elf/lib/mno-hw-mul\libc.a(lib_a-exit.o)
 .debug_line    0x0001e820      0x2a2 c:/altera/12.1sp1/nios2eds/bin/gnu/h-i686-mingw32/bin/../lib/gcc/nios2-elf/4.1.2/../../../../nios2-elf/lib/mno-hw-mul\libc.a(lib_a-memcmp.o)
 .debug_line    0x0001eac2      0x2c7 c:/altera/12.1sp1/nios2eds/bin/gnu/h-i686-mingw32/bin/../lib/gcc/nios2-elf/4.1.2/../../../../nios2-elf/lib/mno-hw-mul\libc.a(lib_a-putc.o)
 .debug_line    0x0001ed89      0x353 c:/altera/12.1sp1/nios2eds/bin/gnu/h-i686-mingw32/bin/../lib/gcc/nios2-elf/4.1.2/../../../../nios2-elf/lib/mno-hw-mul\libc.a(lib_a-wbuf.o)
 .debug_line    0x0001f0dc      0x316 c:/altera/12.1sp1/nios2eds/bin/gnu/h-i686-mingw32/bin/../lib/gcc/nios2-elf/4.1.2/../../../../nios2-elf/lib/mno-hw-mul\libc.a(lib_a-__atexit.o)
 .debug_line    0x0001f3f2      0x36a c:/altera/12.1sp1/nios2eds/bin/gnu/h-i686-mingw32/bin/../lib/gcc/nios2-elf/4.1.2/../../../../nios2-elf/lib/mno-hw-mul\libc.a(lib_a-__call_atexit.o)
 .debug_line    0x0001f75c      0x28f C:/Users/jchang3/Documents/ECE492/test/software/accelerometer_pen_bsp/\libucosii_bsp.a(alt_exit.o)

.debug_frame    0x00000000     0x2e40
 *(.debug_frame)
 .debug_frame   0x00000000       0xa4 obj/default/dtw.o
 .debug_frame   0x000000a4      0x128 obj/default/hello_ucosii.o
 .debug_frame   0x000001cc       0x2c c:/altera/12.1sp1/nios2eds/bin/gnu/h-i686-mingw32/bin/../lib/gcc/nios2-elf/4.1.2/mno-hw-mul\libgcc.a(_div_sf.o)
 .debug_frame   0x000001f8       0x28 c:/altera/12.1sp1/nios2eds/bin/gnu/h-i686-mingw32/bin/../lib/gcc/nios2-elf/4.1.2/mno-hw-mul\libgcc.a(_sf_to_df.o)
 .debug_frame   0x00000220       0x2c c:/altera/12.1sp1/nios2eds/bin/gnu/h-i686-mingw32/bin/../lib/gcc/nios2-elf/4.1.2/mno-hw-mul\libgcc.a(_usi_to_sf.o)
 .debug_frame   0x0000024c       0x70 c:/altera/12.1sp1/nios2eds/bin/gnu/h-i686-mingw32/bin/../lib/gcc/nios2-elf/4.1.2/mno-hw-mul\libgcc.a(_addsub_df.o)
 .debug_frame   0x000002bc       0x3c c:/altera/12.1sp1/nios2eds/bin/gnu/h-i686-mingw32/bin/../lib/gcc/nios2-elf/4.1.2/mno-hw-mul\libgcc.a(_mul_df.o)
 .debug_frame   0x000002f8       0x30 c:/altera/12.1sp1/nios2eds/bin/gnu/h-i686-mingw32/bin/../lib/gcc/nios2-elf/4.1.2/mno-hw-mul\libgcc.a(_si_to_df.o)
 .debug_frame   0x00000328       0x28 c:/altera/12.1sp1/nios2eds/bin/gnu/h-i686-mingw32/bin/../lib/gcc/nios2-elf/4.1.2/mno-hw-mul\libgcc.a(_df_to_si.o)
 .debug_frame   0x00000350       0x28 c:/altera/12.1sp1/nios2eds/bin/gnu/h-i686-mingw32/bin/../lib/gcc/nios2-elf/4.1.2/mno-hw-mul\libgcc.a(_make_df.o)
 .debug_frame   0x00000378       0x20 c:/altera/12.1sp1/nios2eds/bin/gnu/h-i686-mingw32/bin/../lib/gcc/nios2-elf/4.1.2/mno-hw-mul\libgcc.a(lib2-mul.o)
 .debug_frame   0x00000398       0x40 c:/altera/12.1sp1/nios2eds/bin/gnu/h-i686-mingw32/bin/../lib/gcc/nios2-elf/4.1.2/mno-hw-mul\libgcc.a(_muldi3.o)
 .debug_frame   0x000003d8       0x20 c:/altera/12.1sp1/nios2eds/bin/gnu/h-i686-mingw32/bin/../lib/gcc/nios2-elf/4.1.2/mno-hw-mul\libgcc.a(_clzsi2.o)
 .debug_frame   0x000003f8       0x20 c:/altera/12.1sp1/nios2eds/bin/gnu/h-i686-mingw32/bin/../lib/gcc/nios2-elf/4.1.2/mno-hw-mul\libgcc.a(_pack_sf.o)
 .debug_frame   0x00000418       0x20 c:/altera/12.1sp1/nios2eds/bin/gnu/h-i686-mingw32/bin/../lib/gcc/nios2-elf/4.1.2/mno-hw-mul\libgcc.a(_unpack_sf.o)
 .debug_frame   0x00000438       0x2c c:/altera/12.1sp1/nios2eds/bin/gnu/h-i686-mingw32/bin/../lib/gcc/nios2-elf/4.1.2/mno-hw-mul\libgcc.a(_pack_df.o)
 .debug_frame   0x00000464       0x20 c:/altera/12.1sp1/nios2eds/bin/gnu/h-i686-mingw32/bin/../lib/gcc/nios2-elf/4.1.2/mno-hw-mul\libgcc.a(_unpack_df.o)
 .debug_frame   0x00000484       0x20 c:/altera/12.1sp1/nios2eds/bin/gnu/h-i686-mingw32/bin/../lib/gcc/nios2-elf/4.1.2/../../../../nios2-elf/lib/mno-hw-mul\libc.a(lib_a-calloc.o)
 .debug_frame   0x000004a4       0x2c c:/altera/12.1sp1/nios2eds/bin/gnu/h-i686-mingw32/bin/../lib/gcc/nios2-elf/4.1.2/../../../../nios2-elf/lib/mno-hw-mul\libc.a(lib_a-callocr.o)
 .debug_frame   0x000004d0       0x28 c:/altera/12.1sp1/nios2eds/bin/gnu/h-i686-mingw32/bin/../lib/gcc/nios2-elf/4.1.2/../../../../nios2-elf/lib/mno-hw-mul\libc.a(lib_a-clock.o)
 .debug_frame   0x000004f8       0x38 c:/altera/12.1sp1/nios2eds/bin/gnu/h-i686-mingw32/bin/../lib/gcc/nios2-elf/4.1.2/../../../../nios2-elf/lib/mno-hw-mul\libc.a(lib_a-mallocr.o)
 .debug_frame   0x00000530       0x20 c:/altera/12.1sp1/nios2eds/bin/gnu/h-i686-mingw32/bin/../lib/gcc/nios2-elf/4.1.2/../../../../nios2-elf/lib/mno-hw-mul\libc.a(lib_a-memset.o)
 .debug_frame   0x00000550       0x40 c:/altera/12.1sp1/nios2eds/bin/gnu/h-i686-mingw32/bin/../lib/gcc/nios2-elf/4.1.2/../../../../nios2-elf/lib/mno-hw-mul\libc.a(lib_a-printf.o)
 .debug_frame   0x00000590       0x3c c:/altera/12.1sp1/nios2eds/bin/gnu/h-i686-mingw32/bin/../lib/gcc/nios2-elf/4.1.2/../../../../nios2-elf/lib/mno-hw-mul\libc.a(lib_a-puts.o)
 .debug_frame   0x000005cc       0x2c c:/altera/12.1sp1/nios2eds/bin/gnu/h-i686-mingw32/bin/../lib/gcc/nios2-elf/4.1.2/../../../../nios2-elf/lib/mno-hw-mul\libc.a(lib_a-sbrkr.o)
 .debug_frame   0x000005f8       0x20 c:/altera/12.1sp1/nios2eds/bin/gnu/h-i686-mingw32/bin/../lib/gcc/nios2-elf/4.1.2/../../../../nios2-elf/lib/mno-hw-mul\libc.a(lib_a-strlen.o)
 .debug_frame   0x00000618       0x20 c:/altera/12.1sp1/nios2eds/bin/gnu/h-i686-mingw32/bin/../lib/gcc/nios2-elf/4.1.2/../../../../nios2-elf/lib/mno-hw-mul\libc.a(lib_a-timesr.o)
 .debug_frame   0x00000638       0x64 c:/altera/12.1sp1/nios2eds/bin/gnu/h-i686-mingw32/bin/../lib/gcc/nios2-elf/4.1.2/../../../../nios2-elf/lib/mno-hw-mul\libc.a(lib_a-vfprintf.o)
 .debug_frame   0x0000069c       0x2c c:/altera/12.1sp1/nios2eds/bin/gnu/h-i686-mingw32/bin/../lib/gcc/nios2-elf/4.1.2/../../../../nios2-elf/lib/mno-hw-mul\libc.a(lib_a-wsetup.o)
 .debug_frame   0x000006c8       0x64 c:/altera/12.1sp1/nios2eds/bin/gnu/h-i686-mingw32/bin/../lib/gcc/nios2-elf/4.1.2/../../../../nios2-elf/lib/mno-hw-mul\libc.a(lib_a-dtoa.o)
 .debug_frame   0x0000072c       0x40 c:/altera/12.1sp1/nios2eds/bin/gnu/h-i686-mingw32/bin/../lib/gcc/nios2-elf/4.1.2/../../../../nios2-elf/lib/mno-hw-mul\libc.a(lib_a-fflush.o)
 .debug_frame   0x0000076c      0x118 c:/altera/12.1sp1/nios2eds/bin/gnu/h-i686-mingw32/bin/../lib/gcc/nios2-elf/4.1.2/../../../../nios2-elf/lib/mno-hw-mul\libc.a(lib_a-findfp.o)
 .debug_frame   0x00000884       0x4c c:/altera/12.1sp1/nios2eds/bin/gnu/h-i686-mingw32/bin/../lib/gcc/nios2-elf/4.1.2/../../../../nios2-elf/lib/mno-hw-mul\libc.a(lib_a-freer.o)
 .debug_frame   0x000008d0       0x38 c:/altera/12.1sp1/nios2eds/bin/gnu/h-i686-mingw32/bin/../lib/gcc/nios2-elf/4.1.2/../../../../nios2-elf/lib/mno-hw-mul\libc.a(lib_a-fvwrite.o)
 .debug_frame   0x00000908       0x60 c:/altera/12.1sp1/nios2eds/bin/gnu/h-i686-mingw32/bin/../lib/gcc/nios2-elf/4.1.2/../../../../nios2-elf/lib/mno-hw-mul\libc.a(lib_a-fwalk.o)
 .debug_frame   0x00000968       0x70 c:/altera/12.1sp1/nios2eds/bin/gnu/h-i686-mingw32/bin/../lib/gcc/nios2-elf/4.1.2/../../../../nios2-elf/lib/mno-hw-mul\libc.a(lib_a-locale.o)
 .debug_frame   0x000009d8       0x2c c:/altera/12.1sp1/nios2eds/bin/gnu/h-i686-mingw32/bin/../lib/gcc/nios2-elf/4.1.2/../../../../nios2-elf/lib/mno-hw-mul\libc.a(lib_a-makebuf.o)
 .debug_frame   0x00000a04       0x20 c:/altera/12.1sp1/nios2eds/bin/gnu/h-i686-mingw32/bin/../lib/gcc/nios2-elf/4.1.2/../../../../nios2-elf/lib/mno-hw-mul\libc.a(lib_a-memchr.o)
 .debug_frame   0x00000a24       0x20 c:/altera/12.1sp1/nios2eds/bin/gnu/h-i686-mingw32/bin/../lib/gcc/nios2-elf/4.1.2/../../../../nios2-elf/lib/mno-hw-mul\libc.a(lib_a-memcpy.o)
 .debug_frame   0x00000a44       0x20 c:/altera/12.1sp1/nios2eds/bin/gnu/h-i686-mingw32/bin/../lib/gcc/nios2-elf/4.1.2/../../../../nios2-elf/lib/mno-hw-mul\libc.a(lib_a-memmove.o)
 .debug_frame   0x00000a64      0x228 c:/altera/12.1sp1/nios2eds/bin/gnu/h-i686-mingw32/bin/../lib/gcc/nios2-elf/4.1.2/../../../../nios2-elf/lib/mno-hw-mul\libc.a(lib_a-mprec.o)
 .debug_frame   0x00000c8c       0x38 c:/altera/12.1sp1/nios2eds/bin/gnu/h-i686-mingw32/bin/../lib/gcc/nios2-elf/4.1.2/../../../../nios2-elf/lib/mno-hw-mul\libc.a(lib_a-reallocr.o)
 .debug_frame   0x00000cc4       0x20 c:/altera/12.1sp1/nios2eds/bin/gnu/h-i686-mingw32/bin/../lib/gcc/nios2-elf/4.1.2/../../../../nios2-elf/lib/mno-hw-mul\libc.a(lib_a-s_isinfd.o)
 .debug_frame   0x00000ce4       0x20 c:/altera/12.1sp1/nios2eds/bin/gnu/h-i686-mingw32/bin/../lib/gcc/nios2-elf/4.1.2/../../../../nios2-elf/lib/mno-hw-mul\libc.a(lib_a-s_isnand.o)
 .debug_frame   0x00000d04       0x78 c:/altera/12.1sp1/nios2eds/bin/gnu/h-i686-mingw32/bin/../lib/gcc/nios2-elf/4.1.2/../../../../nios2-elf/lib/mno-hw-mul\libc.a(lib_a-stdio.o)
 .debug_frame   0x00000d7c       0x20 c:/altera/12.1sp1/nios2eds/bin/gnu/h-i686-mingw32/bin/../lib/gcc/nios2-elf/4.1.2/../../../../nios2-elf/lib/mno-hw-mul\libc.a(lib_a-strcmp.o)
 .debug_frame   0x00000d9c       0x2c c:/altera/12.1sp1/nios2eds/bin/gnu/h-i686-mingw32/bin/../lib/gcc/nios2-elf/4.1.2/../../../../nios2-elf/lib/mno-hw-mul\libc.a(lib_a-writer.o)
 .debug_frame   0x00000dc8       0x2c c:/altera/12.1sp1/nios2eds/bin/gnu/h-i686-mingw32/bin/../lib/gcc/nios2-elf/4.1.2/../../../../nios2-elf/lib/mno-hw-mul\libc.a(lib_a-closer.o)
 .debug_frame   0x00000df4       0x3c c:/altera/12.1sp1/nios2eds/bin/gnu/h-i686-mingw32/bin/../lib/gcc/nios2-elf/4.1.2/../../../../nios2-elf/lib/mno-hw-mul\libc.a(lib_a-fclose.o)
 .debug_frame   0x00000e30       0x2c c:/altera/12.1sp1/nios2eds/bin/gnu/h-i686-mingw32/bin/../lib/gcc/nios2-elf/4.1.2/../../../../nios2-elf/lib/mno-hw-mul\libc.a(lib_a-fstatr.o)
 .debug_frame   0x00000e5c       0x2c c:/altera/12.1sp1/nios2eds/bin/gnu/h-i686-mingw32/bin/../lib/gcc/nios2-elf/4.1.2/../../../../nios2-elf/lib/mno-hw-mul\libc.a(lib_a-isattyr.o)
 .debug_frame   0x00000e88       0x2c c:/altera/12.1sp1/nios2eds/bin/gnu/h-i686-mingw32/bin/../lib/gcc/nios2-elf/4.1.2/../../../../nios2-elf/lib/mno-hw-mul\libc.a(lib_a-lseekr.o)
 .debug_frame   0x00000eb4       0x2c c:/altera/12.1sp1/nios2eds/bin/gnu/h-i686-mingw32/bin/../lib/gcc/nios2-elf/4.1.2/../../../../nios2-elf/lib/mno-hw-mul\libc.a(lib_a-readr.o)
 .debug_frame   0x00000ee0       0x38 c:/altera/12.1sp1/nios2eds/bin/gnu/h-i686-mingw32/bin/../lib/gcc/nios2-elf/4.1.2/mno-hw-mul\libgcc.a(_udivdi3.o)
 .debug_frame   0x00000f18       0x38 c:/altera/12.1sp1/nios2eds/bin/gnu/h-i686-mingw32/bin/../lib/gcc/nios2-elf/4.1.2/mno-hw-mul\libgcc.a(_umoddi3.o)
 .debug_frame   0x00000f50       0x30 c:/altera/12.1sp1/nios2eds/bin/gnu/h-i686-mingw32/bin/../lib/gcc/nios2-elf/4.1.2/mno-hw-mul\libgcc.a(_div_df.o)
 .debug_frame   0x00000f80       0x2c c:/altera/12.1sp1/nios2eds/bin/gnu/h-i686-mingw32/bin/../lib/gcc/nios2-elf/4.1.2/mno-hw-mul\libgcc.a(_eq_df.o)
 .debug_frame   0x00000fac       0x2c c:/altera/12.1sp1/nios2eds/bin/gnu/h-i686-mingw32/bin/../lib/gcc/nios2-elf/4.1.2/mno-hw-mul\libgcc.a(_ne_df.o)
 .debug_frame   0x00000fd8       0x2c c:/altera/12.1sp1/nios2eds/bin/gnu/h-i686-mingw32/bin/../lib/gcc/nios2-elf/4.1.2/mno-hw-mul\libgcc.a(_gt_df.o)
 .debug_frame   0x00001004       0x2c c:/altera/12.1sp1/nios2eds/bin/gnu/h-i686-mingw32/bin/../lib/gcc/nios2-elf/4.1.2/mno-hw-mul\libgcc.a(_ge_df.o)
 .debug_frame   0x00001030       0x2c c:/altera/12.1sp1/nios2eds/bin/gnu/h-i686-mingw32/bin/../lib/gcc/nios2-elf/4.1.2/mno-hw-mul\libgcc.a(_lt_df.o)
 .debug_frame   0x0000105c       0x38 c:/altera/12.1sp1/nios2eds/bin/gnu/h-i686-mingw32/bin/../lib/gcc/nios2-elf/4.1.2/mno-hw-mul\libgcc.a(_usi_to_df.o)
 .debug_frame   0x00001094       0x70 c:/altera/12.1sp1/nios2eds/bin/gnu/h-i686-mingw32/bin/../lib/gcc/nios2-elf/4.1.2/mno-hw-mul\libgcc.a(lib2-divmod.o)
 .debug_frame   0x00001104       0x20 c:/altera/12.1sp1/nios2eds/bin/gnu/h-i686-mingw32/bin/../lib/gcc/nios2-elf/4.1.2/mno-hw-mul\libgcc.a(_fpcmp_parts_df.o)
 .debug_frame   0x00001124       0x48 C:/Users/jchang3/Documents/ECE492/test/software/accelerometer_pen_bsp/\libucosii_bsp.a(alt_close.o)
 .debug_frame   0x0000116c       0x2c C:/Users/jchang3/Documents/ECE492/test/software/accelerometer_pen_bsp/\libucosii_bsp.a(alt_dev.o)
 .debug_frame   0x00001198       0x48 C:/Users/jchang3/Documents/ECE492/test/software/accelerometer_pen_bsp/\libucosii_bsp.a(alt_fstat.o)
 .debug_frame   0x000011e0       0x48 C:/Users/jchang3/Documents/ECE492/test/software/accelerometer_pen_bsp/\libucosii_bsp.a(alt_isatty.o)
 .debug_frame   0x00001228       0x48 C:/Users/jchang3/Documents/ECE492/test/software/accelerometer_pen_bsp/\libucosii_bsp.a(alt_load.o)
 .debug_frame   0x00001270       0x48 C:/Users/jchang3/Documents/ECE492/test/software/accelerometer_pen_bsp/\libucosii_bsp.a(alt_lseek.o)
 .debug_frame   0x000012b8       0x2c C:/Users/jchang3/Documents/ECE492/test/software/accelerometer_pen_bsp/\libucosii_bsp.a(alt_main.o)
 .debug_frame   0x000012e4       0x2c C:/Users/jchang3/Documents/ECE492/test/software/accelerometer_pen_bsp/\libucosii_bsp.a(alt_printf.o)
 .debug_frame   0x00001310       0x2c C:/Users/jchang3/Documents/ECE492/test/software/accelerometer_pen_bsp/\libucosii_bsp.a(alt_putchar.o)
 .debug_frame   0x0000133c       0x48 C:/Users/jchang3/Documents/ECE492/test/software/accelerometer_pen_bsp/\libucosii_bsp.a(alt_read.o)
 .debug_frame   0x00001384       0x30 C:/Users/jchang3/Documents/ECE492/test/software/accelerometer_pen_bsp/\libucosii_bsp.a(alt_release_fd.o)
 .debug_frame   0x000013b4       0x2c C:/Users/jchang3/Documents/ECE492/test/software/accelerometer_pen_bsp/\libucosii_bsp.a(alt_sbrk.o)
 .debug_frame   0x000013e0       0x48 C:/Users/jchang3/Documents/ECE492/test/software/accelerometer_pen_bsp/\libucosii_bsp.a(alt_times.o)
 .debug_frame   0x00001428       0x48 C:/Users/jchang3/Documents/ECE492/test/software/accelerometer_pen_bsp/\libucosii_bsp.a(alt_write.o)
 .debug_frame   0x00001470       0x4c C:/Users/jchang3/Documents/ECE492/test/software/accelerometer_pen_bsp/\libucosii_bsp.a(alt_env_lock.o)
 .debug_frame   0x000014bc       0x4c C:/Users/jchang3/Documents/ECE492/test/software/accelerometer_pen_bsp/\libucosii_bsp.a(alt_malloc_lock.o)
 .debug_frame   0x00001508      0x3e4 C:/Users/jchang3/Documents/ECE492/test/software/accelerometer_pen_bsp/\libucosii_bsp.a(os_core.o)
 .debug_frame   0x000018ec       0x2c C:/Users/jchang3/Documents/ECE492/test/software/accelerometer_pen_bsp/\libucosii_bsp.a(os_dbg.o)
 .debug_frame   0x00001918      0x180 C:/Users/jchang3/Documents/ECE492/test/software/accelerometer_pen_bsp/\libucosii_bsp.a(os_flag.o)
 .debug_frame   0x00001a98       0xd4 C:/Users/jchang3/Documents/ECE492/test/software/accelerometer_pen_bsp/\libucosii_bsp.a(os_mem.o)
 .debug_frame   0x00001b6c      0x144 C:/Users/jchang3/Documents/ECE492/test/software/accelerometer_pen_bsp/\libucosii_bsp.a(os_q.o)
 .debug_frame   0x00001cb0       0xf0 C:/Users/jchang3/Documents/ECE492/test/software/accelerometer_pen_bsp/\libucosii_bsp.a(os_sem.o)
 .debug_frame   0x00001da0      0x160 C:/Users/jchang3/Documents/ECE492/test/software/accelerometer_pen_bsp/\libucosii_bsp.a(os_task.o)
 .debug_frame   0x00001f00       0xa0 C:/Users/jchang3/Documents/ECE492/test/software/accelerometer_pen_bsp/\libucosii_bsp.a(os_time.o)
 .debug_frame   0x00001fa0       0x64 C:/Users/jchang3/Documents/ECE492/test/software/accelerometer_pen_bsp/\libucosii_bsp.a(alt_sys_init.o)
 .debug_frame   0x00002004       0x80 C:/Users/jchang3/Documents/ECE492/test/software/accelerometer_pen_bsp/\libucosii_bsp.a(altera_avalon_jtag_uart_fd.o)
 .debug_frame   0x00002084       0x80 C:/Users/jchang3/Documents/ECE492/test/software/accelerometer_pen_bsp/\libucosii_bsp.a(altera_avalon_jtag_uart_init.o)
 .debug_frame   0x00002104       0x2c C:/Users/jchang3/Documents/ECE492/test/software/accelerometer_pen_bsp/\libucosii_bsp.a(altera_avalon_jtag_uart_ioctl.o)
 .debug_frame   0x00002130       0x2c C:/Users/jchang3/Documents/ECE492/test/software/accelerometer_pen_bsp/\libucosii_bsp.a(altera_avalon_jtag_uart_read.o)
 .debug_frame   0x0000215c       0x2c C:/Users/jchang3/Documents/ECE492/test/software/accelerometer_pen_bsp/\libucosii_bsp.a(altera_avalon_jtag_uart_write.o)
 .debug_frame   0x00002188       0x48 C:/Users/jchang3/Documents/ECE492/test/software/accelerometer_pen_bsp/\libucosii_bsp.a(altera_avalon_timer_sc.o)
 .debug_frame   0x000021d0      0x17c C:/Users/jchang3/Documents/ECE492/test/software/accelerometer_pen_bsp/\libucosii_bsp.a(altera_up_avalon_character_lcd.o)
 .debug_frame   0x0000234c      0x128 C:/Users/jchang3/Documents/ECE492/test/software/accelerometer_pen_bsp/\libucosii_bsp.a(altera_up_avalon_rs232.o)
 .debug_frame   0x00002474      0x3c0 C:/Users/jchang3/Documents/ECE492/test/software/accelerometer_pen_bsp/\libucosii_bsp.a(altera_up_sd_card_avalon_interface.o)
 .debug_frame   0x00002834       0x2c C:/Users/jchang3/Documents/ECE492/test/software/accelerometer_pen_bsp/\libucosii_bsp.a(alt_alarm_start.o)
 .debug_frame   0x00002860       0x2c C:/Users/jchang3/Documents/ECE492/test/software/accelerometer_pen_bsp/\libucosii_bsp.a(alt_dcache_flush_all.o)
 .debug_frame   0x0000288c       0x48 C:/Users/jchang3/Documents/ECE492/test/software/accelerometer_pen_bsp/\libucosii_bsp.a(alt_dev_llist_insert.o)
 .debug_frame   0x000028d4       0x2c C:/Users/jchang3/Documents/ECE492/test/software/accelerometer_pen_bsp/\libucosii_bsp.a(alt_do_ctors.o)
 .debug_frame   0x00002900       0x2c C:/Users/jchang3/Documents/ECE492/test/software/accelerometer_pen_bsp/\libucosii_bsp.a(alt_do_dtors.o)
 .debug_frame   0x0000292c       0x2c C:/Users/jchang3/Documents/ECE492/test/software/accelerometer_pen_bsp/\libucosii_bsp.a(alt_find_dev.o)
 .debug_frame   0x00002958       0x2c C:/Users/jchang3/Documents/ECE492/test/software/accelerometer_pen_bsp/\libucosii_bsp.a(alt_icache_flush_all.o)
 .debug_frame   0x00002984       0x4c C:/Users/jchang3/Documents/ECE492/test/software/accelerometer_pen_bsp/\libucosii_bsp.a(alt_io_redirect.o)
 .debug_frame   0x000029d0       0x2c C:/Users/jchang3/Documents/ECE492/test/software/accelerometer_pen_bsp/\libucosii_bsp.a(alt_irq_register.o)
 .debug_frame   0x000029fc       0x68 C:/Users/jchang3/Documents/ECE492/test/software/accelerometer_pen_bsp/\libucosii_bsp.a(alt_open.o)
 .debug_frame   0x00002a64       0x48 C:/Users/jchang3/Documents/ECE492/test/software/accelerometer_pen_bsp/\libucosii_bsp.a(alt_tick.o)
 .debug_frame   0x00002aac       0x2c C:/Users/jchang3/Documents/ECE492/test/software/accelerometer_pen_bsp/\libucosii_bsp.a(altera_nios2_qsys_irq.o)
 .debug_frame   0x00002ad8      0x128 C:/Users/jchang3/Documents/ECE492/test/software/accelerometer_pen_bsp/\libucosii_bsp.a(os_cpu_c.o)
 .debug_frame   0x00002c00       0x2c C:/Users/jchang3/Documents/ECE492/test/software/accelerometer_pen_bsp/\libucosii_bsp.a(alt_find_file.o)
 .debug_frame   0x00002c2c       0x30 C:/Users/jchang3/Documents/ECE492/test/software/accelerometer_pen_bsp/\libucosii_bsp.a(alt_get_fd.o)
 .debug_frame   0x00002c5c       0x2c C:/Users/jchang3/Documents/ECE492/test/software/accelerometer_pen_bsp/\libucosii_bsp.a(alt_irq_handler.o)
 .debug_frame   0x00002c88       0x20 c:/altera/12.1sp1/nios2eds/bin/gnu/h-i686-mingw32/bin/../lib/gcc/nios2-elf/4.1.2/../../../../nios2-elf/lib/mno-hw-mul\libc.a(lib_a-atexit.o)
 .debug_frame   0x00002ca8       0x28 c:/altera/12.1sp1/nios2eds/bin/gnu/h-i686-mingw32/bin/../lib/gcc/nios2-elf/4.1.2/../../../../nios2-elf/lib/mno-hw-mul\libc.a(lib_a-exit.o)
 .debug_frame   0x00002cd0       0x20 c:/altera/12.1sp1/nios2eds/bin/gnu/h-i686-mingw32/bin/../lib/gcc/nios2-elf/4.1.2/../../../../nios2-elf/lib/mno-hw-mul\libc.a(lib_a-memcmp.o)
 .debug_frame   0x00002cf0       0x4c c:/altera/12.1sp1/nios2eds/bin/gnu/h-i686-mingw32/bin/../lib/gcc/nios2-elf/4.1.2/../../../../nios2-elf/lib/mno-hw-mul\libc.a(lib_a-putc.o)
 .debug_frame   0x00002d3c       0x3c c:/altera/12.1sp1/nios2eds/bin/gnu/h-i686-mingw32/bin/../lib/gcc/nios2-elf/4.1.2/../../../../nios2-elf/lib/mno-hw-mul\libc.a(lib_a-wbuf.o)
 .debug_frame   0x00002d78       0x34 c:/altera/12.1sp1/nios2eds/bin/gnu/h-i686-mingw32/bin/../lib/gcc/nios2-elf/4.1.2/../../../../nios2-elf/lib/mno-hw-mul\libc.a(lib_a-__atexit.o)
 .debug_frame   0x00002dac       0x4c c:/altera/12.1sp1/nios2eds/bin/gnu/h-i686-mingw32/bin/../lib/gcc/nios2-elf/4.1.2/../../../../nios2-elf/lib/mno-hw-mul\libc.a(lib_a-__call_atexit.o)
 .debug_frame   0x00002df8       0x48 C:/Users/jchang3/Documents/ECE492/test/software/accelerometer_pen_bsp/\libucosii_bsp.a(alt_exit.o)

.debug_str      0x00000000     0x2a25
 *(.debug_str)
 .debug_str     0x00000000       0x12 obj/default/dtw.o
 .debug_str     0x00000012       0x7a obj/default/hello_ucosii.o
 .debug_str     0x0000008c      0x1cd c:/altera/12.1sp1/nios2eds/bin/gnu/h-i686-mingw32/bin/../lib/gcc/nios2-elf/4.1.2/mno-hw-mul\libgcc.a(_div_sf.o)
                                0x22b (size before relaxing)
 .debug_str     0x00000259       0x15 c:/altera/12.1sp1/nios2eds/bin/gnu/h-i686-mingw32/bin/../lib/gcc/nios2-elf/4.1.2/mno-hw-mul\libgcc.a(_sf_to_df.o)
                                0x1f2 (size before relaxing)
 .debug_str     0x00000000      0x1a3 c:/altera/12.1sp1/nios2eds/bin/gnu/h-i686-mingw32/bin/../lib/gcc/nios2-elf/4.1.2/mno-hw-mul\libgcc.a(_thenan_sf.o)
 .debug_str     0x0000026e       0x1b c:/altera/12.1sp1/nios2eds/bin/gnu/h-i686-mingw32/bin/../lib/gcc/nios2-elf/4.1.2/mno-hw-mul\libgcc.a(_usi_to_sf.o)
                                0x1da (size before relaxing)
 .debug_str     0x00000289       0x8a c:/altera/12.1sp1/nios2eds/bin/gnu/h-i686-mingw32/bin/../lib/gcc/nios2-elf/4.1.2/mno-hw-mul\libgcc.a(_addsub_df.o)
                                0x26f (size before relaxing)
 .debug_str     0x00000313       0x45 c:/altera/12.1sp1/nios2eds/bin/gnu/h-i686-mingw32/bin/../lib/gcc/nios2-elf/4.1.2/mno-hw-mul\libgcc.a(_mul_df.o)
                                0x241 (size before relaxing)
 .debug_str     0x00000358       0x11 c:/altera/12.1sp1/nios2eds/bin/gnu/h-i686-mingw32/bin/../lib/gcc/nios2-elf/4.1.2/mno-hw-mul\libgcc.a(_si_to_df.o)
                                0x1de (size before relaxing)
 .debug_str     0x00000369        0xa c:/altera/12.1sp1/nios2eds/bin/gnu/h-i686-mingw32/bin/../lib/gcc/nios2-elf/4.1.2/mno-hw-mul\libgcc.a(_df_to_si.o)
                                0x207 (size before relaxing)
 .debug_str     0x00000373        0xa c:/altera/12.1sp1/nios2eds/bin/gnu/h-i686-mingw32/bin/../lib/gcc/nios2-elf/4.1.2/mno-hw-mul\libgcc.a(_make_df.o)
                                0x1b9 (size before relaxing)
 .debug_str     0x00000000      0x1a3 c:/altera/12.1sp1/nios2eds/bin/gnu/h-i686-mingw32/bin/../lib/gcc/nios2-elf/4.1.2/mno-hw-mul\libgcc.a(_thenan_df.o)
 .debug_str     0x0000037d       0x62 c:/altera/12.1sp1/nios2eds/bin/gnu/h-i686-mingw32/bin/../lib/gcc/nios2-elf/4.1.2/mno-hw-mul\libgcc.a(lib2-mul.o)
                                0x175 (size before relaxing)
 .debug_str     0x000003df       0x62 c:/altera/12.1sp1/nios2eds/bin/gnu/h-i686-mingw32/bin/../lib/gcc/nios2-elf/4.1.2/mno-hw-mul\libgcc.a(_muldi3.o)
                                0x1ac (size before relaxing)
 .debug_str     0x00000441       0x20 c:/altera/12.1sp1/nios2eds/bin/gnu/h-i686-mingw32/bin/../lib/gcc/nios2-elf/4.1.2/mno-hw-mul\libgcc.a(_clzsi2.o)
                                0x17e (size before relaxing)
 .debug_str     0x00000461       0x10 c:/altera/12.1sp1/nios2eds/bin/gnu/h-i686-mingw32/bin/../lib/gcc/nios2-elf/4.1.2/mno-hw-mul\libgcc.a(_pack_sf.o)
                                0x200 (size before relaxing)
 .debug_str     0x00000471        0xb c:/altera/12.1sp1/nios2eds/bin/gnu/h-i686-mingw32/bin/../lib/gcc/nios2-elf/4.1.2/mno-hw-mul\libgcc.a(_unpack_sf.o)
                                0x1e2 (size before relaxing)
 .debug_str     0x0000047c        0x9 c:/altera/12.1sp1/nios2eds/bin/gnu/h-i686-mingw32/bin/../lib/gcc/nios2-elf/4.1.2/mno-hw-mul\libgcc.a(_pack_df.o)
                                0x206 (size before relaxing)
 .debug_str     0x00000485        0xb c:/altera/12.1sp1/nios2eds/bin/gnu/h-i686-mingw32/bin/../lib/gcc/nios2-elf/4.1.2/mno-hw-mul\libgcc.a(_unpack_df.o)
                                0x1e8 (size before relaxing)
 .debug_str     0x00000000      0x161 c:/altera/12.1sp1/nios2eds/bin/gnu/h-i686-mingw32/bin/../lib/gcc/nios2-elf/4.1.2/mno-hw-mul\libgcc.a(_clz.o)
 .debug_str     0x00000490      0x43d c:/altera/12.1sp1/nios2eds/bin/gnu/h-i686-mingw32/bin/../lib/gcc/nios2-elf/4.1.2/../../../../nios2-elf/lib/mno-hw-mul\libc.a(lib_a-calloc.o)
                                0x51e (size before relaxing)
 .debug_str     0x000008cd       0x83 c:/altera/12.1sp1/nios2eds/bin/gnu/h-i686-mingw32/bin/../lib/gcc/nios2-elf/4.1.2/../../../../nios2-elf/lib/mno-hw-mul\libc.a(lib_a-callocr.o)
                                0x550 (size before relaxing)
 .debug_str     0x00000950      0x10e c:/altera/12.1sp1/nios2eds/bin/gnu/h-i686-mingw32/bin/../lib/gcc/nios2-elf/4.1.2/../../../../nios2-elf/lib/mno-hw-mul\libc.a(lib_a-clock.o)
                                0x544 (size before relaxing)
 .debug_str     0x00000a5e       0xf2 c:/altera/12.1sp1/nios2eds/bin/gnu/h-i686-mingw32/bin/../lib/gcc/nios2-elf/4.1.2/../../../../nios2-elf/lib/mno-hw-mul\libc.a(lib_a-impure.o)
                                0x528 (size before relaxing)
 .debug_str     0x00000b50      0x1a7 c:/altera/12.1sp1/nios2eds/bin/gnu/h-i686-mingw32/bin/../lib/gcc/nios2-elf/4.1.2/../../../../nios2-elf/lib/mno-hw-mul\libc.a(lib_a-mallocr.o)
                                0x6ff (size before relaxing)
 .debug_str     0x00000cf7       0xf0 c:/altera/12.1sp1/nios2eds/bin/gnu/h-i686-mingw32/bin/../lib/gcc/nios2-elf/4.1.2/../../../../nios2-elf/lib/mno-hw-mul\libc.a(lib_a-memset.o)
                                0x18c (size before relaxing)
 .debug_str     0x00000de7       0xec c:/altera/12.1sp1/nios2eds/bin/gnu/h-i686-mingw32/bin/../lib/gcc/nios2-elf/4.1.2/../../../../nios2-elf/lib/mno-hw-mul\libc.a(lib_a-printf.o)
                                0x531 (size before relaxing)
 .debug_str     0x00000ed3       0x84 c:/altera/12.1sp1/nios2eds/bin/gnu/h-i686-mingw32/bin/../lib/gcc/nios2-elf/4.1.2/../../../../nios2-elf/lib/mno-hw-mul\libc.a(lib_a-puts.o)
                                0x557 (size before relaxing)
 .debug_str     0x00000f57       0x53 c:/altera/12.1sp1/nios2eds/bin/gnu/h-i686-mingw32/bin/../lib/gcc/nios2-elf/4.1.2/../../../../nios2-elf/lib/mno-hw-mul\libc.a(lib_a-sbrkr.o)
                                0x519 (size before relaxing)
 .debug_str     0x00000faa       0x45 c:/altera/12.1sp1/nios2eds/bin/gnu/h-i686-mingw32/bin/../lib/gcc/nios2-elf/4.1.2/../../../../nios2-elf/lib/mno-hw-mul\libc.a(lib_a-strlen.o)
                                0x18b (size before relaxing)
 .debug_str     0x00000fef       0x4b c:/altera/12.1sp1/nios2eds/bin/gnu/h-i686-mingw32/bin/../lib/gcc/nios2-elf/4.1.2/../../../../nios2-elf/lib/mno-hw-mul\libc.a(lib_a-timesr.o)
                                0x53d (size before relaxing)
 .debug_str     0x0000103a      0x188 c:/altera/12.1sp1/nios2eds/bin/gnu/h-i686-mingw32/bin/../lib/gcc/nios2-elf/4.1.2/../../../../nios2-elf/lib/mno-hw-mul\libc.a(lib_a-vfprintf.o)
                                0x706 (size before relaxing)
 .debug_str     0x000011c2       0x49 c:/altera/12.1sp1/nios2eds/bin/gnu/h-i686-mingw32/bin/../lib/gcc/nios2-elf/4.1.2/../../../../nios2-elf/lib/mno-hw-mul\libc.a(lib_a-wsetup.o)
                                0x51a (size before relaxing)
 .debug_str     0x0000120b      0x105 c:/altera/12.1sp1/nios2eds/bin/gnu/h-i686-mingw32/bin/../lib/gcc/nios2-elf/4.1.2/../../../../nios2-elf/lib/mno-hw-mul\libc.a(lib_a-dtoa.o)
                                0x60f (size before relaxing)
 .debug_str     0x00001310       0x55 c:/altera/12.1sp1/nios2eds/bin/gnu/h-i686-mingw32/bin/../lib/gcc/nios2-elf/4.1.2/../../../../nios2-elf/lib/mno-hw-mul\libc.a(lib_a-fflush.o)
                                0x540 (size before relaxing)
 .debug_str     0x00001365      0x105 c:/altera/12.1sp1/nios2eds/bin/gnu/h-i686-mingw32/bin/../lib/gcc/nios2-elf/4.1.2/../../../../nios2-elf/lib/mno-hw-mul\libc.a(lib_a-findfp.o)
                                0x602 (size before relaxing)
 .debug_str     0x0000146a       0x3c c:/altera/12.1sp1/nios2eds/bin/gnu/h-i686-mingw32/bin/../lib/gcc/nios2-elf/4.1.2/../../../../nios2-elf/lib/mno-hw-mul\libc.a(lib_a-freer.o)
                                0x651 (size before relaxing)
 .debug_str     0x000014a6       0x69 c:/altera/12.1sp1/nios2eds/bin/gnu/h-i686-mingw32/bin/../lib/gcc/nios2-elf/4.1.2/../../../../nios2-elf/lib/mno-hw-mul\libc.a(lib_a-fvwrite.o)
                                0x571 (size before relaxing)
 .debug_str     0x0000150f       0x61 c:/altera/12.1sp1/nios2eds/bin/gnu/h-i686-mingw32/bin/../lib/gcc/nios2-elf/4.1.2/../../../../nios2-elf/lib/mno-hw-mul\libc.a(lib_a-fwalk.o)
                                0x543 (size before relaxing)
 .debug_str     0x00001570       0x40 c:/altera/12.1sp1/nios2eds/bin/gnu/h-i686-mingw32/bin/../lib/gcc/nios2-elf/4.1.2/../../../../nios2-elf/lib/mno-hw-mul\libc.a(lib_a-int_errno.o)
                                0x171 (size before relaxing)
 .debug_str     0x000015b0      0x233 c:/altera/12.1sp1/nios2eds/bin/gnu/h-i686-mingw32/bin/../lib/gcc/nios2-elf/4.1.2/../../../../nios2-elf/lib/mno-hw-mul\libc.a(lib_a-locale.o)
                                0x6b7 (size before relaxing)
 .debug_str     0x000017e3      0x126 c:/altera/12.1sp1/nios2eds/bin/gnu/h-i686-mingw32/bin/../lib/gcc/nios2-elf/4.1.2/../../../../nios2-elf/lib/mno-hw-mul\libc.a(lib_a-makebuf.o)
                                0x614 (size before relaxing)
 .debug_str     0x00001909       0x58 c:/altera/12.1sp1/nios2eds/bin/gnu/h-i686-mingw32/bin/../lib/gcc/nios2-elf/4.1.2/../../../../nios2-elf/lib/mno-hw-mul\libc.a(lib_a-memchr.o)
                                0x199 (size before relaxing)
 .debug_str     0x00001961       0x6c c:/altera/12.1sp1/nios2eds/bin/gnu/h-i686-mingw32/bin/../lib/gcc/nios2-elf/4.1.2/../../../../nios2-elf/lib/mno-hw-mul\libc.a(lib_a-memcpy.o)
                                0x136 (size before relaxing)
 .debug_str     0x000019cd       0x50 c:/altera/12.1sp1/nios2eds/bin/gnu/h-i686-mingw32/bin/../lib/gcc/nios2-elf/4.1.2/../../../../nios2-elf/lib/mno-hw-mul\libc.a(lib_a-memmove.o)
                                0x1ab (size before relaxing)
 .debug_str     0x00001a1d       0xfb c:/altera/12.1sp1/nios2eds/bin/gnu/h-i686-mingw32/bin/../lib/gcc/nios2-elf/4.1.2/../../../../nios2-elf/lib/mno-hw-mul\libc.a(lib_a-mprec.o)
                                0x61c (size before relaxing)
 .debug_str     0x00001b18       0x59 c:/altera/12.1sp1/nios2eds/bin/gnu/h-i686-mingw32/bin/../lib/gcc/nios2-elf/4.1.2/../../../../nios2-elf/lib/mno-hw-mul\libc.a(lib_a-reallocr.o)
                                0x5d1 (size before relaxing)
 .debug_str     0x00001b71       0xea c:/altera/12.1sp1/nios2eds/bin/gnu/h-i686-mingw32/bin/../lib/gcc/nios2-elf/4.1.2/../../../../nios2-elf/lib/mno-hw-mul\libc.a(lib_a-s_isinfd.o)
                                0x198 (size before relaxing)
 .debug_str     0x00001c5b       0x49 c:/altera/12.1sp1/nios2eds/bin/gnu/h-i686-mingw32/bin/../lib/gcc/nios2-elf/4.1.2/../../../../nios2-elf/lib/mno-hw-mul\libc.a(lib_a-s_isnand.o)
                                0x198 (size before relaxing)
 .debug_str     0x00001ca4       0x65 c:/altera/12.1sp1/nios2eds/bin/gnu/h-i686-mingw32/bin/../lib/gcc/nios2-elf/4.1.2/../../../../nios2-elf/lib/mno-hw-mul\libc.a(lib_a-stdio.o)
                                0x53f (size before relaxing)
 .debug_str     0x00001d09       0x45 c:/altera/12.1sp1/nios2eds/bin/gnu/h-i686-mingw32/bin/../lib/gcc/nios2-elf/4.1.2/../../../../nios2-elf/lib/mno-hw-mul\libc.a(lib_a-strcmp.o)
                                0x171 (size before relaxing)
 .debug_str     0x00001d4e       0x4f c:/altera/12.1sp1/nios2eds/bin/gnu/h-i686-mingw32/bin/../lib/gcc/nios2-elf/4.1.2/../../../../nios2-elf/lib/mno-hw-mul\libc.a(lib_a-writer.o)
                                0x51c (size before relaxing)
 .debug_str     0x00001d9d       0x46 c:/altera/12.1sp1/nios2eds/bin/gnu/h-i686-mingw32/bin/../lib/gcc/nios2-elf/4.1.2/../../../../nios2-elf/lib/mno-hw-mul\libc.a(lib_a-closer.o)
                                0x50c (size before relaxing)
 .debug_str     0x00001de3       0x4e c:/altera/12.1sp1/nios2eds/bin/gnu/h-i686-mingw32/bin/../lib/gcc/nios2-elf/4.1.2/../../../../nios2-elf/lib/mno-hw-mul\libc.a(lib_a-fclose.o)
                                0x524 (size before relaxing)
 .debug_str     0x00001e31       0x4c c:/altera/12.1sp1/nios2eds/bin/gnu/h-i686-mingw32/bin/../lib/gcc/nios2-elf/4.1.2/../../../../nios2-elf/lib/mno-hw-mul\libc.a(lib_a-fstatr.o)
                                0x5ff (size before relaxing)
 .debug_str     0x00001e7d       0x48 c:/altera/12.1sp1/nios2eds/bin/gnu/h-i686-mingw32/bin/../lib/gcc/nios2-elf/4.1.2/../../../../nios2-elf/lib/mno-hw-mul\libc.a(lib_a-isattyr.o)
                                0x50e (size before relaxing)
 .debug_str     0x00001ec5       0x46 c:/altera/12.1sp1/nios2eds/bin/gnu/h-i686-mingw32/bin/../lib/gcc/nios2-elf/4.1.2/../../../../nios2-elf/lib/mno-hw-mul\libc.a(lib_a-lseekr.o)
                                0x51a (size before relaxing)
 .debug_str     0x00001f0b       0x44 c:/altera/12.1sp1/nios2eds/bin/gnu/h-i686-mingw32/bin/../lib/gcc/nios2-elf/4.1.2/../../../../nios2-elf/lib/mno-hw-mul\libc.a(lib_a-readr.o)
                                0x51a (size before relaxing)
 .debug_str     0x00001f4f       0x35 c:/altera/12.1sp1/nios2eds/bin/gnu/h-i686-mingw32/bin/../lib/gcc/nios2-elf/4.1.2/mno-hw-mul\libgcc.a(_udivdi3.o)
                                0x1f7 (size before relaxing)
 .debug_str     0x00001f84        0xa c:/altera/12.1sp1/nios2eds/bin/gnu/h-i686-mingw32/bin/../lib/gcc/nios2-elf/4.1.2/mno-hw-mul\libgcc.a(_umoddi3.o)
                                0x1f7 (size before relaxing)
 .debug_str     0x00001f8e        0x9 c:/altera/12.1sp1/nios2eds/bin/gnu/h-i686-mingw32/bin/../lib/gcc/nios2-elf/4.1.2/mno-hw-mul\libgcc.a(_div_df.o)
                                0x231 (size before relaxing)
 .debug_str     0x00001f97        0x8 c:/altera/12.1sp1/nios2eds/bin/gnu/h-i686-mingw32/bin/../lib/gcc/nios2-elf/4.1.2/mno-hw-mul\libgcc.a(_eq_df.o)
                                0x1fe (size before relaxing)
 .debug_str     0x00001f9f        0x8 c:/altera/12.1sp1/nios2eds/bin/gnu/h-i686-mingw32/bin/../lib/gcc/nios2-elf/4.1.2/mno-hw-mul\libgcc.a(_ne_df.o)
                                0x1fe (size before relaxing)
 .debug_str     0x00001fa7        0x8 c:/altera/12.1sp1/nios2eds/bin/gnu/h-i686-mingw32/bin/../lib/gcc/nios2-elf/4.1.2/mno-hw-mul\libgcc.a(_gt_df.o)
                                0x1fe (size before relaxing)
 .debug_str     0x00001faf        0x8 c:/altera/12.1sp1/nios2eds/bin/gnu/h-i686-mingw32/bin/../lib/gcc/nios2-elf/4.1.2/mno-hw-mul\libgcc.a(_ge_df.o)
                                0x1fe (size before relaxing)
 .debug_str     0x00001fb7        0x8 c:/altera/12.1sp1/nios2eds/bin/gnu/h-i686-mingw32/bin/../lib/gcc/nios2-elf/4.1.2/mno-hw-mul\libgcc.a(_lt_df.o)
                                0x1fe (size before relaxing)
 .debug_str     0x00001fbf        0xe c:/altera/12.1sp1/nios2eds/bin/gnu/h-i686-mingw32/bin/../lib/gcc/nios2-elf/4.1.2/mno-hw-mul\libgcc.a(_usi_to_df.o)
                                0x1da (size before relaxing)
 .debug_str     0x00001fcd       0x76 c:/altera/12.1sp1/nios2eds/bin/gnu/h-i686-mingw32/bin/../lib/gcc/nios2-elf/4.1.2/mno-hw-mul\libgcc.a(lib2-divmod.o)
                                0x1b4 (size before relaxing)
 .debug_str     0x00002043       0x10 c:/altera/12.1sp1/nios2eds/bin/gnu/h-i686-mingw32/bin/../lib/gcc/nios2-elf/4.1.2/mno-hw-mul\libgcc.a(_fpcmp_parts_df.o)
                                0x1c6 (size before relaxing)
 .debug_str     0x00002053       0x12 C:/Users/jchang3/Documents/ECE492/test/software/accelerometer_pen_bsp/\libucosii_bsp.a(alt_close.o)
 .debug_str     0x00002065       0x12 C:/Users/jchang3/Documents/ECE492/test/software/accelerometer_pen_bsp/\libucosii_bsp.a(alt_dev.o)
 .debug_str     0x00002077       0x12 C:/Users/jchang3/Documents/ECE492/test/software/accelerometer_pen_bsp/\libucosii_bsp.a(alt_errno.o)
 .debug_str     0x00002089       0x12 C:/Users/jchang3/Documents/ECE492/test/software/accelerometer_pen_bsp/\libucosii_bsp.a(alt_fstat.o)
 .debug_str     0x0000209b       0x12 C:/Users/jchang3/Documents/ECE492/test/software/accelerometer_pen_bsp/\libucosii_bsp.a(alt_isatty.o)
 .debug_str     0x000020ad       0x12 C:/Users/jchang3/Documents/ECE492/test/software/accelerometer_pen_bsp/\libucosii_bsp.a(alt_load.o)
 .debug_str     0x000020bf       0x12 C:/Users/jchang3/Documents/ECE492/test/software/accelerometer_pen_bsp/\libucosii_bsp.a(alt_lseek.o)
 .debug_str     0x000020d1       0x12 C:/Users/jchang3/Documents/ECE492/test/software/accelerometer_pen_bsp/\libucosii_bsp.a(alt_main.o)
 .debug_str     0x000020e3       0x20 C:/Users/jchang3/Documents/ECE492/test/software/accelerometer_pen_bsp/\libucosii_bsp.a(alt_putchar.o)
 .debug_str     0x00002103       0x12 C:/Users/jchang3/Documents/ECE492/test/software/accelerometer_pen_bsp/\libucosii_bsp.a(alt_read.o)
 .debug_str     0x00002115       0x12 C:/Users/jchang3/Documents/ECE492/test/software/accelerometer_pen_bsp/\libucosii_bsp.a(alt_release_fd.o)
 .debug_str     0x00002127       0x1a C:/Users/jchang3/Documents/ECE492/test/software/accelerometer_pen_bsp/\libucosii_bsp.a(alt_sbrk.o)
 .debug_str     0x00002141       0x12 C:/Users/jchang3/Documents/ECE492/test/software/accelerometer_pen_bsp/\libucosii_bsp.a(alt_times.o)
 .debug_str     0x00002153       0x12 C:/Users/jchang3/Documents/ECE492/test/software/accelerometer_pen_bsp/\libucosii_bsp.a(alt_write.o)
 .debug_str     0x00002165       0x36 C:/Users/jchang3/Documents/ECE492/test/software/accelerometer_pen_bsp/\libucosii_bsp.a(alt_env_lock.o)
 .debug_str     0x0000219b       0x36 C:/Users/jchang3/Documents/ECE492/test/software/accelerometer_pen_bsp/\libucosii_bsp.a(alt_malloc_lock.o)
 .debug_str     0x000021d1       0x46 C:/Users/jchang3/Documents/ECE492/test/software/accelerometer_pen_bsp/\libucosii_bsp.a(os_core.o)
 .debug_str     0x00002217       0x2b C:/Users/jchang3/Documents/ECE492/test/software/accelerometer_pen_bsp/\libucosii_bsp.a(os_dbg.o)
 .debug_str     0x00002242       0x4e C:/Users/jchang3/Documents/ECE492/test/software/accelerometer_pen_bsp/\libucosii_bsp.a(os_flag.o)
 .debug_str     0x00002290       0x2c C:/Users/jchang3/Documents/ECE492/test/software/accelerometer_pen_bsp/\libucosii_bsp.a(os_mem.o)
 .debug_str     0x000022bc       0x36 C:/Users/jchang3/Documents/ECE492/test/software/accelerometer_pen_bsp/\libucosii_bsp.a(os_q.o)
 .debug_str     0x000022f2       0x36 C:/Users/jchang3/Documents/ECE492/test/software/accelerometer_pen_bsp/\libucosii_bsp.a(os_sem.o)
 .debug_str     0x00002328       0x23 C:/Users/jchang3/Documents/ECE492/test/software/accelerometer_pen_bsp/\libucosii_bsp.a(os_task.o)
 .debug_str     0x0000234b       0x1f C:/Users/jchang3/Documents/ECE492/test/software/accelerometer_pen_bsp/\libucosii_bsp.a(os_time.o)
 .debug_str     0x0000236a       0x4f C:/Users/jchang3/Documents/ECE492/test/software/accelerometer_pen_bsp/\libucosii_bsp.a(alt_sys_init.o)
 .debug_str     0x000023b9       0x12 C:/Users/jchang3/Documents/ECE492/test/software/accelerometer_pen_bsp/\libucosii_bsp.a(altera_avalon_jtag_uart_fd.o)
 .debug_str     0x000023cb       0x1a C:/Users/jchang3/Documents/ECE492/test/software/accelerometer_pen_bsp/\libucosii_bsp.a(altera_avalon_jtag_uart_init.o)
 .debug_str     0x000023e5       0x12 C:/Users/jchang3/Documents/ECE492/test/software/accelerometer_pen_bsp/\libucosii_bsp.a(altera_avalon_jtag_uart_ioctl.o)
 .debug_str     0x000023f7       0x22 C:/Users/jchang3/Documents/ECE492/test/software/accelerometer_pen_bsp/\libucosii_bsp.a(altera_avalon_jtag_uart_read.o)
 .debug_str     0x00002419       0x22 C:/Users/jchang3/Documents/ECE492/test/software/accelerometer_pen_bsp/\libucosii_bsp.a(altera_avalon_jtag_uart_write.o)
 .debug_str     0x0000243b       0x12 C:/Users/jchang3/Documents/ECE492/test/software/accelerometer_pen_bsp/\libucosii_bsp.a(altera_avalon_timer_sc.o)
 .debug_str     0x0000244d       0x55 C:/Users/jchang3/Documents/ECE492/test/software/accelerometer_pen_bsp/\libucosii_bsp.a(altera_up_avalon_character_lcd.o)
 .debug_str     0x000024a2       0x48 C:/Users/jchang3/Documents/ECE492/test/software/accelerometer_pen_bsp/\libucosii_bsp.a(altera_up_avalon_rs232.o)
 .debug_str     0x000024ea      0x1c2 C:/Users/jchang3/Documents/ECE492/test/software/accelerometer_pen_bsp/\libucosii_bsp.a(altera_up_sd_card_avalon_interface.o)
 .debug_str     0x000026ac       0x23 C:/Users/jchang3/Documents/ECE492/test/software/accelerometer_pen_bsp/\libucosii_bsp.a(alt_alarm_start.o)
 .debug_str     0x000026cf       0x12 C:/Users/jchang3/Documents/ECE492/test/software/accelerometer_pen_bsp/\libucosii_bsp.a(alt_dcache_flush_all.o)
 .debug_str     0x000026e1       0x12 C:/Users/jchang3/Documents/ECE492/test/software/accelerometer_pen_bsp/\libucosii_bsp.a(alt_dev_llist_insert.o)
 .debug_str     0x000026f3       0x12 C:/Users/jchang3/Documents/ECE492/test/software/accelerometer_pen_bsp/\libucosii_bsp.a(alt_find_dev.o)
 .debug_str     0x00002705       0x12 C:/Users/jchang3/Documents/ECE492/test/software/accelerometer_pen_bsp/\libucosii_bsp.a(alt_icache_flush_all.o)
 .debug_str     0x00002717       0x12 C:/Users/jchang3/Documents/ECE492/test/software/accelerometer_pen_bsp/\libucosii_bsp.a(alt_io_redirect.o)
 .debug_str     0x00002729       0x21 C:/Users/jchang3/Documents/ECE492/test/software/accelerometer_pen_bsp/\libucosii_bsp.a(alt_irq_register.o)
 .debug_str     0x0000274a       0x12 C:/Users/jchang3/Documents/ECE492/test/software/accelerometer_pen_bsp/\libucosii_bsp.a(alt_open.o)
 .debug_str     0x0000275c       0x1a C:/Users/jchang3/Documents/ECE492/test/software/accelerometer_pen_bsp/\libucosii_bsp.a(alt_tick.o)
 .debug_str     0x00002776       0x12 C:/Users/jchang3/Documents/ECE492/test/software/accelerometer_pen_bsp/\libucosii_bsp.a(altera_nios2_qsys_irq.o)
 .debug_str     0x00002788       0x20 C:/Users/jchang3/Documents/ECE492/test/software/accelerometer_pen_bsp/\libucosii_bsp.a(os_cpu_c.o)
 .debug_str     0x000027a8       0x12 C:/Users/jchang3/Documents/ECE492/test/software/accelerometer_pen_bsp/\libucosii_bsp.a(alt_find_file.o)
 .debug_str     0x000027ba       0x12 C:/Users/jchang3/Documents/ECE492/test/software/accelerometer_pen_bsp/\libucosii_bsp.a(alt_get_fd.o)
 .debug_str     0x000027cc       0x12 C:/Users/jchang3/Documents/ECE492/test/software/accelerometer_pen_bsp/\libucosii_bsp.a(alt_irq_handler.o)
 .debug_str     0x000027de       0x3e c:/altera/12.1sp1/nios2eds/bin/gnu/h-i686-mingw32/bin/../lib/gcc/nios2-elf/4.1.2/../../../../nios2-elf/lib/mno-hw-mul\libc.a(lib_a-atexit.o)
                                0x1cd (size before relaxing)
 .debug_str     0x0000281c       0x41 c:/altera/12.1sp1/nios2eds/bin/gnu/h-i686-mingw32/bin/../lib/gcc/nios2-elf/4.1.2/../../../../nios2-elf/lib/mno-hw-mul\libc.a(lib_a-exit.o)
                                0x51a (size before relaxing)
 .debug_str     0x0000285d       0x45 c:/altera/12.1sp1/nios2eds/bin/gnu/h-i686-mingw32/bin/../lib/gcc/nios2-elf/4.1.2/../../../../nios2-elf/lib/mno-hw-mul\libc.a(lib_a-memcmp.o)
                                0x178 (size before relaxing)
 .debug_str     0x000028a2       0x48 c:/altera/12.1sp1/nios2eds/bin/gnu/h-i686-mingw32/bin/../lib/gcc/nios2-elf/4.1.2/../../../../nios2-elf/lib/mno-hw-mul\libc.a(lib_a-putc.o)
                                0x520 (size before relaxing)
 .debug_str     0x000028ea       0x4d c:/altera/12.1sp1/nios2eds/bin/gnu/h-i686-mingw32/bin/../lib/gcc/nios2-elf/4.1.2/../../../../nios2-elf/lib/mno-hw-mul\libc.a(lib_a-wbuf.o)
                                0x51e (size before relaxing)
 .debug_str     0x00002937       0x54 c:/altera/12.1sp1/nios2eds/bin/gnu/h-i686-mingw32/bin/../lib/gcc/nios2-elf/4.1.2/../../../../nios2-elf/lib/mno-hw-mul\libc.a(lib_a-__atexit.o)
                                0x532 (size before relaxing)
 .debug_str     0x0000298b       0x7e c:/altera/12.1sp1/nios2eds/bin/gnu/h-i686-mingw32/bin/../lib/gcc/nios2-elf/4.1.2/../../../../nios2-elf/lib/mno-hw-mul\libc.a(lib_a-__call_atexit.o)
                                0x55c (size before relaxing)
 .debug_str     0x00002a09       0x1c C:/Users/jchang3/Documents/ECE492/test/software/accelerometer_pen_bsp/\libucosii_bsp.a(alt_exit.o)

.debug_loc      0x00000000     0xe1ee
 *(.debug_loc)
 .debug_loc     0x00000000       0xd7 obj/default/dtw.o
 .debug_loc     0x000000d7      0x184 obj/default/hello_ucosii.o
 .debug_loc     0x0000025b      0x11d c:/altera/12.1sp1/nios2eds/bin/gnu/h-i686-mingw32/bin/../lib/gcc/nios2-elf/4.1.2/mno-hw-mul\libgcc.a(_div_sf.o)
 .debug_loc     0x00000378       0x32 c:/altera/12.1sp1/nios2eds/bin/gnu/h-i686-mingw32/bin/../lib/gcc/nios2-elf/4.1.2/mno-hw-mul\libgcc.a(_sf_to_df.o)
 .debug_loc     0x000003aa       0x87 c:/altera/12.1sp1/nios2eds/bin/gnu/h-i686-mingw32/bin/../lib/gcc/nios2-elf/4.1.2/mno-hw-mul\libgcc.a(_usi_to_sf.o)
 .debug_loc     0x00000431      0x47a c:/altera/12.1sp1/nios2eds/bin/gnu/h-i686-mingw32/bin/../lib/gcc/nios2-elf/4.1.2/mno-hw-mul\libgcc.a(_addsub_df.o)
 .debug_loc     0x000008ab      0x3b4 c:/altera/12.1sp1/nios2eds/bin/gnu/h-i686-mingw32/bin/../lib/gcc/nios2-elf/4.1.2/mno-hw-mul\libgcc.a(_mul_df.o)
 .debug_loc     0x00000c5f       0x9a c:/altera/12.1sp1/nios2eds/bin/gnu/h-i686-mingw32/bin/../lib/gcc/nios2-elf/4.1.2/mno-hw-mul\libgcc.a(_si_to_df.o)
 .debug_loc     0x00000cf9       0x8b c:/altera/12.1sp1/nios2eds/bin/gnu/h-i686-mingw32/bin/../lib/gcc/nios2-elf/4.1.2/mno-hw-mul\libgcc.a(_df_to_si.o)
 .debug_loc     0x00000d84       0x58 c:/altera/12.1sp1/nios2eds/bin/gnu/h-i686-mingw32/bin/../lib/gcc/nios2-elf/4.1.2/mno-hw-mul\libgcc.a(_make_df.o)
 .debug_loc     0x00000ddc       0x4f c:/altera/12.1sp1/nios2eds/bin/gnu/h-i686-mingw32/bin/../lib/gcc/nios2-elf/4.1.2/mno-hw-mul\libgcc.a(lib2-mul.o)
 .debug_loc     0x00000e2b      0x103 c:/altera/12.1sp1/nios2eds/bin/gnu/h-i686-mingw32/bin/../lib/gcc/nios2-elf/4.1.2/mno-hw-mul\libgcc.a(_muldi3.o)
 .debug_loc     0x00000f2e       0x1e c:/altera/12.1sp1/nios2eds/bin/gnu/h-i686-mingw32/bin/../lib/gcc/nios2-elf/4.1.2/mno-hw-mul\libgcc.a(_clzsi2.o)
 .debug_loc     0x00000f4c       0xf9 c:/altera/12.1sp1/nios2eds/bin/gnu/h-i686-mingw32/bin/../lib/gcc/nios2-elf/4.1.2/mno-hw-mul\libgcc.a(_pack_sf.o)
 .debug_loc     0x00001045       0x31 c:/altera/12.1sp1/nios2eds/bin/gnu/h-i686-mingw32/bin/../lib/gcc/nios2-elf/4.1.2/mno-hw-mul\libgcc.a(_unpack_sf.o)
 .debug_loc     0x00001076      0x184 c:/altera/12.1sp1/nios2eds/bin/gnu/h-i686-mingw32/bin/../lib/gcc/nios2-elf/4.1.2/mno-hw-mul\libgcc.a(_pack_df.o)
 .debug_loc     0x000011fa       0xe5 c:/altera/12.1sp1/nios2eds/bin/gnu/h-i686-mingw32/bin/../lib/gcc/nios2-elf/4.1.2/mno-hw-mul\libgcc.a(_unpack_df.o)
 .debug_loc     0x000012df       0x3c c:/altera/12.1sp1/nios2eds/bin/gnu/h-i686-mingw32/bin/../lib/gcc/nios2-elf/4.1.2/../../../../nios2-elf/lib/mno-hw-mul\libc.a(lib_a-calloc.o)
 .debug_loc     0x0000131b       0xff c:/altera/12.1sp1/nios2eds/bin/gnu/h-i686-mingw32/bin/../lib/gcc/nios2-elf/4.1.2/../../../../nios2-elf/lib/mno-hw-mul\libc.a(lib_a-callocr.o)
 .debug_loc     0x0000141a       0x3d c:/altera/12.1sp1/nios2eds/bin/gnu/h-i686-mingw32/bin/../lib/gcc/nios2-elf/4.1.2/../../../../nios2-elf/lib/mno-hw-mul\libc.a(lib_a-clock.o)
 .debug_loc     0x00001457      0xaeb c:/altera/12.1sp1/nios2eds/bin/gnu/h-i686-mingw32/bin/../lib/gcc/nios2-elf/4.1.2/../../../../nios2-elf/lib/mno-hw-mul\libc.a(lib_a-mallocr.o)
 .debug_loc     0x00001f42       0xa1 c:/altera/12.1sp1/nios2eds/bin/gnu/h-i686-mingw32/bin/../lib/gcc/nios2-elf/4.1.2/../../../../nios2-elf/lib/mno-hw-mul\libc.a(lib_a-memset.o)
 .debug_loc     0x00001fe3       0xcb c:/altera/12.1sp1/nios2eds/bin/gnu/h-i686-mingw32/bin/../lib/gcc/nios2-elf/4.1.2/../../../../nios2-elf/lib/mno-hw-mul\libc.a(lib_a-printf.o)
 .debug_loc     0x000020ae       0xa2 c:/altera/12.1sp1/nios2eds/bin/gnu/h-i686-mingw32/bin/../lib/gcc/nios2-elf/4.1.2/../../../../nios2-elf/lib/mno-hw-mul\libc.a(lib_a-puts.o)
 .debug_loc     0x00002150       0x5b c:/altera/12.1sp1/nios2eds/bin/gnu/h-i686-mingw32/bin/../lib/gcc/nios2-elf/4.1.2/../../../../nios2-elf/lib/mno-hw-mul\libc.a(lib_a-sbrkr.o)
 .debug_loc     0x000021ab       0x3c c:/altera/12.1sp1/nios2eds/bin/gnu/h-i686-mingw32/bin/../lib/gcc/nios2-elf/4.1.2/../../../../nios2-elf/lib/mno-hw-mul\libc.a(lib_a-strlen.o)
 .debug_loc     0x000021e7       0x26 c:/altera/12.1sp1/nios2eds/bin/gnu/h-i686-mingw32/bin/../lib/gcc/nios2-elf/4.1.2/../../../../nios2-elf/lib/mno-hw-mul\libc.a(lib_a-timesr.o)
 .debug_loc     0x0000220d     0x1dc0 c:/altera/12.1sp1/nios2eds/bin/gnu/h-i686-mingw32/bin/../lib/gcc/nios2-elf/4.1.2/../../../../nios2-elf/lib/mno-hw-mul\libc.a(lib_a-vfprintf.o)
 .debug_loc     0x00003fcd       0x7c c:/altera/12.1sp1/nios2eds/bin/gnu/h-i686-mingw32/bin/../lib/gcc/nios2-elf/4.1.2/../../../../nios2-elf/lib/mno-hw-mul\libc.a(lib_a-wsetup.o)
 .debug_loc     0x00004049     0x1da7 c:/altera/12.1sp1/nios2eds/bin/gnu/h-i686-mingw32/bin/../lib/gcc/nios2-elf/4.1.2/../../../../nios2-elf/lib/mno-hw-mul\libc.a(lib_a-dtoa.o)
 .debug_loc     0x00005df0      0x1f6 c:/altera/12.1sp1/nios2eds/bin/gnu/h-i686-mingw32/bin/../lib/gcc/nios2-elf/4.1.2/../../../../nios2-elf/lib/mno-hw-mul\libc.a(lib_a-fflush.o)
 .debug_loc     0x00005fe6      0x1e1 c:/altera/12.1sp1/nios2eds/bin/gnu/h-i686-mingw32/bin/../lib/gcc/nios2-elf/4.1.2/../../../../nios2-elf/lib/mno-hw-mul\libc.a(lib_a-findfp.o)
 .debug_loc     0x000061c7      0x4a7 c:/altera/12.1sp1/nios2eds/bin/gnu/h-i686-mingw32/bin/../lib/gcc/nios2-elf/4.1.2/../../../../nios2-elf/lib/mno-hw-mul\libc.a(lib_a-freer.o)
 .debug_loc     0x0000666e      0x4e4 c:/altera/12.1sp1/nios2eds/bin/gnu/h-i686-mingw32/bin/../lib/gcc/nios2-elf/4.1.2/../../../../nios2-elf/lib/mno-hw-mul\libc.a(lib_a-fvwrite.o)
 .debug_loc     0x00006b52      0x1d2 c:/altera/12.1sp1/nios2eds/bin/gnu/h-i686-mingw32/bin/../lib/gcc/nios2-elf/4.1.2/../../../../nios2-elf/lib/mno-hw-mul\libc.a(lib_a-fwalk.o)
 .debug_loc     0x00006d24       0xe1 c:/altera/12.1sp1/nios2eds/bin/gnu/h-i686-mingw32/bin/../lib/gcc/nios2-elf/4.1.2/../../../../nios2-elf/lib/mno-hw-mul\libc.a(lib_a-locale.o)
 .debug_loc     0x00006e05      0x11c c:/altera/12.1sp1/nios2eds/bin/gnu/h-i686-mingw32/bin/../lib/gcc/nios2-elf/4.1.2/../../../../nios2-elf/lib/mno-hw-mul\libc.a(lib_a-makebuf.o)
 .debug_loc     0x00006f21      0x106 c:/altera/12.1sp1/nios2eds/bin/gnu/h-i686-mingw32/bin/../lib/gcc/nios2-elf/4.1.2/../../../../nios2-elf/lib/mno-hw-mul\libc.a(lib_a-memchr.o)
 .debug_loc     0x00007027       0xca c:/altera/12.1sp1/nios2eds/bin/gnu/h-i686-mingw32/bin/../lib/gcc/nios2-elf/4.1.2/../../../../nios2-elf/lib/mno-hw-mul\libc.a(lib_a-memcpy.o)
 .debug_loc     0x000070f1      0x117 c:/altera/12.1sp1/nios2eds/bin/gnu/h-i686-mingw32/bin/../lib/gcc/nios2-elf/4.1.2/../../../../nios2-elf/lib/mno-hw-mul\libc.a(lib_a-memmove.o)
 .debug_loc     0x00007208     0x1547 c:/altera/12.1sp1/nios2eds/bin/gnu/h-i686-mingw32/bin/../lib/gcc/nios2-elf/4.1.2/../../../../nios2-elf/lib/mno-hw-mul\libc.a(lib_a-mprec.o)
 .debug_loc     0x0000874f      0x8c0 c:/altera/12.1sp1/nios2eds/bin/gnu/h-i686-mingw32/bin/../lib/gcc/nios2-elf/4.1.2/../../../../nios2-elf/lib/mno-hw-mul\libc.a(lib_a-reallocr.o)
 .debug_loc     0x0000900f       0x36 c:/altera/12.1sp1/nios2eds/bin/gnu/h-i686-mingw32/bin/../lib/gcc/nios2-elf/4.1.2/../../../../nios2-elf/lib/mno-hw-mul\libc.a(lib_a-s_isinfd.o)
 .debug_loc     0x00009045       0x18 c:/altera/12.1sp1/nios2eds/bin/gnu/h-i686-mingw32/bin/../lib/gcc/nios2-elf/4.1.2/../../../../nios2-elf/lib/mno-hw-mul\libc.a(lib_a-s_isnand.o)
 .debug_loc     0x0000905d      0x21f c:/altera/12.1sp1/nios2eds/bin/gnu/h-i686-mingw32/bin/../lib/gcc/nios2-elf/4.1.2/../../../../nios2-elf/lib/mno-hw-mul\libc.a(lib_a-stdio.o)
 .debug_loc     0x0000927c       0x65 c:/altera/12.1sp1/nios2eds/bin/gnu/h-i686-mingw32/bin/../lib/gcc/nios2-elf/4.1.2/../../../../nios2-elf/lib/mno-hw-mul\libc.a(lib_a-strcmp.o)
 .debug_loc     0x000092e1       0x97 c:/altera/12.1sp1/nios2eds/bin/gnu/h-i686-mingw32/bin/../lib/gcc/nios2-elf/4.1.2/../../../../nios2-elf/lib/mno-hw-mul\libc.a(lib_a-writer.o)
 .debug_loc     0x00009378       0x5b c:/altera/12.1sp1/nios2eds/bin/gnu/h-i686-mingw32/bin/../lib/gcc/nios2-elf/4.1.2/../../../../nios2-elf/lib/mno-hw-mul\libc.a(lib_a-closer.o)
 .debug_loc     0x000093d3       0xe4 c:/altera/12.1sp1/nios2eds/bin/gnu/h-i686-mingw32/bin/../lib/gcc/nios2-elf/4.1.2/../../../../nios2-elf/lib/mno-hw-mul\libc.a(lib_a-fclose.o)
 .debug_loc     0x000094b7       0x79 c:/altera/12.1sp1/nios2eds/bin/gnu/h-i686-mingw32/bin/../lib/gcc/nios2-elf/4.1.2/../../../../nios2-elf/lib/mno-hw-mul\libc.a(lib_a-fstatr.o)
 .debug_loc     0x00009530       0x5b c:/altera/12.1sp1/nios2eds/bin/gnu/h-i686-mingw32/bin/../lib/gcc/nios2-elf/4.1.2/../../../../nios2-elf/lib/mno-hw-mul\libc.a(lib_a-isattyr.o)
 .debug_loc     0x0000958b       0x97 c:/altera/12.1sp1/nios2eds/bin/gnu/h-i686-mingw32/bin/../lib/gcc/nios2-elf/4.1.2/../../../../nios2-elf/lib/mno-hw-mul\libc.a(lib_a-lseekr.o)
 .debug_loc     0x00009622       0x97 c:/altera/12.1sp1/nios2eds/bin/gnu/h-i686-mingw32/bin/../lib/gcc/nios2-elf/4.1.2/../../../../nios2-elf/lib/mno-hw-mul\libc.a(lib_a-readr.o)
 .debug_loc     0x000096b9      0xc12 c:/altera/12.1sp1/nios2eds/bin/gnu/h-i686-mingw32/bin/../lib/gcc/nios2-elf/4.1.2/mno-hw-mul\libgcc.a(_udivdi3.o)
 .debug_loc     0x0000a2cb      0xbcc c:/altera/12.1sp1/nios2eds/bin/gnu/h-i686-mingw32/bin/../lib/gcc/nios2-elf/4.1.2/mno-hw-mul\libgcc.a(_umoddi3.o)
 .debug_loc     0x0000ae97      0x1df c:/altera/12.1sp1/nios2eds/bin/gnu/h-i686-mingw32/bin/../lib/gcc/nios2-elf/4.1.2/mno-hw-mul\libgcc.a(_div_df.o)
 .debug_loc     0x0000b076       0x70 c:/altera/12.1sp1/nios2eds/bin/gnu/h-i686-mingw32/bin/../lib/gcc/nios2-elf/4.1.2/mno-hw-mul\libgcc.a(_eq_df.o)
 .debug_loc     0x0000b0e6       0x70 c:/altera/12.1sp1/nios2eds/bin/gnu/h-i686-mingw32/bin/../lib/gcc/nios2-elf/4.1.2/mno-hw-mul\libgcc.a(_ne_df.o)
 .debug_loc     0x0000b156       0x70 c:/altera/12.1sp1/nios2eds/bin/gnu/h-i686-mingw32/bin/../lib/gcc/nios2-elf/4.1.2/mno-hw-mul\libgcc.a(_gt_df.o)
 .debug_loc     0x0000b1c6       0x70 c:/altera/12.1sp1/nios2eds/bin/gnu/h-i686-mingw32/bin/../lib/gcc/nios2-elf/4.1.2/mno-hw-mul\libgcc.a(_ge_df.o)
 .debug_loc     0x0000b236       0x70 c:/altera/12.1sp1/nios2eds/bin/gnu/h-i686-mingw32/bin/../lib/gcc/nios2-elf/4.1.2/mno-hw-mul\libgcc.a(_lt_df.o)
 .debug_loc     0x0000b2a6       0x5b c:/altera/12.1sp1/nios2eds/bin/gnu/h-i686-mingw32/bin/../lib/gcc/nios2-elf/4.1.2/mno-hw-mul\libgcc.a(_usi_to_df.o)
 .debug_loc     0x0000b301      0x1d2 c:/altera/12.1sp1/nios2eds/bin/gnu/h-i686-mingw32/bin/../lib/gcc/nios2-elf/4.1.2/mno-hw-mul\libgcc.a(lib2-divmod.o)
 .debug_loc     0x0000b4d3       0x56 C:/Users/jchang3/Documents/ECE492/test/software/accelerometer_pen_bsp/\libucosii_bsp.a(alt_close.o)
 .debug_loc     0x0000b529       0x2b C:/Users/jchang3/Documents/ECE492/test/software/accelerometer_pen_bsp/\libucosii_bsp.a(alt_dev.o)
 .debug_loc     0x0000b554       0x56 C:/Users/jchang3/Documents/ECE492/test/software/accelerometer_pen_bsp/\libucosii_bsp.a(alt_fstat.o)
 .debug_loc     0x0000b5aa       0x57 C:/Users/jchang3/Documents/ECE492/test/software/accelerometer_pen_bsp/\libucosii_bsp.a(alt_isatty.o)
 .debug_loc     0x0000b601       0x56 C:/Users/jchang3/Documents/ECE492/test/software/accelerometer_pen_bsp/\libucosii_bsp.a(alt_load.o)
 .debug_loc     0x0000b657       0x56 C:/Users/jchang3/Documents/ECE492/test/software/accelerometer_pen_bsp/\libucosii_bsp.a(alt_lseek.o)
 .debug_loc     0x0000b6ad       0x2b C:/Users/jchang3/Documents/ECE492/test/software/accelerometer_pen_bsp/\libucosii_bsp.a(alt_main.o)
 .debug_loc     0x0000b6d8       0x2b C:/Users/jchang3/Documents/ECE492/test/software/accelerometer_pen_bsp/\libucosii_bsp.a(alt_printf.o)
 .debug_loc     0x0000b703       0x2b C:/Users/jchang3/Documents/ECE492/test/software/accelerometer_pen_bsp/\libucosii_bsp.a(alt_putchar.o)
 .debug_loc     0x0000b72e       0x56 C:/Users/jchang3/Documents/ECE492/test/software/accelerometer_pen_bsp/\libucosii_bsp.a(alt_read.o)
 .debug_loc     0x0000b784       0x2b C:/Users/jchang3/Documents/ECE492/test/software/accelerometer_pen_bsp/\libucosii_bsp.a(alt_release_fd.o)
 .debug_loc     0x0000b7af       0x2b C:/Users/jchang3/Documents/ECE492/test/software/accelerometer_pen_bsp/\libucosii_bsp.a(alt_sbrk.o)
 .debug_loc     0x0000b7da       0x56 C:/Users/jchang3/Documents/ECE492/test/software/accelerometer_pen_bsp/\libucosii_bsp.a(alt_times.o)
 .debug_loc     0x0000b830       0x56 C:/Users/jchang3/Documents/ECE492/test/software/accelerometer_pen_bsp/\libucosii_bsp.a(alt_write.o)
 .debug_loc     0x0000b886       0x57 C:/Users/jchang3/Documents/ECE492/test/software/accelerometer_pen_bsp/\libucosii_bsp.a(alt_env_lock.o)
 .debug_loc     0x0000b8dd       0x57 C:/Users/jchang3/Documents/ECE492/test/software/accelerometer_pen_bsp/\libucosii_bsp.a(alt_malloc_lock.o)
 .debug_loc     0x0000b934      0x5e2 C:/Users/jchang3/Documents/ECE492/test/software/accelerometer_pen_bsp/\libucosii_bsp.a(os_core.o)
 .debug_loc     0x0000bf16       0x2b C:/Users/jchang3/Documents/ECE492/test/software/accelerometer_pen_bsp/\libucosii_bsp.a(os_dbg.o)
 .debug_loc     0x0000bf41      0x232 C:/Users/jchang3/Documents/ECE492/test/software/accelerometer_pen_bsp/\libucosii_bsp.a(os_flag.o)
 .debug_loc     0x0000c173      0x12d C:/Users/jchang3/Documents/ECE492/test/software/accelerometer_pen_bsp/\libucosii_bsp.a(os_mem.o)
 .debug_loc     0x0000c2a0      0x1da C:/Users/jchang3/Documents/ECE492/test/software/accelerometer_pen_bsp/\libucosii_bsp.a(os_q.o)
 .debug_loc     0x0000c47a      0x158 C:/Users/jchang3/Documents/ECE492/test/software/accelerometer_pen_bsp/\libucosii_bsp.a(os_sem.o)
 .debug_loc     0x0000c5d2      0x207 C:/Users/jchang3/Documents/ECE492/test/software/accelerometer_pen_bsp/\libucosii_bsp.a(os_task.o)
 .debug_loc     0x0000c7d9       0xd7 C:/Users/jchang3/Documents/ECE492/test/software/accelerometer_pen_bsp/\libucosii_bsp.a(os_time.o)
 .debug_loc     0x0000c8b0       0x81 C:/Users/jchang3/Documents/ECE492/test/software/accelerometer_pen_bsp/\libucosii_bsp.a(alt_sys_init.o)
 .debug_loc     0x0000c931       0xac C:/Users/jchang3/Documents/ECE492/test/software/accelerometer_pen_bsp/\libucosii_bsp.a(altera_avalon_jtag_uart_fd.o)
 .debug_loc     0x0000c9dd       0xac C:/Users/jchang3/Documents/ECE492/test/software/accelerometer_pen_bsp/\libucosii_bsp.a(altera_avalon_jtag_uart_init.o)
 .debug_loc     0x0000ca89       0x2b C:/Users/jchang3/Documents/ECE492/test/software/accelerometer_pen_bsp/\libucosii_bsp.a(altera_avalon_jtag_uart_ioctl.o)
 .debug_loc     0x0000cab4       0x2c C:/Users/jchang3/Documents/ECE492/test/software/accelerometer_pen_bsp/\libucosii_bsp.a(altera_avalon_jtag_uart_read.o)
 .debug_loc     0x0000cae0       0x2c C:/Users/jchang3/Documents/ECE492/test/software/accelerometer_pen_bsp/\libucosii_bsp.a(altera_avalon_jtag_uart_write.o)
 .debug_loc     0x0000cb0c       0x56 C:/Users/jchang3/Documents/ECE492/test/software/accelerometer_pen_bsp/\libucosii_bsp.a(altera_avalon_timer_sc.o)
 .debug_loc     0x0000cb62      0x22f C:/Users/jchang3/Documents/ECE492/test/software/accelerometer_pen_bsp/\libucosii_bsp.a(altera_up_avalon_character_lcd.o)
 .debug_loc     0x0000cd91      0x1ae C:/Users/jchang3/Documents/ECE492/test/software/accelerometer_pen_bsp/\libucosii_bsp.a(altera_up_avalon_rs232.o)
 .debug_loc     0x0000cf3f      0x590 C:/Users/jchang3/Documents/ECE492/test/software/accelerometer_pen_bsp/\libucosii_bsp.a(altera_up_sd_card_avalon_interface.o)
 .debug_loc     0x0000d4cf       0x2b C:/Users/jchang3/Documents/ECE492/test/software/accelerometer_pen_bsp/\libucosii_bsp.a(alt_alarm_start.o)
 .debug_loc     0x0000d4fa       0x2b C:/Users/jchang3/Documents/ECE492/test/software/accelerometer_pen_bsp/\libucosii_bsp.a(alt_dcache_flush_all.o)
 .debug_loc     0x0000d525       0x56 C:/Users/jchang3/Documents/ECE492/test/software/accelerometer_pen_bsp/\libucosii_bsp.a(alt_dev_llist_insert.o)
 .debug_loc     0x0000d57b       0x2b C:/Users/jchang3/Documents/ECE492/test/software/accelerometer_pen_bsp/\libucosii_bsp.a(alt_do_ctors.o)
 .debug_loc     0x0000d5a6       0x2b C:/Users/jchang3/Documents/ECE492/test/software/accelerometer_pen_bsp/\libucosii_bsp.a(alt_do_dtors.o)
 .debug_loc     0x0000d5d1       0x2b C:/Users/jchang3/Documents/ECE492/test/software/accelerometer_pen_bsp/\libucosii_bsp.a(alt_find_dev.o)
 .debug_loc     0x0000d5fc       0x2b C:/Users/jchang3/Documents/ECE492/test/software/accelerometer_pen_bsp/\libucosii_bsp.a(alt_icache_flush_all.o)
 .debug_loc     0x0000d627       0x56 C:/Users/jchang3/Documents/ECE492/test/software/accelerometer_pen_bsp/\libucosii_bsp.a(alt_io_redirect.o)
 .debug_loc     0x0000d67d       0x2c C:/Users/jchang3/Documents/ECE492/test/software/accelerometer_pen_bsp/\libucosii_bsp.a(alt_irq_register.o)
 .debug_loc     0x0000d6a9       0x81 C:/Users/jchang3/Documents/ECE492/test/software/accelerometer_pen_bsp/\libucosii_bsp.a(alt_open.o)
 .debug_loc     0x0000d72a       0x56 C:/Users/jchang3/Documents/ECE492/test/software/accelerometer_pen_bsp/\libucosii_bsp.a(alt_tick.o)
 .debug_loc     0x0000d780       0x2b C:/Users/jchang3/Documents/ECE492/test/software/accelerometer_pen_bsp/\libucosii_bsp.a(altera_nios2_qsys_irq.o)
 .debug_loc     0x0000d7ab      0x1ae C:/Users/jchang3/Documents/ECE492/test/software/accelerometer_pen_bsp/\libucosii_bsp.a(os_cpu_c.o)
 .debug_loc     0x0000d959       0x2b C:/Users/jchang3/Documents/ECE492/test/software/accelerometer_pen_bsp/\libucosii_bsp.a(alt_find_file.o)
 .debug_loc     0x0000d984       0x2b C:/Users/jchang3/Documents/ECE492/test/software/accelerometer_pen_bsp/\libucosii_bsp.a(alt_get_fd.o)
 .debug_loc     0x0000d9af       0x2b C:/Users/jchang3/Documents/ECE492/test/software/accelerometer_pen_bsp/\libucosii_bsp.a(alt_irq_handler.o)
 .debug_loc     0x0000d9da       0x1e c:/altera/12.1sp1/nios2eds/bin/gnu/h-i686-mingw32/bin/../lib/gcc/nios2-elf/4.1.2/../../../../nios2-elf/lib/mno-hw-mul\libc.a(lib_a-atexit.o)
 .debug_loc     0x0000d9f8       0x3d c:/altera/12.1sp1/nios2eds/bin/gnu/h-i686-mingw32/bin/../lib/gcc/nios2-elf/4.1.2/../../../../nios2-elf/lib/mno-hw-mul\libc.a(lib_a-exit.o)
 .debug_loc     0x0000da35      0x114 c:/altera/12.1sp1/nios2eds/bin/gnu/h-i686-mingw32/bin/../lib/gcc/nios2-elf/4.1.2/../../../../nios2-elf/lib/mno-hw-mul\libc.a(lib_a-memcmp.o)
 .debug_loc     0x0000db49      0x20d c:/altera/12.1sp1/nios2eds/bin/gnu/h-i686-mingw32/bin/../lib/gcc/nios2-elf/4.1.2/../../../../nios2-elf/lib/mno-hw-mul\libc.a(lib_a-putc.o)
 .debug_loc     0x0000dd56      0x157 c:/altera/12.1sp1/nios2eds/bin/gnu/h-i686-mingw32/bin/../lib/gcc/nios2-elf/4.1.2/../../../../nios2-elf/lib/mno-hw-mul\libc.a(lib_a-wbuf.o)
 .debug_loc     0x0000dead      0x120 c:/altera/12.1sp1/nios2eds/bin/gnu/h-i686-mingw32/bin/../lib/gcc/nios2-elf/4.1.2/../../../../nios2-elf/lib/mno-hw-mul\libc.a(lib_a-__atexit.o)
 .debug_loc     0x0000dfcd      0x1cb c:/altera/12.1sp1/nios2eds/bin/gnu/h-i686-mingw32/bin/../lib/gcc/nios2-elf/4.1.2/../../../../nios2-elf/lib/mno-hw-mul\libc.a(lib_a-__call_atexit.o)
 .debug_loc     0x0000e198       0x56 C:/Users/jchang3/Documents/ECE492/test/software/accelerometer_pen_bsp/\libucosii_bsp.a(alt_exit.o)

.debug_macinfo
 *(.debug_macinfo)

.debug_weaknames
 *(.debug_weaknames)

.debug_funcnames
 *(.debug_funcnames)

.debug_typenames
 *(.debug_typenames)

.debug_varnames
 *(.debug_varnames)

.debug_alt_sim_info
                0x00000000       0x10
 *(.debug_alt_sim_info)
 .debug_alt_sim_info
                0x00000000       0x10 C:/Users/jchang3/Documents/ECE492/test/software/accelerometer_pen_bsp//obj/HAL/src/crt0.o
                0x01000000                __alt_data_end = 0x1000000
                0x01000000                PROVIDE (__alt_stack_pointer, __alt_data_end)
                0x0083462c                PROVIDE (__alt_stack_limit, __alt_stack_base)
                0x0083462c                PROVIDE (__alt_heap_start, end)
                0x01000000                PROVIDE (__alt_heap_limit, 0x1000000)
OUTPUT(accelerometer_pen.elf elf32-littlenios2)

.debug_ranges   0x00000000      0xa98
 .debug_ranges  0x00000000       0x20 C:/Users/jchang3/Documents/ECE492/test/software/accelerometer_pen_bsp//obj/HAL/src/crt0.o
 .debug_ranges  0x00000020       0x60 c:/altera/12.1sp1/nios2eds/bin/gnu/h-i686-mingw32/bin/../lib/gcc/nios2-elf/4.1.2/mno-hw-mul\libgcc.a(_div_sf.o)
 .debug_ranges  0x00000080       0x40 c:/altera/12.1sp1/nios2eds/bin/gnu/h-i686-mingw32/bin/../lib/gcc/nios2-elf/4.1.2/mno-hw-mul\libgcc.a(_usi_to_sf.o)
 .debug_ranges  0x000000c0       0x30 c:/altera/12.1sp1/nios2eds/bin/gnu/h-i686-mingw32/bin/../lib/gcc/nios2-elf/4.1.2/mno-hw-mul\libgcc.a(_addsub_df.o)
 .debug_ranges  0x000000f0       0x88 c:/altera/12.1sp1/nios2eds/bin/gnu/h-i686-mingw32/bin/../lib/gcc/nios2-elf/4.1.2/mno-hw-mul\libgcc.a(_mul_df.o)
 .debug_ranges  0x00000178       0x88 c:/altera/12.1sp1/nios2eds/bin/gnu/h-i686-mingw32/bin/../lib/gcc/nios2-elf/4.1.2/mno-hw-mul\libgcc.a(_muldi3.o)
 .debug_ranges  0x00000200       0x28 c:/altera/12.1sp1/nios2eds/bin/gnu/h-i686-mingw32/bin/../lib/gcc/nios2-elf/4.1.2/mno-hw-mul\libgcc.a(_clzsi2.o)
 .debug_ranges  0x00000228       0x28 c:/altera/12.1sp1/nios2eds/bin/gnu/h-i686-mingw32/bin/../lib/gcc/nios2-elf/4.1.2/mno-hw-mul\libgcc.a(_pack_df.o)
 .debug_ranges  0x00000250       0x38 c:/altera/12.1sp1/nios2eds/bin/gnu/h-i686-mingw32/bin/../lib/gcc/nios2-elf/4.1.2/../../../../nios2-elf/lib/mno-hw-mul\libc.a(lib_a-callocr.o)
 .debug_ranges  0x00000288       0x70 c:/altera/12.1sp1/nios2eds/bin/gnu/h-i686-mingw32/bin/../lib/gcc/nios2-elf/4.1.2/../../../../nios2-elf/lib/mno-hw-mul\libc.a(lib_a-mallocr.o)
 .debug_ranges  0x000002f8      0x168 c:/altera/12.1sp1/nios2eds/bin/gnu/h-i686-mingw32/bin/../lib/gcc/nios2-elf/4.1.2/../../../../nios2-elf/lib/mno-hw-mul\libc.a(lib_a-vfprintf.o)
 .debug_ranges  0x00000460       0x20 c:/altera/12.1sp1/nios2eds/bin/gnu/h-i686-mingw32/bin/../lib/gcc/nios2-elf/4.1.2/../../../../nios2-elf/lib/mno-hw-mul\libc.a(lib_a-fflush.o)
 .debug_ranges  0x00000480       0x28 c:/altera/12.1sp1/nios2eds/bin/gnu/h-i686-mingw32/bin/../lib/gcc/nios2-elf/4.1.2/../../../../nios2-elf/lib/mno-hw-mul\libc.a(lib_a-fvwrite.o)
 .debug_ranges  0x000004a8       0xa0 c:/altera/12.1sp1/nios2eds/bin/gnu/h-i686-mingw32/bin/../lib/gcc/nios2-elf/4.1.2/../../../../nios2-elf/lib/mno-hw-mul\libc.a(lib_a-fwalk.o)
 .debug_ranges  0x00000548      0x110 c:/altera/12.1sp1/nios2eds/bin/gnu/h-i686-mingw32/bin/../lib/gcc/nios2-elf/4.1.2/../../../../nios2-elf/lib/mno-hw-mul\libc.a(lib_a-reallocr.o)
 .debug_ranges  0x00000658      0x190 c:/altera/12.1sp1/nios2eds/bin/gnu/h-i686-mingw32/bin/../lib/gcc/nios2-elf/4.1.2/mno-hw-mul\libgcc.a(_udivdi3.o)
 .debug_ranges  0x000007e8      0x1c0 c:/altera/12.1sp1/nios2eds/bin/gnu/h-i686-mingw32/bin/../lib/gcc/nios2-elf/4.1.2/mno-hw-mul\libgcc.a(_umoddi3.o)
 .debug_ranges  0x000009a8       0x50 c:/altera/12.1sp1/nios2eds/bin/gnu/h-i686-mingw32/bin/../lib/gcc/nios2-elf/4.1.2/mno-hw-mul\libgcc.a(_div_df.o)
 .debug_ranges  0x000009f8       0x18 c:/altera/12.1sp1/nios2eds/bin/gnu/h-i686-mingw32/bin/../lib/gcc/nios2-elf/4.1.2/mno-hw-mul\libgcc.a(_usi_to_df.o)
 .debug_ranges  0x00000a10       0x18 C:/Users/jchang3/Documents/ECE492/test/software/accelerometer_pen_bsp/\libucosii_bsp.a(altera_avalon_jtag_uart_init.o)
 .debug_ranges  0x00000a28       0x28 C:/Users/jchang3/Documents/ECE492/test/software/accelerometer_pen_bsp/\libucosii_bsp.a(alt_irq_entry.o)
 .debug_ranges  0x00000a50       0x30 C:/Users/jchang3/Documents/ECE492/test/software/accelerometer_pen_bsp/\libucosii_bsp.a(alt_exception_entry.o)
 .debug_ranges  0x00000a80       0x18 c:/altera/12.1sp1/nios2eds/bin/gnu/h-i686-mingw32/bin/../lib/gcc/nios2-elf/4.1.2/../../../../nios2-elf/lib/mno-hw-mul\libc.a(lib_a-__call_atexit.o)
